ARM GAS  /tmp/ccrpUSCJ.s 			page 1


   1              		.cpu cortex-m3
   2              		.eabi_attribute 20, 1
   3              		.eabi_attribute 21, 1
   4              		.eabi_attribute 23, 3
   5              		.eabi_attribute 24, 1
   6              		.eabi_attribute 25, 1
   7              		.eabi_attribute 26, 1
   8              		.eabi_attribute 30, 4
   9              		.eabi_attribute 34, 1
  10              		.eabi_attribute 18, 4
  11              		.file	"gd32f1x0_exti.c"
  12              		.text
  13              	.Ltext0:
  14              		.cfi_sections	.debug_frame
  15              		.section	.text.exti_deinit,"ax",%progbits
  16              		.align	1
  17              		.global	exti_deinit
  18              		.arch armv7-m
  19              		.syntax unified
  20              		.thumb
  21              		.thumb_func
  22              		.fpu softvfp
  24              	exti_deinit:
  25              	.LFB56:
  26              		.file 1 "Drivers/GD32F1x0_standard_peripheral/Source/gd32f1x0_exti.c"
   1:Drivers/GD32F1x0_standard_peripheral/Source/gd32f1x0_exti.c **** /*!
   2:Drivers/GD32F1x0_standard_peripheral/Source/gd32f1x0_exti.c ****     \file  gd32f1x0_exti.c
   3:Drivers/GD32F1x0_standard_peripheral/Source/gd32f1x0_exti.c ****     \brief EXTI driver
   4:Drivers/GD32F1x0_standard_peripheral/Source/gd32f1x0_exti.c **** */
   5:Drivers/GD32F1x0_standard_peripheral/Source/gd32f1x0_exti.c **** 
   6:Drivers/GD32F1x0_standard_peripheral/Source/gd32f1x0_exti.c **** /*
   7:Drivers/GD32F1x0_standard_peripheral/Source/gd32f1x0_exti.c ****     Copyright (C) 2017 GigaDevice
   8:Drivers/GD32F1x0_standard_peripheral/Source/gd32f1x0_exti.c **** 
   9:Drivers/GD32F1x0_standard_peripheral/Source/gd32f1x0_exti.c ****     2014-12-26, V1.0.0, platform GD32F1x0(x=3,5)
  10:Drivers/GD32F1x0_standard_peripheral/Source/gd32f1x0_exti.c ****     2016-01-15, V2.0.0, platform GD32F1x0(x=3,5,7,9)
  11:Drivers/GD32F1x0_standard_peripheral/Source/gd32f1x0_exti.c ****     2016-04-30, V3.0.0, firmware update for GD32F1x0(x=3,5,7,9)
  12:Drivers/GD32F1x0_standard_peripheral/Source/gd32f1x0_exti.c ****     2017-06-19, V3.1.0, firmware update for GD32F1x0(x=3,5,7,9)
  13:Drivers/GD32F1x0_standard_peripheral/Source/gd32f1x0_exti.c **** */
  14:Drivers/GD32F1x0_standard_peripheral/Source/gd32f1x0_exti.c **** 
  15:Drivers/GD32F1x0_standard_peripheral/Source/gd32f1x0_exti.c **** #include "gd32f1x0_exti.h"
  16:Drivers/GD32F1x0_standard_peripheral/Source/gd32f1x0_exti.c **** 
  17:Drivers/GD32F1x0_standard_peripheral/Source/gd32f1x0_exti.c **** #define EXTI_INTEN_RESET_VAL    0x0F900000U
  18:Drivers/GD32F1x0_standard_peripheral/Source/gd32f1x0_exti.c **** #define EXTI_EVEN_RESET_VAL     0x00000000U
  19:Drivers/GD32F1x0_standard_peripheral/Source/gd32f1x0_exti.c **** #define EXTI_RTEN_RESET_VAL     0x00000000U
  20:Drivers/GD32F1x0_standard_peripheral/Source/gd32f1x0_exti.c **** #define EXTI_FTEN_RESET_VAL     0x00000000U
  21:Drivers/GD32F1x0_standard_peripheral/Source/gd32f1x0_exti.c **** #define EXTI_SWIEV_RESET_VAL    0x00000000U
  22:Drivers/GD32F1x0_standard_peripheral/Source/gd32f1x0_exti.c **** 
  23:Drivers/GD32F1x0_standard_peripheral/Source/gd32f1x0_exti.c **** /*!
  24:Drivers/GD32F1x0_standard_peripheral/Source/gd32f1x0_exti.c ****     \brief      deinitialize the EXTI
  25:Drivers/GD32F1x0_standard_peripheral/Source/gd32f1x0_exti.c ****     \param[in]  none
  26:Drivers/GD32F1x0_standard_peripheral/Source/gd32f1x0_exti.c ****     \param[out] none
  27:Drivers/GD32F1x0_standard_peripheral/Source/gd32f1x0_exti.c ****     \retval     none
  28:Drivers/GD32F1x0_standard_peripheral/Source/gd32f1x0_exti.c **** */
  29:Drivers/GD32F1x0_standard_peripheral/Source/gd32f1x0_exti.c **** void exti_deinit(void)
  30:Drivers/GD32F1x0_standard_peripheral/Source/gd32f1x0_exti.c **** {
  27              		.loc 1 30 1 view -0
  28              		.cfi_startproc
ARM GAS  /tmp/ccrpUSCJ.s 			page 2


  29              		@ args = 0, pretend = 0, frame = 0
  30              		@ frame_needed = 0, uses_anonymous_args = 0
  31              		@ link register save eliminated.
  31:Drivers/GD32F1x0_standard_peripheral/Source/gd32f1x0_exti.c ****     /* reset the value of the EXTI registers */
  32:Drivers/GD32F1x0_standard_peripheral/Source/gd32f1x0_exti.c ****     EXTI_INTEN = EXTI_INTEN_RESET_VAL;
  32              		.loc 1 32 5 view .LVU1
  33              		.loc 1 32 16 is_stmt 0 view .LVU2
  34 0000 4FF07962 		mov	r2, #261095424
  35 0004 064B     		ldr	r3, .L2
  36 0006 C3F80024 		str	r2, [r3, #1024]
  33:Drivers/GD32F1x0_standard_peripheral/Source/gd32f1x0_exti.c ****     EXTI_EVEN  = EXTI_EVEN_RESET_VAL;
  37              		.loc 1 33 5 is_stmt 1 view .LVU3
  38              		.loc 1 33 16 is_stmt 0 view .LVU4
  39 000a 0022     		movs	r2, #0
  40 000c C3F80424 		str	r2, [r3, #1028]
  34:Drivers/GD32F1x0_standard_peripheral/Source/gd32f1x0_exti.c ****     EXTI_RTEN  = EXTI_RTEN_RESET_VAL;
  41              		.loc 1 34 5 is_stmt 1 view .LVU5
  42              		.loc 1 34 16 is_stmt 0 view .LVU6
  43 0010 C3F80824 		str	r2, [r3, #1032]
  35:Drivers/GD32F1x0_standard_peripheral/Source/gd32f1x0_exti.c ****     EXTI_FTEN  = EXTI_FTEN_RESET_VAL;
  44              		.loc 1 35 5 is_stmt 1 view .LVU7
  45              		.loc 1 35 16 is_stmt 0 view .LVU8
  46 0014 C3F80C24 		str	r2, [r3, #1036]
  36:Drivers/GD32F1x0_standard_peripheral/Source/gd32f1x0_exti.c ****     EXTI_SWIEV = EXTI_SWIEV_RESET_VAL;
  47              		.loc 1 36 5 is_stmt 1 view .LVU9
  48              		.loc 1 36 16 is_stmt 0 view .LVU10
  49 0018 C3F81024 		str	r2, [r3, #1040]
  37:Drivers/GD32F1x0_standard_peripheral/Source/gd32f1x0_exti.c **** }
  50              		.loc 1 37 1 view .LVU11
  51 001c 7047     		bx	lr
  52              	.L3:
  53 001e 00BF     		.align	2
  54              	.L2:
  55 0020 00000140 		.word	1073807360
  56              		.cfi_endproc
  57              	.LFE56:
  59              		.section	.text.exti_init,"ax",%progbits
  60              		.align	1
  61              		.global	exti_init
  62              		.syntax unified
  63              		.thumb
  64              		.thumb_func
  65              		.fpu softvfp
  67              	exti_init:
  68              	.LVL0:
  69              	.LFB57:
  38:Drivers/GD32F1x0_standard_peripheral/Source/gd32f1x0_exti.c **** 
  39:Drivers/GD32F1x0_standard_peripheral/Source/gd32f1x0_exti.c **** /*!
  40:Drivers/GD32F1x0_standard_peripheral/Source/gd32f1x0_exti.c ****     \brief      initialize the EXTI
  41:Drivers/GD32F1x0_standard_peripheral/Source/gd32f1x0_exti.c ****     \param[in]  linex: EXTI line number, refer to exti_line_enum
  42:Drivers/GD32F1x0_standard_peripheral/Source/gd32f1x0_exti.c ****                 only one parameter can be selected which is shown as below:
  43:Drivers/GD32F1x0_standard_peripheral/Source/gd32f1x0_exti.c ****       \arg        EXTI_x (x=0..19,21,22,25,27): EXTI line x (for GD32F130xx and GD32F150xx devices)
  44:Drivers/GD32F1x0_standard_peripheral/Source/gd32f1x0_exti.c ****       \arg        EXTI_x (x=0..17,19,21,22,25,27): EXTI line x (for GD32F130xx and GD32F150xx devic
  45:Drivers/GD32F1x0_standard_peripheral/Source/gd32f1x0_exti.c ****     \param[in]  mode: interrupt or event mode, refer to exti_mode_enum
  46:Drivers/GD32F1x0_standard_peripheral/Source/gd32f1x0_exti.c ****                 only one parameter can be selected which is shown as below:
  47:Drivers/GD32F1x0_standard_peripheral/Source/gd32f1x0_exti.c ****       \arg        EXTI_INTERRUPT: interrupt mode
  48:Drivers/GD32F1x0_standard_peripheral/Source/gd32f1x0_exti.c ****       \arg        EXTI_EVENT: event mode
ARM GAS  /tmp/ccrpUSCJ.s 			page 3


  49:Drivers/GD32F1x0_standard_peripheral/Source/gd32f1x0_exti.c ****     \param[in]  trig_type: interrupt trigger type, refer to exti_trig_type_enum
  50:Drivers/GD32F1x0_standard_peripheral/Source/gd32f1x0_exti.c ****                 only one parameter can be selected which is shown as below:
  51:Drivers/GD32F1x0_standard_peripheral/Source/gd32f1x0_exti.c ****       \arg        EXTI_TRIG_RISING: rising edge trigger
  52:Drivers/GD32F1x0_standard_peripheral/Source/gd32f1x0_exti.c ****       \arg        EXTI_TRIG_FALLING: falling trigger
  53:Drivers/GD32F1x0_standard_peripheral/Source/gd32f1x0_exti.c ****       \arg        EXTI_TRIG_BOTH: rising and falling trigger
  54:Drivers/GD32F1x0_standard_peripheral/Source/gd32f1x0_exti.c ****     \param[out] none
  55:Drivers/GD32F1x0_standard_peripheral/Source/gd32f1x0_exti.c ****     \retval     none
  56:Drivers/GD32F1x0_standard_peripheral/Source/gd32f1x0_exti.c **** */
  57:Drivers/GD32F1x0_standard_peripheral/Source/gd32f1x0_exti.c **** void exti_init(exti_line_enum linex, \
  58:Drivers/GD32F1x0_standard_peripheral/Source/gd32f1x0_exti.c ****                 exti_mode_enum mode, \
  59:Drivers/GD32F1x0_standard_peripheral/Source/gd32f1x0_exti.c ****                 exti_trig_type_enum trig_type)
  60:Drivers/GD32F1x0_standard_peripheral/Source/gd32f1x0_exti.c **** {
  70              		.loc 1 60 1 is_stmt 1 view -0
  71              		.cfi_startproc
  72              		@ args = 0, pretend = 0, frame = 0
  73              		@ frame_needed = 0, uses_anonymous_args = 0
  61:Drivers/GD32F1x0_standard_peripheral/Source/gd32f1x0_exti.c ****     /* reset the EXTI line x */
  62:Drivers/GD32F1x0_standard_peripheral/Source/gd32f1x0_exti.c ****     EXTI_INTEN &= ~(uint32_t)linex;
  74              		.loc 1 62 5 view .LVU13
  75              		.loc 1 62 16 is_stmt 0 view .LVU14
  76 0000 264B     		ldr	r3, .L12
  60:Drivers/GD32F1x0_standard_peripheral/Source/gd32f1x0_exti.c ****     /* reset the EXTI line x */
  77              		.loc 1 60 1 view .LVU15
  78 0002 30B5     		push	{r4, r5, lr}
  79              	.LCFI0:
  80              		.cfi_def_cfa_offset 12
  81              		.cfi_offset 4, -12
  82              		.cfi_offset 5, -8
  83              		.cfi_offset 14, -4
  84              		.loc 1 62 16 view .LVU16
  85 0004 D3F80054 		ldr	r5, [r3, #1024]
  86              		.loc 1 62 19 view .LVU17
  87 0008 C443     		mvns	r4, r0
  88              		.loc 1 62 16 view .LVU18
  89 000a 25EA0005 		bic	r5, r5, r0
  90 000e C3F80054 		str	r5, [r3, #1024]
  63:Drivers/GD32F1x0_standard_peripheral/Source/gd32f1x0_exti.c ****     EXTI_EVEN &= ~(uint32_t)linex;
  91              		.loc 1 63 5 is_stmt 1 view .LVU19
  92              		.loc 1 63 15 is_stmt 0 view .LVU20
  93 0012 D3F80454 		ldr	r5, [r3, #1028]
  94 0016 25EA0005 		bic	r5, r5, r0
  95 001a C3F80454 		str	r5, [r3, #1028]
  64:Drivers/GD32F1x0_standard_peripheral/Source/gd32f1x0_exti.c ****     EXTI_RTEN &= ~(uint32_t)linex;
  96              		.loc 1 64 5 is_stmt 1 view .LVU21
  97              		.loc 1 64 15 is_stmt 0 view .LVU22
  98 001e D3F80854 		ldr	r5, [r3, #1032]
  99 0022 25EA0005 		bic	r5, r5, r0
 100 0026 C3F80854 		str	r5, [r3, #1032]
  65:Drivers/GD32F1x0_standard_peripheral/Source/gd32f1x0_exti.c ****     EXTI_FTEN &= ~(uint32_t)linex;
 101              		.loc 1 65 5 is_stmt 1 view .LVU23
 102              		.loc 1 65 15 is_stmt 0 view .LVU24
 103 002a D3F80C54 		ldr	r5, [r3, #1036]
 104 002e 25EA0005 		bic	r5, r5, r0
 105 0032 C3F80C54 		str	r5, [r3, #1036]
  66:Drivers/GD32F1x0_standard_peripheral/Source/gd32f1x0_exti.c ****     
  67:Drivers/GD32F1x0_standard_peripheral/Source/gd32f1x0_exti.c ****     /* set the EXTI mode and enable the interrupts or events from EXTI line x */
  68:Drivers/GD32F1x0_standard_peripheral/Source/gd32f1x0_exti.c ****     switch(mode){
ARM GAS  /tmp/ccrpUSCJ.s 			page 4


 106              		.loc 1 68 5 is_stmt 1 view .LVU25
 107 0036 91B1     		cbz	r1, .L5
 108 0038 0129     		cmp	r1, #1
 109 003a 16D0     		beq	.L6
 110              	.LVL1:
 111              	.L7:
  69:Drivers/GD32F1x0_standard_peripheral/Source/gd32f1x0_exti.c ****     case EXTI_INTERRUPT:
  70:Drivers/GD32F1x0_standard_peripheral/Source/gd32f1x0_exti.c ****         EXTI_INTEN |= (uint32_t)linex;
  71:Drivers/GD32F1x0_standard_peripheral/Source/gd32f1x0_exti.c ****         break;
  72:Drivers/GD32F1x0_standard_peripheral/Source/gd32f1x0_exti.c ****     case EXTI_EVENT:
  73:Drivers/GD32F1x0_standard_peripheral/Source/gd32f1x0_exti.c ****         EXTI_EVEN |= (uint32_t)linex;
  74:Drivers/GD32F1x0_standard_peripheral/Source/gd32f1x0_exti.c ****         break;
  75:Drivers/GD32F1x0_standard_peripheral/Source/gd32f1x0_exti.c ****     default:
  76:Drivers/GD32F1x0_standard_peripheral/Source/gd32f1x0_exti.c ****         break;
  77:Drivers/GD32F1x0_standard_peripheral/Source/gd32f1x0_exti.c ****     }
  78:Drivers/GD32F1x0_standard_peripheral/Source/gd32f1x0_exti.c ****     
  79:Drivers/GD32F1x0_standard_peripheral/Source/gd32f1x0_exti.c ****     /* set the EXTI trigger type */
  80:Drivers/GD32F1x0_standard_peripheral/Source/gd32f1x0_exti.c ****     switch(trig_type){
 112              		.loc 1 80 5 view .LVU26
 113 003c 012A     		cmp	r2, #1
 114 003e 1AD0     		beq	.L8
 115 0040 022A     		cmp	r2, #2
 116 0042 23D0     		beq	.L9
 117 0044 52B9     		cbnz	r2, .L4
  81:Drivers/GD32F1x0_standard_peripheral/Source/gd32f1x0_exti.c ****     case EXTI_TRIG_RISING:
  82:Drivers/GD32F1x0_standard_peripheral/Source/gd32f1x0_exti.c ****         EXTI_RTEN |= (uint32_t)linex;
 118              		.loc 1 82 9 view .LVU27
 119              		.loc 1 82 19 is_stmt 0 view .LVU28
 120 0046 154B     		ldr	r3, .L12
 121 0048 D3F80824 		ldr	r2, [r3, #1032]
 122              	.LVL2:
 123              		.loc 1 82 19 view .LVU29
 124 004c 1043     		orrs	r0, r0, r2
 125              	.LVL3:
 126              		.loc 1 82 19 view .LVU30
 127 004e C3F80804 		str	r0, [r3, #1032]
  83:Drivers/GD32F1x0_standard_peripheral/Source/gd32f1x0_exti.c ****         EXTI_FTEN &= ~(uint32_t)linex;
 128              		.loc 1 83 9 is_stmt 1 view .LVU31
 129              		.loc 1 83 19 is_stmt 0 view .LVU32
 130 0052 D3F80C24 		ldr	r2, [r3, #1036]
 131 0056 1440     		ands	r4, r4, r2
 132              	.LVL4:
 133              		.loc 1 83 19 view .LVU33
 134 0058 C3F80C44 		str	r4, [r3, #1036]
  84:Drivers/GD32F1x0_standard_peripheral/Source/gd32f1x0_exti.c ****         break;
 135              		.loc 1 84 9 is_stmt 1 view .LVU34
 136              	.L4:
  85:Drivers/GD32F1x0_standard_peripheral/Source/gd32f1x0_exti.c ****     case EXTI_TRIG_FALLING:
  86:Drivers/GD32F1x0_standard_peripheral/Source/gd32f1x0_exti.c ****         EXTI_RTEN &= ~(uint32_t)linex;
  87:Drivers/GD32F1x0_standard_peripheral/Source/gd32f1x0_exti.c ****         EXTI_FTEN |= (uint32_t)linex;
  88:Drivers/GD32F1x0_standard_peripheral/Source/gd32f1x0_exti.c ****         break;
  89:Drivers/GD32F1x0_standard_peripheral/Source/gd32f1x0_exti.c ****     case EXTI_TRIG_BOTH:
  90:Drivers/GD32F1x0_standard_peripheral/Source/gd32f1x0_exti.c ****         EXTI_RTEN |= (uint32_t)linex;
  91:Drivers/GD32F1x0_standard_peripheral/Source/gd32f1x0_exti.c ****         EXTI_FTEN |= (uint32_t)linex;
  92:Drivers/GD32F1x0_standard_peripheral/Source/gd32f1x0_exti.c ****         break;
  93:Drivers/GD32F1x0_standard_peripheral/Source/gd32f1x0_exti.c ****     default:
  94:Drivers/GD32F1x0_standard_peripheral/Source/gd32f1x0_exti.c ****         break;
ARM GAS  /tmp/ccrpUSCJ.s 			page 5


  95:Drivers/GD32F1x0_standard_peripheral/Source/gd32f1x0_exti.c ****     }
  96:Drivers/GD32F1x0_standard_peripheral/Source/gd32f1x0_exti.c **** }
 137              		.loc 1 96 1 is_stmt 0 view .LVU35
 138 005c 30BD     		pop	{r4, r5, pc}
 139              	.LVL5:
 140              	.L5:
  70:Drivers/GD32F1x0_standard_peripheral/Source/gd32f1x0_exti.c ****         break;
 141              		.loc 1 70 9 is_stmt 1 view .LVU36
  70:Drivers/GD32F1x0_standard_peripheral/Source/gd32f1x0_exti.c ****         break;
 142              		.loc 1 70 20 is_stmt 0 view .LVU37
 143 005e D3F80014 		ldr	r1, [r3, #1024]
 144              	.LVL6:
  70:Drivers/GD32F1x0_standard_peripheral/Source/gd32f1x0_exti.c ****         break;
 145              		.loc 1 70 20 view .LVU38
 146 0062 0143     		orrs	r1, r1, r0
 147 0064 C3F80014 		str	r1, [r3, #1024]
  71:Drivers/GD32F1x0_standard_peripheral/Source/gd32f1x0_exti.c ****     case EXTI_EVENT:
 148              		.loc 1 71 9 is_stmt 1 view .LVU39
 149 0068 E8E7     		b	.L7
 150              	.LVL7:
 151              	.L6:
  73:Drivers/GD32F1x0_standard_peripheral/Source/gd32f1x0_exti.c ****         break;
 152              		.loc 1 73 9 view .LVU40
  73:Drivers/GD32F1x0_standard_peripheral/Source/gd32f1x0_exti.c ****         break;
 153              		.loc 1 73 19 is_stmt 0 view .LVU41
 154 006a D3F80414 		ldr	r1, [r3, #1028]
 155              	.LVL8:
  73:Drivers/GD32F1x0_standard_peripheral/Source/gd32f1x0_exti.c ****         break;
 156              		.loc 1 73 19 view .LVU42
 157 006e 0143     		orrs	r1, r1, r0
 158 0070 C3F80414 		str	r1, [r3, #1028]
  74:Drivers/GD32F1x0_standard_peripheral/Source/gd32f1x0_exti.c ****     default:
 159              		.loc 1 74 9 is_stmt 1 view .LVU43
 160 0074 E2E7     		b	.L7
 161              	.L8:
  86:Drivers/GD32F1x0_standard_peripheral/Source/gd32f1x0_exti.c ****         EXTI_FTEN |= (uint32_t)linex;
 162              		.loc 1 86 9 view .LVU44
  86:Drivers/GD32F1x0_standard_peripheral/Source/gd32f1x0_exti.c ****         EXTI_FTEN |= (uint32_t)linex;
 163              		.loc 1 86 19 is_stmt 0 view .LVU45
 164 0076 D3F80824 		ldr	r2, [r3, #1032]
 165              	.LVL9:
  86:Drivers/GD32F1x0_standard_peripheral/Source/gd32f1x0_exti.c ****         EXTI_FTEN |= (uint32_t)linex;
 166              		.loc 1 86 19 view .LVU46
 167 007a 1440     		ands	r4, r4, r2
 168 007c C3F80844 		str	r4, [r3, #1032]
  87:Drivers/GD32F1x0_standard_peripheral/Source/gd32f1x0_exti.c ****         break;
 169              		.loc 1 87 9 is_stmt 1 view .LVU47
 170              	.L11:
  91:Drivers/GD32F1x0_standard_peripheral/Source/gd32f1x0_exti.c ****         break;
 171              		.loc 1 91 9 view .LVU48
  91:Drivers/GD32F1x0_standard_peripheral/Source/gd32f1x0_exti.c ****         break;
 172              		.loc 1 91 19 is_stmt 0 view .LVU49
 173 0080 D3F80C24 		ldr	r2, [r3, #1036]
 174 0084 1043     		orrs	r0, r0, r2
 175              	.LVL10:
  91:Drivers/GD32F1x0_standard_peripheral/Source/gd32f1x0_exti.c ****         break;
 176              		.loc 1 91 19 view .LVU50
ARM GAS  /tmp/ccrpUSCJ.s 			page 6


 177 0086 C3F80C04 		str	r0, [r3, #1036]
  92:Drivers/GD32F1x0_standard_peripheral/Source/gd32f1x0_exti.c ****     default:
 178              		.loc 1 92 9 is_stmt 1 view .LVU51
 179              		.loc 1 96 1 is_stmt 0 view .LVU52
 180 008a E7E7     		b	.L4
 181              	.LVL11:
 182              	.L9:
  90:Drivers/GD32F1x0_standard_peripheral/Source/gd32f1x0_exti.c ****         EXTI_FTEN |= (uint32_t)linex;
 183              		.loc 1 90 9 is_stmt 1 view .LVU53
  90:Drivers/GD32F1x0_standard_peripheral/Source/gd32f1x0_exti.c ****         EXTI_FTEN |= (uint32_t)linex;
 184              		.loc 1 90 19 is_stmt 0 view .LVU54
 185 008c 034B     		ldr	r3, .L12
 186 008e D3F80824 		ldr	r2, [r3, #1032]
 187              	.LVL12:
  90:Drivers/GD32F1x0_standard_peripheral/Source/gd32f1x0_exti.c ****         EXTI_FTEN |= (uint32_t)linex;
 188              		.loc 1 90 19 view .LVU55
 189 0092 0243     		orrs	r2, r2, r0
 190 0094 C3F80824 		str	r2, [r3, #1032]
 191 0098 F2E7     		b	.L11
 192              	.L13:
 193 009a 00BF     		.align	2
 194              	.L12:
 195 009c 00000140 		.word	1073807360
 196              		.cfi_endproc
 197              	.LFE57:
 199              		.section	.text.exti_interrupt_enable,"ax",%progbits
 200              		.align	1
 201              		.global	exti_interrupt_enable
 202              		.syntax unified
 203              		.thumb
 204              		.thumb_func
 205              		.fpu softvfp
 207              	exti_interrupt_enable:
 208              	.LVL13:
 209              	.LFB58:
  97:Drivers/GD32F1x0_standard_peripheral/Source/gd32f1x0_exti.c **** 
  98:Drivers/GD32F1x0_standard_peripheral/Source/gd32f1x0_exti.c **** /*!
  99:Drivers/GD32F1x0_standard_peripheral/Source/gd32f1x0_exti.c ****     \brief      enable the interrupts from EXTI line x
 100:Drivers/GD32F1x0_standard_peripheral/Source/gd32f1x0_exti.c ****     \param[in]  linex: EXTI line number, refer to exti_line_enum
 101:Drivers/GD32F1x0_standard_peripheral/Source/gd32f1x0_exti.c ****                 only one parameter can be selected which is shown as below:
 102:Drivers/GD32F1x0_standard_peripheral/Source/gd32f1x0_exti.c ****       \arg        EXTI_x (x=0..19,21,22,25,27): EXTI line x (for GD32F130xx and GD32F150xx devices)
 103:Drivers/GD32F1x0_standard_peripheral/Source/gd32f1x0_exti.c ****       \arg        EXTI_x (x=0..17,19,21,22,25,27): EXTI line x (for GD32F130xx and GD32F150xx devic
 104:Drivers/GD32F1x0_standard_peripheral/Source/gd32f1x0_exti.c ****     \param[out] none
 105:Drivers/GD32F1x0_standard_peripheral/Source/gd32f1x0_exti.c ****     \retval     none
 106:Drivers/GD32F1x0_standard_peripheral/Source/gd32f1x0_exti.c **** */
 107:Drivers/GD32F1x0_standard_peripheral/Source/gd32f1x0_exti.c **** void exti_interrupt_enable(exti_line_enum linex)
 108:Drivers/GD32F1x0_standard_peripheral/Source/gd32f1x0_exti.c **** {
 210              		.loc 1 108 1 is_stmt 1 view -0
 211              		.cfi_startproc
 212              		@ args = 0, pretend = 0, frame = 0
 213              		@ frame_needed = 0, uses_anonymous_args = 0
 214              		@ link register save eliminated.
 109:Drivers/GD32F1x0_standard_peripheral/Source/gd32f1x0_exti.c ****     EXTI_INTEN |= (uint32_t)linex;
 215              		.loc 1 109 5 view .LVU57
 216              		.loc 1 109 16 is_stmt 0 view .LVU58
 217 0000 034A     		ldr	r2, .L15
 218 0002 D2F80034 		ldr	r3, [r2, #1024]
ARM GAS  /tmp/ccrpUSCJ.s 			page 7


 219 0006 0343     		orrs	r3, r3, r0
 220 0008 C2F80034 		str	r3, [r2, #1024]
 110:Drivers/GD32F1x0_standard_peripheral/Source/gd32f1x0_exti.c **** }
 221              		.loc 1 110 1 view .LVU59
 222 000c 7047     		bx	lr
 223              	.L16:
 224 000e 00BF     		.align	2
 225              	.L15:
 226 0010 00000140 		.word	1073807360
 227              		.cfi_endproc
 228              	.LFE58:
 230              		.section	.text.exti_event_enable,"ax",%progbits
 231              		.align	1
 232              		.global	exti_event_enable
 233              		.syntax unified
 234              		.thumb
 235              		.thumb_func
 236              		.fpu softvfp
 238              	exti_event_enable:
 239              	.LVL14:
 240              	.LFB59:
 111:Drivers/GD32F1x0_standard_peripheral/Source/gd32f1x0_exti.c **** 
 112:Drivers/GD32F1x0_standard_peripheral/Source/gd32f1x0_exti.c **** /*!
 113:Drivers/GD32F1x0_standard_peripheral/Source/gd32f1x0_exti.c ****     \brief      enable the events from EXTI line x
 114:Drivers/GD32F1x0_standard_peripheral/Source/gd32f1x0_exti.c ****     \param[in]  linex: EXTI line number, refer to exti_line_enum 
 115:Drivers/GD32F1x0_standard_peripheral/Source/gd32f1x0_exti.c ****                 only one parameter can be selected which is shown as below:
 116:Drivers/GD32F1x0_standard_peripheral/Source/gd32f1x0_exti.c ****       \arg        EXTI_x (x=0..19,21,22,25,27): EXTI line x (for GD32F130xx and GD32F150xx devices)
 117:Drivers/GD32F1x0_standard_peripheral/Source/gd32f1x0_exti.c ****       \arg        EXTI_x (x=0..17,19,21,22,25,27): EXTI line x (for GD32F130xx and GD32F150xx devic
 118:Drivers/GD32F1x0_standard_peripheral/Source/gd32f1x0_exti.c ****     \param[out] none
 119:Drivers/GD32F1x0_standard_peripheral/Source/gd32f1x0_exti.c ****     \retval     none
 120:Drivers/GD32F1x0_standard_peripheral/Source/gd32f1x0_exti.c **** */
 121:Drivers/GD32F1x0_standard_peripheral/Source/gd32f1x0_exti.c **** void exti_event_enable(exti_line_enum linex)
 122:Drivers/GD32F1x0_standard_peripheral/Source/gd32f1x0_exti.c **** {
 241              		.loc 1 122 1 is_stmt 1 view -0
 242              		.cfi_startproc
 243              		@ args = 0, pretend = 0, frame = 0
 244              		@ frame_needed = 0, uses_anonymous_args = 0
 245              		@ link register save eliminated.
 123:Drivers/GD32F1x0_standard_peripheral/Source/gd32f1x0_exti.c ****     EXTI_EVEN |= (uint32_t)linex;
 246              		.loc 1 123 5 view .LVU61
 247              		.loc 1 123 15 is_stmt 0 view .LVU62
 248 0000 034A     		ldr	r2, .L18
 249 0002 D2F80434 		ldr	r3, [r2, #1028]
 250 0006 0343     		orrs	r3, r3, r0
 251 0008 C2F80434 		str	r3, [r2, #1028]
 124:Drivers/GD32F1x0_standard_peripheral/Source/gd32f1x0_exti.c **** }
 252              		.loc 1 124 1 view .LVU63
 253 000c 7047     		bx	lr
 254              	.L19:
 255 000e 00BF     		.align	2
 256              	.L18:
 257 0010 00000140 		.word	1073807360
 258              		.cfi_endproc
 259              	.LFE59:
 261              		.section	.text.exti_interrupt_disable,"ax",%progbits
 262              		.align	1
 263              		.global	exti_interrupt_disable
ARM GAS  /tmp/ccrpUSCJ.s 			page 8


 264              		.syntax unified
 265              		.thumb
 266              		.thumb_func
 267              		.fpu softvfp
 269              	exti_interrupt_disable:
 270              	.LVL15:
 271              	.LFB60:
 125:Drivers/GD32F1x0_standard_peripheral/Source/gd32f1x0_exti.c **** 
 126:Drivers/GD32F1x0_standard_peripheral/Source/gd32f1x0_exti.c **** /*!
 127:Drivers/GD32F1x0_standard_peripheral/Source/gd32f1x0_exti.c ****     \brief      disable the interrupt from EXTI line x
 128:Drivers/GD32F1x0_standard_peripheral/Source/gd32f1x0_exti.c ****     \param[in]  linex: EXTI line number, refer to exti_line_enum
 129:Drivers/GD32F1x0_standard_peripheral/Source/gd32f1x0_exti.c ****                 only one parameter can be selected which is shown as below:
 130:Drivers/GD32F1x0_standard_peripheral/Source/gd32f1x0_exti.c ****       \arg        EXTI_x (x=0..19,21,22,25,27): EXTI line x (for GD32F130xx and GD32F150xx devices)
 131:Drivers/GD32F1x0_standard_peripheral/Source/gd32f1x0_exti.c ****       \arg        EXTI_x (x=0..17,19,21,22,25,27): EXTI line x (for GD32F130xx and GD32F150xx devic
 132:Drivers/GD32F1x0_standard_peripheral/Source/gd32f1x0_exti.c ****     \param[out] none
 133:Drivers/GD32F1x0_standard_peripheral/Source/gd32f1x0_exti.c ****     \retval     none
 134:Drivers/GD32F1x0_standard_peripheral/Source/gd32f1x0_exti.c **** */
 135:Drivers/GD32F1x0_standard_peripheral/Source/gd32f1x0_exti.c **** void exti_interrupt_disable(exti_line_enum linex)
 136:Drivers/GD32F1x0_standard_peripheral/Source/gd32f1x0_exti.c **** {
 272              		.loc 1 136 1 is_stmt 1 view -0
 273              		.cfi_startproc
 274              		@ args = 0, pretend = 0, frame = 0
 275              		@ frame_needed = 0, uses_anonymous_args = 0
 276              		@ link register save eliminated.
 137:Drivers/GD32F1x0_standard_peripheral/Source/gd32f1x0_exti.c ****     EXTI_INTEN &= ~(uint32_t)linex;
 277              		.loc 1 137 5 view .LVU65
 278              		.loc 1 137 16 is_stmt 0 view .LVU66
 279 0000 034A     		ldr	r2, .L21
 280 0002 D2F80034 		ldr	r3, [r2, #1024]
 281 0006 23EA0003 		bic	r3, r3, r0
 282 000a C2F80034 		str	r3, [r2, #1024]
 138:Drivers/GD32F1x0_standard_peripheral/Source/gd32f1x0_exti.c **** }
 283              		.loc 1 138 1 view .LVU67
 284 000e 7047     		bx	lr
 285              	.L22:
 286              		.align	2
 287              	.L21:
 288 0010 00000140 		.word	1073807360
 289              		.cfi_endproc
 290              	.LFE60:
 292              		.section	.text.exti_event_disable,"ax",%progbits
 293              		.align	1
 294              		.global	exti_event_disable
 295              		.syntax unified
 296              		.thumb
 297              		.thumb_func
 298              		.fpu softvfp
 300              	exti_event_disable:
 301              	.LVL16:
 302              	.LFB61:
 139:Drivers/GD32F1x0_standard_peripheral/Source/gd32f1x0_exti.c **** 
 140:Drivers/GD32F1x0_standard_peripheral/Source/gd32f1x0_exti.c **** /*!
 141:Drivers/GD32F1x0_standard_peripheral/Source/gd32f1x0_exti.c ****     \brief      disable the events from EXTI line x
 142:Drivers/GD32F1x0_standard_peripheral/Source/gd32f1x0_exti.c ****     \param[in]  linex: EXTI line number, refer to exti_line_enum
 143:Drivers/GD32F1x0_standard_peripheral/Source/gd32f1x0_exti.c ****                 only one parameter can be selected which is shown as below:
 144:Drivers/GD32F1x0_standard_peripheral/Source/gd32f1x0_exti.c ****       \arg        EXTI_x (x=0..19,21,22,25,27): EXTI line x (for GD32F130xx and GD32F150xx devices)
 145:Drivers/GD32F1x0_standard_peripheral/Source/gd32f1x0_exti.c ****       \arg        EXTI_x (x=0..17,19,21,22,25,27): EXTI line x (for GD32F130xx and GD32F150xx devic
ARM GAS  /tmp/ccrpUSCJ.s 			page 9


 146:Drivers/GD32F1x0_standard_peripheral/Source/gd32f1x0_exti.c ****     \param[out] none
 147:Drivers/GD32F1x0_standard_peripheral/Source/gd32f1x0_exti.c ****     \retval     none
 148:Drivers/GD32F1x0_standard_peripheral/Source/gd32f1x0_exti.c **** */
 149:Drivers/GD32F1x0_standard_peripheral/Source/gd32f1x0_exti.c **** void exti_event_disable(exti_line_enum linex)
 150:Drivers/GD32F1x0_standard_peripheral/Source/gd32f1x0_exti.c **** {
 303              		.loc 1 150 1 is_stmt 1 view -0
 304              		.cfi_startproc
 305              		@ args = 0, pretend = 0, frame = 0
 306              		@ frame_needed = 0, uses_anonymous_args = 0
 307              		@ link register save eliminated.
 151:Drivers/GD32F1x0_standard_peripheral/Source/gd32f1x0_exti.c ****     EXTI_EVEN &= ~(uint32_t)linex;
 308              		.loc 1 151 5 view .LVU69
 309              		.loc 1 151 15 is_stmt 0 view .LVU70
 310 0000 034A     		ldr	r2, .L24
 311 0002 D2F80434 		ldr	r3, [r2, #1028]
 312 0006 23EA0003 		bic	r3, r3, r0
 313 000a C2F80434 		str	r3, [r2, #1028]
 152:Drivers/GD32F1x0_standard_peripheral/Source/gd32f1x0_exti.c **** }
 314              		.loc 1 152 1 view .LVU71
 315 000e 7047     		bx	lr
 316              	.L25:
 317              		.align	2
 318              	.L24:
 319 0010 00000140 		.word	1073807360
 320              		.cfi_endproc
 321              	.LFE61:
 323              		.section	.text.exti_flag_get,"ax",%progbits
 324              		.align	1
 325              		.global	exti_flag_get
 326              		.syntax unified
 327              		.thumb
 328              		.thumb_func
 329              		.fpu softvfp
 331              	exti_flag_get:
 332              	.LVL17:
 333              	.LFB62:
 153:Drivers/GD32F1x0_standard_peripheral/Source/gd32f1x0_exti.c **** 
 154:Drivers/GD32F1x0_standard_peripheral/Source/gd32f1x0_exti.c **** /*!
 155:Drivers/GD32F1x0_standard_peripheral/Source/gd32f1x0_exti.c ****     \brief      get EXTI lines flag
 156:Drivers/GD32F1x0_standard_peripheral/Source/gd32f1x0_exti.c ****     \param[in]  linex: EXTI line number, refer to exti_line_enum
 157:Drivers/GD32F1x0_standard_peripheral/Source/gd32f1x0_exti.c ****                 only one parameter can be selected which is shown as below:
 158:Drivers/GD32F1x0_standard_peripheral/Source/gd32f1x0_exti.c ****       \arg        EXTI_x (x=0..19,21,22,25,27): EXTI line x (for GD32F130xx and GD32F150xx devices)
 159:Drivers/GD32F1x0_standard_peripheral/Source/gd32f1x0_exti.c ****       \arg        EXTI_x (x=0..17,19,21,22,25,27): EXTI line x (for GD32F130xx and GD32F150xx devic
 160:Drivers/GD32F1x0_standard_peripheral/Source/gd32f1x0_exti.c ****     \param[out] none
 161:Drivers/GD32F1x0_standard_peripheral/Source/gd32f1x0_exti.c ****     \retval     FlagStatus: status of flag (RESET or SET)
 162:Drivers/GD32F1x0_standard_peripheral/Source/gd32f1x0_exti.c **** */
 163:Drivers/GD32F1x0_standard_peripheral/Source/gd32f1x0_exti.c **** FlagStatus exti_flag_get(exti_line_enum linex)
 164:Drivers/GD32F1x0_standard_peripheral/Source/gd32f1x0_exti.c **** {
 334              		.loc 1 164 1 is_stmt 1 view -0
 335              		.cfi_startproc
 336              		@ args = 0, pretend = 0, frame = 0
 337              		@ frame_needed = 0, uses_anonymous_args = 0
 338              		@ link register save eliminated.
 165:Drivers/GD32F1x0_standard_peripheral/Source/gd32f1x0_exti.c ****     if(RESET != (EXTI_PD & (uint32_t)linex)){
 339              		.loc 1 165 5 view .LVU73
 340              		.loc 1 165 18 is_stmt 0 view .LVU74
 341 0000 034B     		ldr	r3, .L27
ARM GAS  /tmp/ccrpUSCJ.s 			page 10


 342 0002 D3F81434 		ldr	r3, [r3, #1044]
 343              		.loc 1 165 7 view .LVU75
 344 0006 0342     		tst	r3, r0
 166:Drivers/GD32F1x0_standard_peripheral/Source/gd32f1x0_exti.c ****         return SET;
 167:Drivers/GD32F1x0_standard_peripheral/Source/gd32f1x0_exti.c ****     }else{
 168:Drivers/GD32F1x0_standard_peripheral/Source/gd32f1x0_exti.c ****         return RESET;
 169:Drivers/GD32F1x0_standard_peripheral/Source/gd32f1x0_exti.c ****     } 
 170:Drivers/GD32F1x0_standard_peripheral/Source/gd32f1x0_exti.c **** }
 345              		.loc 1 170 1 view .LVU76
 346 0008 14BF     		ite	ne
 347 000a 0120     		movne	r0, #1
 348              	.LVL18:
 349              		.loc 1 170 1 view .LVU77
 350 000c 0020     		moveq	r0, #0
 351 000e 7047     		bx	lr
 352              	.L28:
 353              		.align	2
 354              	.L27:
 355 0010 00000140 		.word	1073807360
 356              		.cfi_endproc
 357              	.LFE62:
 359              		.section	.text.exti_flag_clear,"ax",%progbits
 360              		.align	1
 361              		.global	exti_flag_clear
 362              		.syntax unified
 363              		.thumb
 364              		.thumb_func
 365              		.fpu softvfp
 367              	exti_flag_clear:
 368              	.LVL19:
 369              	.LFB63:
 171:Drivers/GD32F1x0_standard_peripheral/Source/gd32f1x0_exti.c **** 
 172:Drivers/GD32F1x0_standard_peripheral/Source/gd32f1x0_exti.c **** /*!
 173:Drivers/GD32F1x0_standard_peripheral/Source/gd32f1x0_exti.c ****     \brief      clear EXTI lines pending flag
 174:Drivers/GD32F1x0_standard_peripheral/Source/gd32f1x0_exti.c ****     \param[in]  linex: EXTI line number, refer to exti_line_enum
 175:Drivers/GD32F1x0_standard_peripheral/Source/gd32f1x0_exti.c ****                 only one parameter can be selected which is shown as below:
 176:Drivers/GD32F1x0_standard_peripheral/Source/gd32f1x0_exti.c ****       \arg        EXTI_x (x=0..19,21,22,25,27): EXTI line x (for GD32F130xx and GD32F150xx devices)
 177:Drivers/GD32F1x0_standard_peripheral/Source/gd32f1x0_exti.c ****       \arg        EXTI_x (x=0..17,19,21,22,25,27): EXTI line x (for GD32F130xx and GD32F150xx devic
 178:Drivers/GD32F1x0_standard_peripheral/Source/gd32f1x0_exti.c ****     \param[out] none
 179:Drivers/GD32F1x0_standard_peripheral/Source/gd32f1x0_exti.c ****     \retval     none
 180:Drivers/GD32F1x0_standard_peripheral/Source/gd32f1x0_exti.c **** */
 181:Drivers/GD32F1x0_standard_peripheral/Source/gd32f1x0_exti.c **** void exti_flag_clear(exti_line_enum linex)
 182:Drivers/GD32F1x0_standard_peripheral/Source/gd32f1x0_exti.c **** {
 370              		.loc 1 182 1 is_stmt 1 view -0
 371              		.cfi_startproc
 372              		@ args = 0, pretend = 0, frame = 0
 373              		@ frame_needed = 0, uses_anonymous_args = 0
 374              		@ link register save eliminated.
 183:Drivers/GD32F1x0_standard_peripheral/Source/gd32f1x0_exti.c ****     EXTI_PD = (uint32_t)linex;
 375              		.loc 1 183 5 view .LVU79
 376              		.loc 1 183 13 is_stmt 0 view .LVU80
 377 0000 014B     		ldr	r3, .L30
 378 0002 C3F81404 		str	r0, [r3, #1044]
 184:Drivers/GD32F1x0_standard_peripheral/Source/gd32f1x0_exti.c **** }
 379              		.loc 1 184 1 view .LVU81
 380 0006 7047     		bx	lr
 381              	.L31:
ARM GAS  /tmp/ccrpUSCJ.s 			page 11


 382              		.align	2
 383              	.L30:
 384 0008 00000140 		.word	1073807360
 385              		.cfi_endproc
 386              	.LFE63:
 388              		.section	.text.exti_interrupt_flag_get,"ax",%progbits
 389              		.align	1
 390              		.global	exti_interrupt_flag_get
 391              		.syntax unified
 392              		.thumb
 393              		.thumb_func
 394              		.fpu softvfp
 396              	exti_interrupt_flag_get:
 397              	.LVL20:
 398              	.LFB64:
 185:Drivers/GD32F1x0_standard_peripheral/Source/gd32f1x0_exti.c **** 
 186:Drivers/GD32F1x0_standard_peripheral/Source/gd32f1x0_exti.c **** /*!
 187:Drivers/GD32F1x0_standard_peripheral/Source/gd32f1x0_exti.c ****     \brief      get EXTI lines flag when the interrupt flag is set
 188:Drivers/GD32F1x0_standard_peripheral/Source/gd32f1x0_exti.c ****     \param[in]  linex: EXTI line number, refer to exti_line_enum
 189:Drivers/GD32F1x0_standard_peripheral/Source/gd32f1x0_exti.c ****                 only one parameter can be selected which is shown as below:
 190:Drivers/GD32F1x0_standard_peripheral/Source/gd32f1x0_exti.c ****       \arg        EXTI_x (x=0..19,21,22,25,27): EXTI line x (for GD32F130xx and GD32F150xx devices)
 191:Drivers/GD32F1x0_standard_peripheral/Source/gd32f1x0_exti.c ****       \arg        EXTI_x (x=0..17,19,21,22,25,27): EXTI line x (for GD32F130xx and GD32F150xx devic
 192:Drivers/GD32F1x0_standard_peripheral/Source/gd32f1x0_exti.c ****     \param[out] none
 193:Drivers/GD32F1x0_standard_peripheral/Source/gd32f1x0_exti.c ****     \retval     FlagStatus: status of flag (RESET or SET)
 194:Drivers/GD32F1x0_standard_peripheral/Source/gd32f1x0_exti.c **** */
 195:Drivers/GD32F1x0_standard_peripheral/Source/gd32f1x0_exti.c **** FlagStatus exti_interrupt_flag_get(exti_line_enum linex)
 196:Drivers/GD32F1x0_standard_peripheral/Source/gd32f1x0_exti.c **** {
 399              		.loc 1 196 1 is_stmt 1 view -0
 400              		.cfi_startproc
 401              		@ args = 0, pretend = 0, frame = 0
 402              		@ frame_needed = 0, uses_anonymous_args = 0
 403              		@ link register save eliminated.
 197:Drivers/GD32F1x0_standard_peripheral/Source/gd32f1x0_exti.c ****     uint32_t flag_left, flag_right;
 404              		.loc 1 197 5 view .LVU83
 198:Drivers/GD32F1x0_standard_peripheral/Source/gd32f1x0_exti.c ****     flag_left = EXTI_PD & (uint32_t)linex;
 405              		.loc 1 198 5 view .LVU84
 196:Drivers/GD32F1x0_standard_peripheral/Source/gd32f1x0_exti.c ****     uint32_t flag_left, flag_right;
 406              		.loc 1 196 1 is_stmt 0 view .LVU85
 407 0000 0246     		mov	r2, r0
 408              		.loc 1 198 17 view .LVU86
 409 0002 0649     		ldr	r1, .L35
 410 0004 D1F81404 		ldr	r0, [r1, #1044]
 411              	.LVL21:
 199:Drivers/GD32F1x0_standard_peripheral/Source/gd32f1x0_exti.c ****     flag_right = EXTI_INTEN & (uint32_t)linex;
 412              		.loc 1 199 5 is_stmt 1 view .LVU87
 413              		.loc 1 199 18 is_stmt 0 view .LVU88
 414 0008 D1F80014 		ldr	r1, [r1, #1024]
 415              	.LVL22:
 200:Drivers/GD32F1x0_standard_peripheral/Source/gd32f1x0_exti.c ****     if((RESET != flag_left) && (RESET != flag_right)){
 416              		.loc 1 200 5 is_stmt 1 view .LVU89
 417              		.loc 1 200 7 is_stmt 0 view .LVU90
 418 000c 1040     		ands	r0, r0, r2
 419              	.LVL23:
 420              		.loc 1 200 7 view .LVU91
 421 000e 03D0     		beq	.L33
 422              		.loc 1 200 29 discriminator 1 view .LVU92
 423 0010 1142     		tst	r1, r2
ARM GAS  /tmp/ccrpUSCJ.s 			page 12


 201:Drivers/GD32F1x0_standard_peripheral/Source/gd32f1x0_exti.c ****         return SET;
 202:Drivers/GD32F1x0_standard_peripheral/Source/gd32f1x0_exti.c ****     }else{
 203:Drivers/GD32F1x0_standard_peripheral/Source/gd32f1x0_exti.c ****         return RESET;
 424              		.loc 1 203 16 discriminator 1 view .LVU93
 425 0012 14BF     		ite	ne
 426 0014 0120     		movne	r0, #1
 427              	.LVL24:
 428              		.loc 1 203 16 discriminator 1 view .LVU94
 429 0016 0020     		moveq	r0, #0
 430              	.L33:
 204:Drivers/GD32F1x0_standard_peripheral/Source/gd32f1x0_exti.c ****     }
 205:Drivers/GD32F1x0_standard_peripheral/Source/gd32f1x0_exti.c **** }
 431              		.loc 1 205 1 view .LVU95
 432 0018 7047     		bx	lr
 433              	.L36:
 434 001a 00BF     		.align	2
 435              	.L35:
 436 001c 00000140 		.word	1073807360
 437              		.cfi_endproc
 438              	.LFE64:
 440              		.section	.text.exti_interrupt_flag_clear,"ax",%progbits
 441              		.align	1
 442              		.global	exti_interrupt_flag_clear
 443              		.syntax unified
 444              		.thumb
 445              		.thumb_func
 446              		.fpu softvfp
 448              	exti_interrupt_flag_clear:
 449              	.LFB69:
 450              		.cfi_startproc
 451              		@ args = 0, pretend = 0, frame = 0
 452              		@ frame_needed = 0, uses_anonymous_args = 0
 453              		@ link register save eliminated.
 454 0000 014B     		ldr	r3, .L38
 455 0002 C3F81404 		str	r0, [r3, #1044]
 456 0006 7047     		bx	lr
 457              	.L39:
 458              		.align	2
 459              	.L38:
 460 0008 00000140 		.word	1073807360
 461              		.cfi_endproc
 462              	.LFE69:
 464              		.section	.text.exti_software_interrupt_enable,"ax",%progbits
 465              		.align	1
 466              		.global	exti_software_interrupt_enable
 467              		.syntax unified
 468              		.thumb
 469              		.thumb_func
 470              		.fpu softvfp
 472              	exti_software_interrupt_enable:
 473              	.LVL25:
 474              	.LFB66:
 206:Drivers/GD32F1x0_standard_peripheral/Source/gd32f1x0_exti.c **** 
 207:Drivers/GD32F1x0_standard_peripheral/Source/gd32f1x0_exti.c **** /*!
 208:Drivers/GD32F1x0_standard_peripheral/Source/gd32f1x0_exti.c ****     \brief      clear EXTI lines pending flag
 209:Drivers/GD32F1x0_standard_peripheral/Source/gd32f1x0_exti.c ****     \param[in]  linex: EXTI line number, refer to exti_line_enum
 210:Drivers/GD32F1x0_standard_peripheral/Source/gd32f1x0_exti.c ****                 only one parameter can be selected which is shown as below:
ARM GAS  /tmp/ccrpUSCJ.s 			page 13


 211:Drivers/GD32F1x0_standard_peripheral/Source/gd32f1x0_exti.c ****       \arg        EXTI_x (x=0..19,21,22,25,27): EXTI line x (for GD32F130xx and GD32F150xx devices)
 212:Drivers/GD32F1x0_standard_peripheral/Source/gd32f1x0_exti.c ****       \arg        EXTI_x (x=0..17,19,21,22,25,27): EXTI line x (for GD32F130xx and GD32F150xx devic
 213:Drivers/GD32F1x0_standard_peripheral/Source/gd32f1x0_exti.c ****     \param[out] none
 214:Drivers/GD32F1x0_standard_peripheral/Source/gd32f1x0_exti.c ****     \retval     none
 215:Drivers/GD32F1x0_standard_peripheral/Source/gd32f1x0_exti.c **** */
 216:Drivers/GD32F1x0_standard_peripheral/Source/gd32f1x0_exti.c **** void exti_interrupt_flag_clear(exti_line_enum linex)
 217:Drivers/GD32F1x0_standard_peripheral/Source/gd32f1x0_exti.c **** {
 218:Drivers/GD32F1x0_standard_peripheral/Source/gd32f1x0_exti.c ****     EXTI_PD = (uint32_t)linex;
 219:Drivers/GD32F1x0_standard_peripheral/Source/gd32f1x0_exti.c **** }
 220:Drivers/GD32F1x0_standard_peripheral/Source/gd32f1x0_exti.c **** 
 221:Drivers/GD32F1x0_standard_peripheral/Source/gd32f1x0_exti.c **** /*!
 222:Drivers/GD32F1x0_standard_peripheral/Source/gd32f1x0_exti.c ****     \brief      enable EXTI software interrupt event
 223:Drivers/GD32F1x0_standard_peripheral/Source/gd32f1x0_exti.c ****     \param[in]  linex: EXTI line number, refer to exti_line_enum
 224:Drivers/GD32F1x0_standard_peripheral/Source/gd32f1x0_exti.c ****                 only one parameter can be selected which is shown as below:
 225:Drivers/GD32F1x0_standard_peripheral/Source/gd32f1x0_exti.c ****       \arg        EXTI_x (x=0..19,21,22,25,27): EXTI line x (for GD32F130xx and GD32F150xx devices)
 226:Drivers/GD32F1x0_standard_peripheral/Source/gd32f1x0_exti.c ****       \arg        EXTI_x (x=0..17,19,21,22,25,27): EXTI line x (for GD32F130xx and GD32F150xx devic
 227:Drivers/GD32F1x0_standard_peripheral/Source/gd32f1x0_exti.c ****     \param[out] none
 228:Drivers/GD32F1x0_standard_peripheral/Source/gd32f1x0_exti.c ****     \retval     none
 229:Drivers/GD32F1x0_standard_peripheral/Source/gd32f1x0_exti.c **** */
 230:Drivers/GD32F1x0_standard_peripheral/Source/gd32f1x0_exti.c **** void exti_software_interrupt_enable(exti_line_enum linex)
 231:Drivers/GD32F1x0_standard_peripheral/Source/gd32f1x0_exti.c **** {
 475              		.loc 1 231 1 is_stmt 1 view -0
 476              		.cfi_startproc
 477              		@ args = 0, pretend = 0, frame = 0
 478              		@ frame_needed = 0, uses_anonymous_args = 0
 479              		@ link register save eliminated.
 232:Drivers/GD32F1x0_standard_peripheral/Source/gd32f1x0_exti.c ****     EXTI_SWIEV |= (uint32_t)linex;
 480              		.loc 1 232 5 view .LVU97
 481              		.loc 1 232 16 is_stmt 0 view .LVU98
 482 0000 034A     		ldr	r2, .L41
 483 0002 D2F81034 		ldr	r3, [r2, #1040]
 484 0006 0343     		orrs	r3, r3, r0
 485 0008 C2F81034 		str	r3, [r2, #1040]
 233:Drivers/GD32F1x0_standard_peripheral/Source/gd32f1x0_exti.c **** }
 486              		.loc 1 233 1 view .LVU99
 487 000c 7047     		bx	lr
 488              	.L42:
 489 000e 00BF     		.align	2
 490              	.L41:
 491 0010 00000140 		.word	1073807360
 492              		.cfi_endproc
 493              	.LFE66:
 495              		.section	.text.exti_software_interrupt_disable,"ax",%progbits
 496              		.align	1
 497              		.global	exti_software_interrupt_disable
 498              		.syntax unified
 499              		.thumb
 500              		.thumb_func
 501              		.fpu softvfp
 503              	exti_software_interrupt_disable:
 504              	.LVL26:
 505              	.LFB67:
 234:Drivers/GD32F1x0_standard_peripheral/Source/gd32f1x0_exti.c **** 
 235:Drivers/GD32F1x0_standard_peripheral/Source/gd32f1x0_exti.c **** /*!
 236:Drivers/GD32F1x0_standard_peripheral/Source/gd32f1x0_exti.c ****     \brief      disable EXTI software interrupt event
 237:Drivers/GD32F1x0_standard_peripheral/Source/gd32f1x0_exti.c ****     \param[in]  linex: EXTI line number, refer to exti_line_enum
 238:Drivers/GD32F1x0_standard_peripheral/Source/gd32f1x0_exti.c ****                 only one parameter can be selected which is shown as below:
ARM GAS  /tmp/ccrpUSCJ.s 			page 14


 239:Drivers/GD32F1x0_standard_peripheral/Source/gd32f1x0_exti.c ****       \arg        EXTI_x (x=0..19,21,22,25,27): EXTI line x (for GD32F130xx and GD32F150xx devices)
 240:Drivers/GD32F1x0_standard_peripheral/Source/gd32f1x0_exti.c ****       \arg        EXTI_x (x=0..17,19,21,22,25,27): EXTI line x (for GD32F130xx and GD32F150xx devic
 241:Drivers/GD32F1x0_standard_peripheral/Source/gd32f1x0_exti.c ****     \param[out] none
 242:Drivers/GD32F1x0_standard_peripheral/Source/gd32f1x0_exti.c ****     \retval     none
 243:Drivers/GD32F1x0_standard_peripheral/Source/gd32f1x0_exti.c **** */
 244:Drivers/GD32F1x0_standard_peripheral/Source/gd32f1x0_exti.c **** void exti_software_interrupt_disable(exti_line_enum linex)
 245:Drivers/GD32F1x0_standard_peripheral/Source/gd32f1x0_exti.c **** {
 506              		.loc 1 245 1 is_stmt 1 view -0
 507              		.cfi_startproc
 508              		@ args = 0, pretend = 0, frame = 0
 509              		@ frame_needed = 0, uses_anonymous_args = 0
 510              		@ link register save eliminated.
 246:Drivers/GD32F1x0_standard_peripheral/Source/gd32f1x0_exti.c ****     EXTI_SWIEV &= ~(uint32_t)linex;
 511              		.loc 1 246 5 view .LVU101
 512              		.loc 1 246 16 is_stmt 0 view .LVU102
 513 0000 034A     		ldr	r2, .L44
 514 0002 D2F81034 		ldr	r3, [r2, #1040]
 515 0006 23EA0003 		bic	r3, r3, r0
 516 000a C2F81034 		str	r3, [r2, #1040]
 247:Drivers/GD32F1x0_standard_peripheral/Source/gd32f1x0_exti.c **** }
 517              		.loc 1 247 1 view .LVU103
 518 000e 7047     		bx	lr
 519              	.L45:
 520              		.align	2
 521              	.L44:
 522 0010 00000140 		.word	1073807360
 523              		.cfi_endproc
 524              	.LFE67:
 526              		.text
 527              	.Letext0:
 528              		.file 2 "/usr/lib/gcc/arm-none-eabi/10.3.1/include/stdint.h"
 529              		.file 3 "Drivers/CMSIS/Include/gd32f1x0.h"
 530              		.file 4 "Drivers/GD32F1x0_standard_peripheral/Include/gd32f1x0_exti.h"
ARM GAS  /tmp/ccrpUSCJ.s 			page 15

