ARM GAS  /tmp/ccsF3AUE.s 			page 1


   1              		.cpu cortex-m3
   2              		.eabi_attribute 20, 1
   3              		.eabi_attribute 21, 1
   4              		.eabi_attribute 23, 3
   5              		.eabi_attribute 24, 1
   6              		.eabi_attribute 25, 1
   7              		.eabi_attribute 26, 1
   8              		.eabi_attribute 30, 4
   9              		.eabi_attribute 34, 1
  10              		.eabi_attribute 18, 4
  11              		.file	"gd32f1x0_cmp.c"
  12              		.text
  13              	.Ltext0:
  14              		.cfi_sections	.debug_frame
  15              		.section	.text.cmp_deinit,"ax",%progbits
  16              		.align	1
  17              		.global	cmp_deinit
  18              		.arch armv7-m
  19              		.syntax unified
  20              		.thumb
  21              		.thumb_func
  22              		.fpu softvfp
  24              	cmp_deinit:
  25              	.LFB56:
  26              		.file 1 "Drivers/GD32F1x0_standard_peripheral/Source/gd32f1x0_cmp.c"
   1:Drivers/GD32F1x0_standard_peripheral/Source/gd32f1x0_cmp.c **** /*!
   2:Drivers/GD32F1x0_standard_peripheral/Source/gd32f1x0_cmp.c ****     \file  gd32f1x0_cmp.c
   3:Drivers/GD32F1x0_standard_peripheral/Source/gd32f1x0_cmp.c ****     \brief CMP driver
   4:Drivers/GD32F1x0_standard_peripheral/Source/gd32f1x0_cmp.c **** */
   5:Drivers/GD32F1x0_standard_peripheral/Source/gd32f1x0_cmp.c **** 
   6:Drivers/GD32F1x0_standard_peripheral/Source/gd32f1x0_cmp.c **** /*
   7:Drivers/GD32F1x0_standard_peripheral/Source/gd32f1x0_cmp.c ****     Copyright (C) 2017 GigaDevice
   8:Drivers/GD32F1x0_standard_peripheral/Source/gd32f1x0_cmp.c **** 
   9:Drivers/GD32F1x0_standard_peripheral/Source/gd32f1x0_cmp.c ****     2014-12-26, V1.0.0, platform GD32F1x0(x=5)
  10:Drivers/GD32F1x0_standard_peripheral/Source/gd32f1x0_cmp.c ****     2016-01-15, V2.0.0, platform GD32F1x0(x=5,9)
  11:Drivers/GD32F1x0_standard_peripheral/Source/gd32f1x0_cmp.c ****     2016-04-30, V3.0.0, firmware update for GD32F1x0(x=5,9)
  12:Drivers/GD32F1x0_standard_peripheral/Source/gd32f1x0_cmp.c ****     2017-06-19, V3.1.0, firmware update for GD32F1x0(x=5,9)
  13:Drivers/GD32F1x0_standard_peripheral/Source/gd32f1x0_cmp.c **** */
  14:Drivers/GD32F1x0_standard_peripheral/Source/gd32f1x0_cmp.c **** 
  15:Drivers/GD32F1x0_standard_peripheral/Source/gd32f1x0_cmp.c **** #include "gd32f1x0_cmp.h"
  16:Drivers/GD32F1x0_standard_peripheral/Source/gd32f1x0_cmp.c **** 
  17:Drivers/GD32F1x0_standard_peripheral/Source/gd32f1x0_cmp.c **** /*!
  18:Drivers/GD32F1x0_standard_peripheral/Source/gd32f1x0_cmp.c ****     \brief      deinitialize comparator 
  19:Drivers/GD32F1x0_standard_peripheral/Source/gd32f1x0_cmp.c ****     \param[in]  none
  20:Drivers/GD32F1x0_standard_peripheral/Source/gd32f1x0_cmp.c ****     \param[out] none
  21:Drivers/GD32F1x0_standard_peripheral/Source/gd32f1x0_cmp.c ****     \retval     none
  22:Drivers/GD32F1x0_standard_peripheral/Source/gd32f1x0_cmp.c **** */
  23:Drivers/GD32F1x0_standard_peripheral/Source/gd32f1x0_cmp.c **** void cmp_deinit(void)
  24:Drivers/GD32F1x0_standard_peripheral/Source/gd32f1x0_cmp.c **** {
  27              		.loc 1 24 1 view -0
  28              		.cfi_startproc
  29              		@ args = 0, pretend = 0, frame = 0
  30              		@ frame_needed = 0, uses_anonymous_args = 0
  31              		@ link register save eliminated.
  25:Drivers/GD32F1x0_standard_peripheral/Source/gd32f1x0_cmp.c ****     CMP_CS = ((uint32_t)0x00000000);
  32              		.loc 1 25 5 view .LVU1
  33              		.loc 1 25 12 is_stmt 0 view .LVU2
ARM GAS  /tmp/ccsF3AUE.s 			page 2


  34 0000 0022     		movs	r2, #0
  35 0002 014B     		ldr	r3, .L2
  36 0004 DA61     		str	r2, [r3, #28]
  26:Drivers/GD32F1x0_standard_peripheral/Source/gd32f1x0_cmp.c **** }
  37              		.loc 1 26 1 view .LVU3
  38 0006 7047     		bx	lr
  39              	.L3:
  40              		.align	2
  41              	.L2:
  42 0008 00000140 		.word	1073807360
  43              		.cfi_endproc
  44              	.LFE56:
  46              		.section	.text.cmp_mode_init,"ax",%progbits
  47              		.align	1
  48              		.global	cmp_mode_init
  49              		.syntax unified
  50              		.thumb
  51              		.thumb_func
  52              		.fpu softvfp
  54              	cmp_mode_init:
  55              	.LVL0:
  56              	.LFB57:
  27:Drivers/GD32F1x0_standard_peripheral/Source/gd32f1x0_cmp.c **** 
  28:Drivers/GD32F1x0_standard_peripheral/Source/gd32f1x0_cmp.c **** /*!
  29:Drivers/GD32F1x0_standard_peripheral/Source/gd32f1x0_cmp.c ****     \brief      initialize comparator mode 
  30:Drivers/GD32F1x0_standard_peripheral/Source/gd32f1x0_cmp.c ****     \param[in]  cmp_periph
  31:Drivers/GD32F1x0_standard_peripheral/Source/gd32f1x0_cmp.c ****       \arg        CMP0: comparator 0
  32:Drivers/GD32F1x0_standard_peripheral/Source/gd32f1x0_cmp.c ****       \arg        CMP1: comparator 1
  33:Drivers/GD32F1x0_standard_peripheral/Source/gd32f1x0_cmp.c ****     \param[in]  cmp_operating_mode
  34:Drivers/GD32F1x0_standard_peripheral/Source/gd32f1x0_cmp.c ****       \arg        CMP_HIGHSPEED: high speed mode
  35:Drivers/GD32F1x0_standard_peripheral/Source/gd32f1x0_cmp.c ****       \arg        CMP_MIDDLESPEED: medium speed mode
  36:Drivers/GD32F1x0_standard_peripheral/Source/gd32f1x0_cmp.c ****       \arg        CMP_LOWSPEED: low speed mode
  37:Drivers/GD32F1x0_standard_peripheral/Source/gd32f1x0_cmp.c ****       \arg        CMP_VERYLOWSPEED: very-low speed mode
  38:Drivers/GD32F1x0_standard_peripheral/Source/gd32f1x0_cmp.c ****     \param[in]  cmp_inverting_input 
  39:Drivers/GD32F1x0_standard_peripheral/Source/gd32f1x0_cmp.c ****       \arg        CMP_1_4VREFINT: VREFINT *1/4 input
  40:Drivers/GD32F1x0_standard_peripheral/Source/gd32f1x0_cmp.c ****       \arg        CMP_1_2VREFINT: VREFINT *1/2 input
  41:Drivers/GD32F1x0_standard_peripheral/Source/gd32f1x0_cmp.c ****       \arg        CMP_3_4VREFINT: VREFINT *3/4 input
  42:Drivers/GD32F1x0_standard_peripheral/Source/gd32f1x0_cmp.c ****       \arg        CMP_VREFINT: VREFINT input
  43:Drivers/GD32F1x0_standard_peripheral/Source/gd32f1x0_cmp.c ****       \arg        CMP_DAC: PA4 (DAC) input
  44:Drivers/GD32F1x0_standard_peripheral/Source/gd32f1x0_cmp.c ****       \arg        CMP_PA5: PA5 input
  45:Drivers/GD32F1x0_standard_peripheral/Source/gd32f1x0_cmp.c ****       \arg        CMP_PA_0_2: PA0 or PA2 input
  46:Drivers/GD32F1x0_standard_peripheral/Source/gd32f1x0_cmp.c ****     \param[in]  cmp_hysteresis
  47:Drivers/GD32F1x0_standard_peripheral/Source/gd32f1x0_cmp.c ****       \arg        CMP_HYSTERESIS_NO: output no hysteresis
  48:Drivers/GD32F1x0_standard_peripheral/Source/gd32f1x0_cmp.c ****       \arg        CMP_HYSTERESIS_LOW: output low hysteresis
  49:Drivers/GD32F1x0_standard_peripheral/Source/gd32f1x0_cmp.c ****       \arg        CMP_HYSTERESIS_MIDDLE: output middle hysteresis
  50:Drivers/GD32F1x0_standard_peripheral/Source/gd32f1x0_cmp.c ****       \arg        CMP_HYSTERESIS_HIGH: output high hysteresis
  51:Drivers/GD32F1x0_standard_peripheral/Source/gd32f1x0_cmp.c ****     \param[out] none
  52:Drivers/GD32F1x0_standard_peripheral/Source/gd32f1x0_cmp.c ****     \retval     none
  53:Drivers/GD32F1x0_standard_peripheral/Source/gd32f1x0_cmp.c **** */
  54:Drivers/GD32F1x0_standard_peripheral/Source/gd32f1x0_cmp.c **** void cmp_mode_init(uint32_t cmp_periph, operating_mode_enum cmp_operating_mode, inverting_input_enu
  55:Drivers/GD32F1x0_standard_peripheral/Source/gd32f1x0_cmp.c **** {
  57              		.loc 1 55 1 is_stmt 1 view -0
  58              		.cfi_startproc
  59              		@ args = 0, pretend = 0, frame = 0
  60              		@ frame_needed = 0, uses_anonymous_args = 0
  56:Drivers/GD32F1x0_standard_peripheral/Source/gd32f1x0_cmp.c ****     if(CMP0 == cmp_periph){
  61              		.loc 1 56 5 view .LVU5
ARM GAS  /tmp/ccsF3AUE.s 			page 3


  55:Drivers/GD32F1x0_standard_peripheral/Source/gd32f1x0_cmp.c ****     if(CMP0 == cmp_periph){
  62              		.loc 1 55 1 is_stmt 0 view .LVU6
  63 0000 10B5     		push	{r4, lr}
  64              	.LCFI0:
  65              		.cfi_def_cfa_offset 8
  66              		.cfi_offset 4, -8
  67              		.cfi_offset 14, -4
  68 0002 0F4C     		ldr	r4, .L8
  69              		.loc 1 56 7 view .LVU7
  70 0004 70B9     		cbnz	r0, .L5
  57:Drivers/GD32F1x0_standard_peripheral/Source/gd32f1x0_cmp.c ****         /* initialize comparator 0 mode */
  58:Drivers/GD32F1x0_standard_peripheral/Source/gd32f1x0_cmp.c ****         CMP_CS |= CS_CMP0M(cmp_operating_mode) | CS_CMP0MSEL(cmp_inverting_input) | CS_CMP0HST(outp
  71              		.loc 1 58 9 is_stmt 1 view .LVU8
  72              		.loc 1 58 16 is_stmt 0 view .LVU9
  73 0006 E069     		ldr	r0, [r4, #28]
  74              	.LVL1:
  75              		.loc 1 58 85 view .LVU10
  76 0008 1B03     		lsls	r3, r3, #12
  77              	.LVL2:
  78              		.loc 1 58 85 view .LVU11
  79 000a 03F44053 		and	r3, r3, #12288
  80              		.loc 1 58 50 view .LVU12
  81 000e 1201     		lsls	r2, r2, #4
  82              	.LVL3:
  83              		.loc 1 58 16 view .LVU13
  84 0010 0343     		orrs	r3, r3, r0
  85              		.loc 1 58 50 view .LVU14
  86 0012 02F07002 		and	r2, r2, #112
  87              		.loc 1 58 19 view .LVU15
  88 0016 8900     		lsls	r1, r1, #2
  89              	.LVL4:
  90              		.loc 1 58 16 view .LVU16
  91 0018 1343     		orrs	r3, r3, r2
  92              		.loc 1 58 19 view .LVU17
  93 001a 01F00C01 		and	r1, r1, #12
  94              	.L7:
  59:Drivers/GD32F1x0_standard_peripheral/Source/gd32f1x0_cmp.c ****     }else{
  60:Drivers/GD32F1x0_standard_peripheral/Source/gd32f1x0_cmp.c ****         /* initialize comparator 1 mode */
  61:Drivers/GD32F1x0_standard_peripheral/Source/gd32f1x0_cmp.c ****         CMP_CS |= CS_CMP1M(cmp_operating_mode) | CS_CMP1MSEL(cmp_inverting_input) | CS_CMP1HST(outp
  95              		.loc 1 61 16 view .LVU18
  96 001e 0B43     		orrs	r3, r3, r1
  97 0020 E361     		str	r3, [r4, #28]
  62:Drivers/GD32F1x0_standard_peripheral/Source/gd32f1x0_cmp.c ****     }
  63:Drivers/GD32F1x0_standard_peripheral/Source/gd32f1x0_cmp.c **** }
  98              		.loc 1 63 1 view .LVU19
  99 0022 10BD     		pop	{r4, pc}
 100              	.LVL5:
 101              	.L5:
  61:Drivers/GD32F1x0_standard_peripheral/Source/gd32f1x0_cmp.c ****     }
 102              		.loc 1 61 9 is_stmt 1 view .LVU20
  61:Drivers/GD32F1x0_standard_peripheral/Source/gd32f1x0_cmp.c ****     }
 103              		.loc 1 61 16 is_stmt 0 view .LVU21
 104 0024 E069     		ldr	r0, [r4, #28]
 105              	.LVL6:
  61:Drivers/GD32F1x0_standard_peripheral/Source/gd32f1x0_cmp.c ****     }
 106              		.loc 1 61 85 view .LVU22
 107 0026 1B07     		lsls	r3, r3, #28
ARM GAS  /tmp/ccsF3AUE.s 			page 4


 108              	.LVL7:
  61:Drivers/GD32F1x0_standard_peripheral/Source/gd32f1x0_cmp.c ****     }
 109              		.loc 1 61 85 view .LVU23
 110 0028 03F04053 		and	r3, r3, #805306368
  61:Drivers/GD32F1x0_standard_peripheral/Source/gd32f1x0_cmp.c ****     }
 111              		.loc 1 61 50 view .LVU24
 112 002c 1205     		lsls	r2, r2, #20
 113              	.LVL8:
  61:Drivers/GD32F1x0_standard_peripheral/Source/gd32f1x0_cmp.c ****     }
 114              		.loc 1 61 16 view .LVU25
 115 002e 0343     		orrs	r3, r3, r0
  61:Drivers/GD32F1x0_standard_peripheral/Source/gd32f1x0_cmp.c ****     }
 116              		.loc 1 61 50 view .LVU26
 117 0030 02F4E002 		and	r2, r2, #7340032
  61:Drivers/GD32F1x0_standard_peripheral/Source/gd32f1x0_cmp.c ****     }
 118              		.loc 1 61 19 view .LVU27
 119 0034 8904     		lsls	r1, r1, #18
 120              	.LVL9:
  61:Drivers/GD32F1x0_standard_peripheral/Source/gd32f1x0_cmp.c ****     }
 121              		.loc 1 61 16 view .LVU28
 122 0036 1343     		orrs	r3, r3, r2
  61:Drivers/GD32F1x0_standard_peripheral/Source/gd32f1x0_cmp.c ****     }
 123              		.loc 1 61 19 view .LVU29
 124 0038 01F44021 		and	r1, r1, #786432
 125 003c EFE7     		b	.L7
 126              	.L9:
 127 003e 00BF     		.align	2
 128              	.L8:
 129 0040 00000140 		.word	1073807360
 130              		.cfi_endproc
 131              	.LFE57:
 133              		.section	.text.cmp_output_init,"ax",%progbits
 134              		.align	1
 135              		.global	cmp_output_init
 136              		.syntax unified
 137              		.thumb
 138              		.thumb_func
 139              		.fpu softvfp
 141              	cmp_output_init:
 142              	.LVL10:
 143              	.LFB58:
  64:Drivers/GD32F1x0_standard_peripheral/Source/gd32f1x0_cmp.c **** 
  65:Drivers/GD32F1x0_standard_peripheral/Source/gd32f1x0_cmp.c **** /*!
  66:Drivers/GD32F1x0_standard_peripheral/Source/gd32f1x0_cmp.c ****     \brief      initialize comparator output
  67:Drivers/GD32F1x0_standard_peripheral/Source/gd32f1x0_cmp.c ****     \param[in]  cmp_periph
  68:Drivers/GD32F1x0_standard_peripheral/Source/gd32f1x0_cmp.c ****       \arg        CMP0: comparator 0
  69:Drivers/GD32F1x0_standard_peripheral/Source/gd32f1x0_cmp.c ****       \arg        CMP1: comparator 1
  70:Drivers/GD32F1x0_standard_peripheral/Source/gd32f1x0_cmp.c ****     \param[in]  cmp_output 
  71:Drivers/GD32F1x0_standard_peripheral/Source/gd32f1x0_cmp.c ****       \arg        CMP_OUTPUT_NONE: output no selection
  72:Drivers/GD32F1x0_standard_peripheral/Source/gd32f1x0_cmp.c ****       \arg        CMP_OUTPUT_TIMER0BKIN: TIMER 0 break input
  73:Drivers/GD32F1x0_standard_peripheral/Source/gd32f1x0_cmp.c ****       \arg        CMP_OUTPUT_TIMER0IC0: TIMER 0 channel0 input capture 
  74:Drivers/GD32F1x0_standard_peripheral/Source/gd32f1x0_cmp.c ****       \arg        CMP_OUTPUT_TIMER0OCPRECLR: TIMER 0 OCPRE_CLR input
  75:Drivers/GD32F1x0_standard_peripheral/Source/gd32f1x0_cmp.c ****       \arg        CMP_OUTPUT_TIMER1IC3: TIMER 1 channel3 input capture
  76:Drivers/GD32F1x0_standard_peripheral/Source/gd32f1x0_cmp.c ****       \arg        CMP_OUTPUT_TIMER1OCPRECLR: TIMER 1 OCPRE_CLR input
  77:Drivers/GD32F1x0_standard_peripheral/Source/gd32f1x0_cmp.c ****       \arg        CMP_OUTPUT_TIMER2IC0: TIMER 2 channel0 input capture
  78:Drivers/GD32F1x0_standard_peripheral/Source/gd32f1x0_cmp.c ****       \arg        CMP_OUTPUT_TIMER2OCPRECLR: TIMER 2 OCPRE_CLR input
  79:Drivers/GD32F1x0_standard_peripheral/Source/gd32f1x0_cmp.c ****     \param[in]  cmp_output_polarity 
ARM GAS  /tmp/ccsF3AUE.s 			page 5


  80:Drivers/GD32F1x0_standard_peripheral/Source/gd32f1x0_cmp.c ****       \arg        CMP_OUTPUT_POLARITY_INVERTED: output is inverted
  81:Drivers/GD32F1x0_standard_peripheral/Source/gd32f1x0_cmp.c ****       \arg        CMP_OUTPUT_POLARITY_NOINVERTED: output is not inverted
  82:Drivers/GD32F1x0_standard_peripheral/Source/gd32f1x0_cmp.c ****     \param[out] none
  83:Drivers/GD32F1x0_standard_peripheral/Source/gd32f1x0_cmp.c ****     \retval     none
  84:Drivers/GD32F1x0_standard_peripheral/Source/gd32f1x0_cmp.c **** */
  85:Drivers/GD32F1x0_standard_peripheral/Source/gd32f1x0_cmp.c **** void cmp_output_init(uint32_t cmp_periph, cmp_output_enum cmp_output_slection, uint32_t cmp_output_
  86:Drivers/GD32F1x0_standard_peripheral/Source/gd32f1x0_cmp.c **** {
 144              		.loc 1 86 1 is_stmt 1 view -0
 145              		.cfi_startproc
 146              		@ args = 0, pretend = 0, frame = 0
 147              		@ frame_needed = 0, uses_anonymous_args = 0
 148              		@ link register save eliminated.
  87:Drivers/GD32F1x0_standard_peripheral/Source/gd32f1x0_cmp.c ****     /* initialize comparator 0 output */
  88:Drivers/GD32F1x0_standard_peripheral/Source/gd32f1x0_cmp.c ****     if(CMP0 == cmp_periph){
 149              		.loc 1 88 5 view .LVU31
 150 0000 0F4B     		ldr	r3, .L16
 151              		.loc 1 88 7 is_stmt 0 view .LVU32
 152 0002 70B9     		cbnz	r0, .L11
  89:Drivers/GD32F1x0_standard_peripheral/Source/gd32f1x0_cmp.c ****         CMP_CS |= CS_CMP0OSEL(cmp_output_slection);
 153              		.loc 1 89 9 is_stmt 1 view .LVU33
 154              		.loc 1 89 16 is_stmt 0 view .LVU34
 155 0004 D869     		ldr	r0, [r3, #28]
 156              	.LVL11:
 157              		.loc 1 89 19 view .LVU35
 158 0006 0902     		lsls	r1, r1, #8
 159              	.LVL12:
 160              		.loc 1 89 19 view .LVU36
 161 0008 01F4E061 		and	r1, r1, #1792
 162              		.loc 1 89 16 view .LVU37
 163 000c 0143     		orrs	r1, r1, r0
 164 000e D961     		str	r1, [r3, #28]
  90:Drivers/GD32F1x0_standard_peripheral/Source/gd32f1x0_cmp.c ****         /* output polarity */
  91:Drivers/GD32F1x0_standard_peripheral/Source/gd32f1x0_cmp.c ****         if(CMP_OUTPUT_POLARITY_INVERTED == cmp_output_polarity){
 165              		.loc 1 91 9 is_stmt 1 view .LVU38
 166              		.loc 1 91 11 is_stmt 0 view .LVU39
 167 0010 012A     		cmp	r2, #1
  92:Drivers/GD32F1x0_standard_peripheral/Source/gd32f1x0_cmp.c ****             CMP_CS |= CMP_CS_CMP0PL;
 168              		.loc 1 92 20 view .LVU40
 169 0012 DA69     		ldr	r2, [r3, #28]
 170              	.LVL13:
 171              		.loc 1 92 13 is_stmt 1 view .LVU41
 172              		.loc 1 92 20 is_stmt 0 view .LVU42
 173 0014 0CBF     		ite	eq
 174 0016 42F40062 		orreq	r2, r2, #2048
  93:Drivers/GD32F1x0_standard_peripheral/Source/gd32f1x0_cmp.c ****         }else{ 
  94:Drivers/GD32F1x0_standard_peripheral/Source/gd32f1x0_cmp.c ****             CMP_CS &= ~CMP_CS_CMP0PL;
 175              		.loc 1 94 13 is_stmt 1 view .LVU43
 176              		.loc 1 94 20 is_stmt 0 view .LVU44
 177 001a 22F40062 		bicne	r2, r2, #2048
 178              	.L15:
  95:Drivers/GD32F1x0_standard_peripheral/Source/gd32f1x0_cmp.c ****         }
  96:Drivers/GD32F1x0_standard_peripheral/Source/gd32f1x0_cmp.c ****     }else{
  97:Drivers/GD32F1x0_standard_peripheral/Source/gd32f1x0_cmp.c ****         CMP_CS |= CS_CMP1OSEL(cmp_output_slection);
  98:Drivers/GD32F1x0_standard_peripheral/Source/gd32f1x0_cmp.c ****         
  99:Drivers/GD32F1x0_standard_peripheral/Source/gd32f1x0_cmp.c ****         if(CMP_OUTPUT_POLARITY_INVERTED == cmp_output_polarity){
 100:Drivers/GD32F1x0_standard_peripheral/Source/gd32f1x0_cmp.c ****             CMP_CS |= CMP_CS_CMP1PL;
 101:Drivers/GD32F1x0_standard_peripheral/Source/gd32f1x0_cmp.c ****         }else{ 
ARM GAS  /tmp/ccsF3AUE.s 			page 6


 102:Drivers/GD32F1x0_standard_peripheral/Source/gd32f1x0_cmp.c ****             CMP_CS &= ~CMP_CS_CMP1PL;
 179              		.loc 1 102 20 view .LVU45
 180 001e DA61     		str	r2, [r3, #28]
 103:Drivers/GD32F1x0_standard_peripheral/Source/gd32f1x0_cmp.c ****         }
 104:Drivers/GD32F1x0_standard_peripheral/Source/gd32f1x0_cmp.c ****     }
 105:Drivers/GD32F1x0_standard_peripheral/Source/gd32f1x0_cmp.c **** }
 181              		.loc 1 105 1 view .LVU46
 182 0020 7047     		bx	lr
 183              	.LVL14:
 184              	.L11:
  97:Drivers/GD32F1x0_standard_peripheral/Source/gd32f1x0_cmp.c ****         
 185              		.loc 1 97 9 is_stmt 1 view .LVU47
  97:Drivers/GD32F1x0_standard_peripheral/Source/gd32f1x0_cmp.c ****         
 186              		.loc 1 97 16 is_stmt 0 view .LVU48
 187 0022 D869     		ldr	r0, [r3, #28]
 188              	.LVL15:
  97:Drivers/GD32F1x0_standard_peripheral/Source/gd32f1x0_cmp.c ****         
 189              		.loc 1 97 19 view .LVU49
 190 0024 0906     		lsls	r1, r1, #24
 191              	.LVL16:
  97:Drivers/GD32F1x0_standard_peripheral/Source/gd32f1x0_cmp.c ****         
 192              		.loc 1 97 19 view .LVU50
 193 0026 01F0E061 		and	r1, r1, #117440512
  97:Drivers/GD32F1x0_standard_peripheral/Source/gd32f1x0_cmp.c ****         
 194              		.loc 1 97 16 view .LVU51
 195 002a 0143     		orrs	r1, r1, r0
 196 002c D961     		str	r1, [r3, #28]
  99:Drivers/GD32F1x0_standard_peripheral/Source/gd32f1x0_cmp.c ****             CMP_CS |= CMP_CS_CMP1PL;
 197              		.loc 1 99 9 is_stmt 1 view .LVU52
  99:Drivers/GD32F1x0_standard_peripheral/Source/gd32f1x0_cmp.c ****             CMP_CS |= CMP_CS_CMP1PL;
 198              		.loc 1 99 11 is_stmt 0 view .LVU53
 199 002e 012A     		cmp	r2, #1
 100:Drivers/GD32F1x0_standard_peripheral/Source/gd32f1x0_cmp.c ****         }else{ 
 200              		.loc 1 100 20 view .LVU54
 201 0030 DA69     		ldr	r2, [r3, #28]
 202              	.LVL17:
 100:Drivers/GD32F1x0_standard_peripheral/Source/gd32f1x0_cmp.c ****         }else{ 
 203              		.loc 1 100 13 is_stmt 1 view .LVU55
 100:Drivers/GD32F1x0_standard_peripheral/Source/gd32f1x0_cmp.c ****         }else{ 
 204              		.loc 1 100 20 is_stmt 0 view .LVU56
 205 0032 0CBF     		ite	eq
 206 0034 42F00062 		orreq	r2, r2, #134217728
 102:Drivers/GD32F1x0_standard_peripheral/Source/gd32f1x0_cmp.c ****         }
 207              		.loc 1 102 13 is_stmt 1 view .LVU57
 102:Drivers/GD32F1x0_standard_peripheral/Source/gd32f1x0_cmp.c ****         }
 208              		.loc 1 102 20 is_stmt 0 view .LVU58
 209 0038 22F00062 		bicne	r2, r2, #134217728
 210 003c EFE7     		b	.L15
 211              	.L17:
 212 003e 00BF     		.align	2
 213              	.L16:
 214 0040 00000140 		.word	1073807360
 215              		.cfi_endproc
 216              	.LFE58:
 218              		.section	.text.cmp_enable,"ax",%progbits
 219              		.align	1
 220              		.global	cmp_enable
ARM GAS  /tmp/ccsF3AUE.s 			page 7


 221              		.syntax unified
 222              		.thumb
 223              		.thumb_func
 224              		.fpu softvfp
 226              	cmp_enable:
 227              	.LVL18:
 228              	.LFB59:
 106:Drivers/GD32F1x0_standard_peripheral/Source/gd32f1x0_cmp.c **** 
 107:Drivers/GD32F1x0_standard_peripheral/Source/gd32f1x0_cmp.c **** /*!
 108:Drivers/GD32F1x0_standard_peripheral/Source/gd32f1x0_cmp.c ****     \brief      enable comparator 
 109:Drivers/GD32F1x0_standard_peripheral/Source/gd32f1x0_cmp.c ****     \param[in]  cmp_periph
 110:Drivers/GD32F1x0_standard_peripheral/Source/gd32f1x0_cmp.c ****       \arg        CMP0: comparator 0
 111:Drivers/GD32F1x0_standard_peripheral/Source/gd32f1x0_cmp.c ****       \arg        CMP1: comparator 1
 112:Drivers/GD32F1x0_standard_peripheral/Source/gd32f1x0_cmp.c ****     \param[out] none
 113:Drivers/GD32F1x0_standard_peripheral/Source/gd32f1x0_cmp.c ****     \retval     none
 114:Drivers/GD32F1x0_standard_peripheral/Source/gd32f1x0_cmp.c **** */
 115:Drivers/GD32F1x0_standard_peripheral/Source/gd32f1x0_cmp.c **** void cmp_enable(uint32_t cmp_periph)
 116:Drivers/GD32F1x0_standard_peripheral/Source/gd32f1x0_cmp.c **** {
 229              		.loc 1 116 1 is_stmt 1 view -0
 230              		.cfi_startproc
 231              		@ args = 0, pretend = 0, frame = 0
 232              		@ frame_needed = 0, uses_anonymous_args = 0
 233              		@ link register save eliminated.
 117:Drivers/GD32F1x0_standard_peripheral/Source/gd32f1x0_cmp.c ****     if(CMP0 == cmp_periph){
 234              		.loc 1 117 5 view .LVU60
 235 0000 044B     		ldr	r3, .L22
 118:Drivers/GD32F1x0_standard_peripheral/Source/gd32f1x0_cmp.c ****         CMP_CS |= CMP_CS_CMP0EN;
 236              		.loc 1 118 16 is_stmt 0 view .LVU61
 237 0002 DA69     		ldr	r2, [r3, #28]
 117:Drivers/GD32F1x0_standard_peripheral/Source/gd32f1x0_cmp.c ****     if(CMP0 == cmp_periph){
 238              		.loc 1 117 7 view .LVU62
 239 0004 18B9     		cbnz	r0, .L19
 240              		.loc 1 118 9 is_stmt 1 view .LVU63
 241              		.loc 1 118 16 is_stmt 0 view .LVU64
 242 0006 42F00102 		orr	r2, r2, #1
 243              	.L21:
 119:Drivers/GD32F1x0_standard_peripheral/Source/gd32f1x0_cmp.c ****     }else{
 120:Drivers/GD32F1x0_standard_peripheral/Source/gd32f1x0_cmp.c ****         CMP_CS |= CMP_CS_CMP1EN;
 244              		.loc 1 120 16 view .LVU65
 245 000a DA61     		str	r2, [r3, #28]
 121:Drivers/GD32F1x0_standard_peripheral/Source/gd32f1x0_cmp.c ****     }
 122:Drivers/GD32F1x0_standard_peripheral/Source/gd32f1x0_cmp.c **** }
 246              		.loc 1 122 1 view .LVU66
 247 000c 7047     		bx	lr
 248              	.L19:
 120:Drivers/GD32F1x0_standard_peripheral/Source/gd32f1x0_cmp.c ****     }
 249              		.loc 1 120 9 is_stmt 1 view .LVU67
 120:Drivers/GD32F1x0_standard_peripheral/Source/gd32f1x0_cmp.c ****     }
 250              		.loc 1 120 16 is_stmt 0 view .LVU68
 251 000e 42F48032 		orr	r2, r2, #65536
 252 0012 FAE7     		b	.L21
 253              	.L23:
 254              		.align	2
 255              	.L22:
 256 0014 00000140 		.word	1073807360
 257              		.cfi_endproc
 258              	.LFE59:
ARM GAS  /tmp/ccsF3AUE.s 			page 8


 260              		.section	.text.cmp_disable,"ax",%progbits
 261              		.align	1
 262              		.global	cmp_disable
 263              		.syntax unified
 264              		.thumb
 265              		.thumb_func
 266              		.fpu softvfp
 268              	cmp_disable:
 269              	.LVL19:
 270              	.LFB60:
 123:Drivers/GD32F1x0_standard_peripheral/Source/gd32f1x0_cmp.c **** 
 124:Drivers/GD32F1x0_standard_peripheral/Source/gd32f1x0_cmp.c **** /*!
 125:Drivers/GD32F1x0_standard_peripheral/Source/gd32f1x0_cmp.c ****     \brief      disable comparator 
 126:Drivers/GD32F1x0_standard_peripheral/Source/gd32f1x0_cmp.c ****     \param[in]  cmp_periph
 127:Drivers/GD32F1x0_standard_peripheral/Source/gd32f1x0_cmp.c ****       \arg        CMP0: comparator 0
 128:Drivers/GD32F1x0_standard_peripheral/Source/gd32f1x0_cmp.c ****       \arg        CMP1: comparator 1
 129:Drivers/GD32F1x0_standard_peripheral/Source/gd32f1x0_cmp.c ****     \param[out] none
 130:Drivers/GD32F1x0_standard_peripheral/Source/gd32f1x0_cmp.c ****     \retval     none
 131:Drivers/GD32F1x0_standard_peripheral/Source/gd32f1x0_cmp.c **** */
 132:Drivers/GD32F1x0_standard_peripheral/Source/gd32f1x0_cmp.c **** void cmp_disable(uint32_t cmp_periph)
 133:Drivers/GD32F1x0_standard_peripheral/Source/gd32f1x0_cmp.c **** {
 271              		.loc 1 133 1 is_stmt 1 view -0
 272              		.cfi_startproc
 273              		@ args = 0, pretend = 0, frame = 0
 274              		@ frame_needed = 0, uses_anonymous_args = 0
 275              		@ link register save eliminated.
 134:Drivers/GD32F1x0_standard_peripheral/Source/gd32f1x0_cmp.c ****     if(CMP0 == cmp_periph){
 276              		.loc 1 134 5 view .LVU70
 277 0000 044B     		ldr	r3, .L28
 135:Drivers/GD32F1x0_standard_peripheral/Source/gd32f1x0_cmp.c ****         CMP_CS &= ~CMP_CS_CMP0EN;
 278              		.loc 1 135 16 is_stmt 0 view .LVU71
 279 0002 DA69     		ldr	r2, [r3, #28]
 134:Drivers/GD32F1x0_standard_peripheral/Source/gd32f1x0_cmp.c ****     if(CMP0 == cmp_periph){
 280              		.loc 1 134 7 view .LVU72
 281 0004 18B9     		cbnz	r0, .L25
 282              		.loc 1 135 9 is_stmt 1 view .LVU73
 283              		.loc 1 135 16 is_stmt 0 view .LVU74
 284 0006 22F00102 		bic	r2, r2, #1
 285              	.L27:
 136:Drivers/GD32F1x0_standard_peripheral/Source/gd32f1x0_cmp.c ****     }else{
 137:Drivers/GD32F1x0_standard_peripheral/Source/gd32f1x0_cmp.c ****         CMP_CS &= ~CMP_CS_CMP1EN;
 286              		.loc 1 137 16 view .LVU75
 287 000a DA61     		str	r2, [r3, #28]
 138:Drivers/GD32F1x0_standard_peripheral/Source/gd32f1x0_cmp.c ****     }
 139:Drivers/GD32F1x0_standard_peripheral/Source/gd32f1x0_cmp.c **** }
 288              		.loc 1 139 1 view .LVU76
 289 000c 7047     		bx	lr
 290              	.L25:
 137:Drivers/GD32F1x0_standard_peripheral/Source/gd32f1x0_cmp.c ****     }
 291              		.loc 1 137 9 is_stmt 1 view .LVU77
 137:Drivers/GD32F1x0_standard_peripheral/Source/gd32f1x0_cmp.c ****     }
 292              		.loc 1 137 16 is_stmt 0 view .LVU78
 293 000e 22F48032 		bic	r2, r2, #65536
 294 0012 FAE7     		b	.L27
 295              	.L29:
 296              		.align	2
 297              	.L28:
ARM GAS  /tmp/ccsF3AUE.s 			page 9


 298 0014 00000140 		.word	1073807360
 299              		.cfi_endproc
 300              	.LFE60:
 302              		.section	.text.cmp_switch_enable,"ax",%progbits
 303              		.align	1
 304              		.global	cmp_switch_enable
 305              		.syntax unified
 306              		.thumb
 307              		.thumb_func
 308              		.fpu softvfp
 310              	cmp_switch_enable:
 311              	.LFB61:
 140:Drivers/GD32F1x0_standard_peripheral/Source/gd32f1x0_cmp.c **** 
 141:Drivers/GD32F1x0_standard_peripheral/Source/gd32f1x0_cmp.c **** /*!
 142:Drivers/GD32F1x0_standard_peripheral/Source/gd32f1x0_cmp.c ****     \brief      enable comparator switch
 143:Drivers/GD32F1x0_standard_peripheral/Source/gd32f1x0_cmp.c ****     \param[in]  none
 144:Drivers/GD32F1x0_standard_peripheral/Source/gd32f1x0_cmp.c ****     \param[out] none
 145:Drivers/GD32F1x0_standard_peripheral/Source/gd32f1x0_cmp.c ****     \retval     none
 146:Drivers/GD32F1x0_standard_peripheral/Source/gd32f1x0_cmp.c **** */
 147:Drivers/GD32F1x0_standard_peripheral/Source/gd32f1x0_cmp.c **** void cmp_switch_enable(void)
 148:Drivers/GD32F1x0_standard_peripheral/Source/gd32f1x0_cmp.c **** {
 312              		.loc 1 148 1 is_stmt 1 view -0
 313              		.cfi_startproc
 314              		@ args = 0, pretend = 0, frame = 0
 315              		@ frame_needed = 0, uses_anonymous_args = 0
 316              		@ link register save eliminated.
 149:Drivers/GD32F1x0_standard_peripheral/Source/gd32f1x0_cmp.c ****     CMP_CS |= CMP_CS_CMP0SW;
 317              		.loc 1 149 5 view .LVU80
 318              		.loc 1 149 12 is_stmt 0 view .LVU81
 319 0000 024A     		ldr	r2, .L31
 320 0002 D369     		ldr	r3, [r2, #28]
 321 0004 43F00203 		orr	r3, r3, #2
 322 0008 D361     		str	r3, [r2, #28]
 150:Drivers/GD32F1x0_standard_peripheral/Source/gd32f1x0_cmp.c **** }
 323              		.loc 1 150 1 view .LVU82
 324 000a 7047     		bx	lr
 325              	.L32:
 326              		.align	2
 327              	.L31:
 328 000c 00000140 		.word	1073807360
 329              		.cfi_endproc
 330              	.LFE61:
 332              		.section	.text.cmp_switch_disable,"ax",%progbits
 333              		.align	1
 334              		.global	cmp_switch_disable
 335              		.syntax unified
 336              		.thumb
 337              		.thumb_func
 338              		.fpu softvfp
 340              	cmp_switch_disable:
 341              	.LFB62:
 151:Drivers/GD32F1x0_standard_peripheral/Source/gd32f1x0_cmp.c **** 
 152:Drivers/GD32F1x0_standard_peripheral/Source/gd32f1x0_cmp.c **** /*!
 153:Drivers/GD32F1x0_standard_peripheral/Source/gd32f1x0_cmp.c ****     \brief      disable comparator switch
 154:Drivers/GD32F1x0_standard_peripheral/Source/gd32f1x0_cmp.c ****     \param[in]  none
 155:Drivers/GD32F1x0_standard_peripheral/Source/gd32f1x0_cmp.c ****     \param[out] none
 156:Drivers/GD32F1x0_standard_peripheral/Source/gd32f1x0_cmp.c ****     \retval     none
ARM GAS  /tmp/ccsF3AUE.s 			page 10


 157:Drivers/GD32F1x0_standard_peripheral/Source/gd32f1x0_cmp.c **** */
 158:Drivers/GD32F1x0_standard_peripheral/Source/gd32f1x0_cmp.c **** void cmp_switch_disable(void)
 159:Drivers/GD32F1x0_standard_peripheral/Source/gd32f1x0_cmp.c **** {
 342              		.loc 1 159 1 is_stmt 1 view -0
 343              		.cfi_startproc
 344              		@ args = 0, pretend = 0, frame = 0
 345              		@ frame_needed = 0, uses_anonymous_args = 0
 346              		@ link register save eliminated.
 160:Drivers/GD32F1x0_standard_peripheral/Source/gd32f1x0_cmp.c ****     CMP_CS &= ~CMP_CS_CMP0SW;
 347              		.loc 1 160 5 view .LVU84
 348              		.loc 1 160 12 is_stmt 0 view .LVU85
 349 0000 024A     		ldr	r2, .L34
 350 0002 D369     		ldr	r3, [r2, #28]
 351 0004 23F00203 		bic	r3, r3, #2
 352 0008 D361     		str	r3, [r2, #28]
 161:Drivers/GD32F1x0_standard_peripheral/Source/gd32f1x0_cmp.c **** }
 353              		.loc 1 161 1 view .LVU86
 354 000a 7047     		bx	lr
 355              	.L35:
 356              		.align	2
 357              	.L34:
 358 000c 00000140 		.word	1073807360
 359              		.cfi_endproc
 360              	.LFE62:
 362              		.section	.text.cmp_window_enable,"ax",%progbits
 363              		.align	1
 364              		.global	cmp_window_enable
 365              		.syntax unified
 366              		.thumb
 367              		.thumb_func
 368              		.fpu softvfp
 370              	cmp_window_enable:
 371              	.LFB63:
 162:Drivers/GD32F1x0_standard_peripheral/Source/gd32f1x0_cmp.c **** 
 163:Drivers/GD32F1x0_standard_peripheral/Source/gd32f1x0_cmp.c **** 
 164:Drivers/GD32F1x0_standard_peripheral/Source/gd32f1x0_cmp.c **** 
 165:Drivers/GD32F1x0_standard_peripheral/Source/gd32f1x0_cmp.c **** /*!
 166:Drivers/GD32F1x0_standard_peripheral/Source/gd32f1x0_cmp.c ****     \brief      enable the window mode
 167:Drivers/GD32F1x0_standard_peripheral/Source/gd32f1x0_cmp.c ****     \param[in]  none
 168:Drivers/GD32F1x0_standard_peripheral/Source/gd32f1x0_cmp.c ****     \param[out] none
 169:Drivers/GD32F1x0_standard_peripheral/Source/gd32f1x0_cmp.c ****     \retval     none
 170:Drivers/GD32F1x0_standard_peripheral/Source/gd32f1x0_cmp.c **** */
 171:Drivers/GD32F1x0_standard_peripheral/Source/gd32f1x0_cmp.c **** void cmp_window_enable(void)
 172:Drivers/GD32F1x0_standard_peripheral/Source/gd32f1x0_cmp.c **** {
 372              		.loc 1 172 1 is_stmt 1 view -0
 373              		.cfi_startproc
 374              		@ args = 0, pretend = 0, frame = 0
 375              		@ frame_needed = 0, uses_anonymous_args = 0
 376              		@ link register save eliminated.
 173:Drivers/GD32F1x0_standard_peripheral/Source/gd32f1x0_cmp.c ****     CMP_CS |= CMP_CS_WNDEN;
 377              		.loc 1 173 5 view .LVU88
 378              		.loc 1 173 12 is_stmt 0 view .LVU89
 379 0000 024A     		ldr	r2, .L37
 380 0002 D369     		ldr	r3, [r2, #28]
 381 0004 43F40003 		orr	r3, r3, #8388608
 382 0008 D361     		str	r3, [r2, #28]
 174:Drivers/GD32F1x0_standard_peripheral/Source/gd32f1x0_cmp.c **** }
ARM GAS  /tmp/ccsF3AUE.s 			page 11


 383              		.loc 1 174 1 view .LVU90
 384 000a 7047     		bx	lr
 385              	.L38:
 386              		.align	2
 387              	.L37:
 388 000c 00000140 		.word	1073807360
 389              		.cfi_endproc
 390              	.LFE63:
 392              		.section	.text.cmp_window_disable,"ax",%progbits
 393              		.align	1
 394              		.global	cmp_window_disable
 395              		.syntax unified
 396              		.thumb
 397              		.thumb_func
 398              		.fpu softvfp
 400              	cmp_window_disable:
 401              	.LFB64:
 175:Drivers/GD32F1x0_standard_peripheral/Source/gd32f1x0_cmp.c **** 
 176:Drivers/GD32F1x0_standard_peripheral/Source/gd32f1x0_cmp.c **** /*!
 177:Drivers/GD32F1x0_standard_peripheral/Source/gd32f1x0_cmp.c ****     \brief      disable the window mode
 178:Drivers/GD32F1x0_standard_peripheral/Source/gd32f1x0_cmp.c ****     \param[in]  none
 179:Drivers/GD32F1x0_standard_peripheral/Source/gd32f1x0_cmp.c ****     \param[out] none
 180:Drivers/GD32F1x0_standard_peripheral/Source/gd32f1x0_cmp.c ****     \retval     none
 181:Drivers/GD32F1x0_standard_peripheral/Source/gd32f1x0_cmp.c **** */
 182:Drivers/GD32F1x0_standard_peripheral/Source/gd32f1x0_cmp.c **** void cmp_window_disable(void)
 183:Drivers/GD32F1x0_standard_peripheral/Source/gd32f1x0_cmp.c **** {
 402              		.loc 1 183 1 is_stmt 1 view -0
 403              		.cfi_startproc
 404              		@ args = 0, pretend = 0, frame = 0
 405              		@ frame_needed = 0, uses_anonymous_args = 0
 406              		@ link register save eliminated.
 184:Drivers/GD32F1x0_standard_peripheral/Source/gd32f1x0_cmp.c ****     CMP_CS &= ~CMP_CS_WNDEN;
 407              		.loc 1 184 5 view .LVU92
 408              		.loc 1 184 12 is_stmt 0 view .LVU93
 409 0000 024A     		ldr	r2, .L40
 410 0002 D369     		ldr	r3, [r2, #28]
 411 0004 23F40003 		bic	r3, r3, #8388608
 412 0008 D361     		str	r3, [r2, #28]
 185:Drivers/GD32F1x0_standard_peripheral/Source/gd32f1x0_cmp.c **** }
 413              		.loc 1 185 1 view .LVU94
 414 000a 7047     		bx	lr
 415              	.L41:
 416              		.align	2
 417              	.L40:
 418 000c 00000140 		.word	1073807360
 419              		.cfi_endproc
 420              	.LFE64:
 422              		.section	.text.cmp_lock_enable,"ax",%progbits
 423              		.align	1
 424              		.global	cmp_lock_enable
 425              		.syntax unified
 426              		.thumb
 427              		.thumb_func
 428              		.fpu softvfp
 430              	cmp_lock_enable:
 431              	.LVL20:
 432              	.LFB65:
ARM GAS  /tmp/ccsF3AUE.s 			page 12


 186:Drivers/GD32F1x0_standard_peripheral/Source/gd32f1x0_cmp.c **** 
 187:Drivers/GD32F1x0_standard_peripheral/Source/gd32f1x0_cmp.c **** /*!
 188:Drivers/GD32F1x0_standard_peripheral/Source/gd32f1x0_cmp.c ****     \brief      lock the comparator
 189:Drivers/GD32F1x0_standard_peripheral/Source/gd32f1x0_cmp.c ****     \param[in]  cmp_periph
 190:Drivers/GD32F1x0_standard_peripheral/Source/gd32f1x0_cmp.c ****       \arg        CMP0: comparator 0
 191:Drivers/GD32F1x0_standard_peripheral/Source/gd32f1x0_cmp.c ****       \arg        CMP1: comparator 1
 192:Drivers/GD32F1x0_standard_peripheral/Source/gd32f1x0_cmp.c ****     \param[out] none
 193:Drivers/GD32F1x0_standard_peripheral/Source/gd32f1x0_cmp.c ****     \retval     none
 194:Drivers/GD32F1x0_standard_peripheral/Source/gd32f1x0_cmp.c **** */
 195:Drivers/GD32F1x0_standard_peripheral/Source/gd32f1x0_cmp.c **** void cmp_lock_enable(uint32_t cmp_periph)
 196:Drivers/GD32F1x0_standard_peripheral/Source/gd32f1x0_cmp.c **** {
 433              		.loc 1 196 1 is_stmt 1 view -0
 434              		.cfi_startproc
 435              		@ args = 0, pretend = 0, frame = 0
 436              		@ frame_needed = 0, uses_anonymous_args = 0
 437              		@ link register save eliminated.
 197:Drivers/GD32F1x0_standard_peripheral/Source/gd32f1x0_cmp.c ****     if(CMP0 == cmp_periph){
 438              		.loc 1 197 5 view .LVU96
 439 0000 044B     		ldr	r3, .L46
 198:Drivers/GD32F1x0_standard_peripheral/Source/gd32f1x0_cmp.c ****         CMP_CS |= CMP_CS_CMP0LK;
 440              		.loc 1 198 16 is_stmt 0 view .LVU97
 441 0002 DA69     		ldr	r2, [r3, #28]
 197:Drivers/GD32F1x0_standard_peripheral/Source/gd32f1x0_cmp.c ****     if(CMP0 == cmp_periph){
 442              		.loc 1 197 7 view .LVU98
 443 0004 18B9     		cbnz	r0, .L43
 444              		.loc 1 198 9 is_stmt 1 view .LVU99
 445              		.loc 1 198 16 is_stmt 0 view .LVU100
 446 0006 42F40042 		orr	r2, r2, #32768
 447              	.L45:
 199:Drivers/GD32F1x0_standard_peripheral/Source/gd32f1x0_cmp.c ****     }else{
 200:Drivers/GD32F1x0_standard_peripheral/Source/gd32f1x0_cmp.c ****         CMP_CS |= CMP_CS_CMP1LK;
 448              		.loc 1 200 16 view .LVU101
 449 000a DA61     		str	r2, [r3, #28]
 201:Drivers/GD32F1x0_standard_peripheral/Source/gd32f1x0_cmp.c ****     }
 202:Drivers/GD32F1x0_standard_peripheral/Source/gd32f1x0_cmp.c **** }
 450              		.loc 1 202 1 view .LVU102
 451 000c 7047     		bx	lr
 452              	.L43:
 200:Drivers/GD32F1x0_standard_peripheral/Source/gd32f1x0_cmp.c ****     }
 453              		.loc 1 200 9 is_stmt 1 view .LVU103
 200:Drivers/GD32F1x0_standard_peripheral/Source/gd32f1x0_cmp.c ****     }
 454              		.loc 1 200 16 is_stmt 0 view .LVU104
 455 000e 42F00042 		orr	r2, r2, #-2147483648
 456 0012 FAE7     		b	.L45
 457              	.L47:
 458              		.align	2
 459              	.L46:
 460 0014 00000140 		.word	1073807360
 461              		.cfi_endproc
 462              	.LFE65:
 464              		.section	.text.cmp_lock_disable,"ax",%progbits
 465              		.align	1
 466              		.global	cmp_lock_disable
 467              		.syntax unified
 468              		.thumb
 469              		.thumb_func
 470              		.fpu softvfp
ARM GAS  /tmp/ccsF3AUE.s 			page 13


 472              	cmp_lock_disable:
 473              	.LVL21:
 474              	.LFB66:
 203:Drivers/GD32F1x0_standard_peripheral/Source/gd32f1x0_cmp.c **** 
 204:Drivers/GD32F1x0_standard_peripheral/Source/gd32f1x0_cmp.c **** /*!
 205:Drivers/GD32F1x0_standard_peripheral/Source/gd32f1x0_cmp.c ****     \brief      unlock the comparator
 206:Drivers/GD32F1x0_standard_peripheral/Source/gd32f1x0_cmp.c ****     \param[in]  cmp_periph
 207:Drivers/GD32F1x0_standard_peripheral/Source/gd32f1x0_cmp.c ****       \arg        CMP0: comparator 0
 208:Drivers/GD32F1x0_standard_peripheral/Source/gd32f1x0_cmp.c ****       \arg        CMP1: comparator 1
 209:Drivers/GD32F1x0_standard_peripheral/Source/gd32f1x0_cmp.c ****     \param[out] none
 210:Drivers/GD32F1x0_standard_peripheral/Source/gd32f1x0_cmp.c ****     \retval     none
 211:Drivers/GD32F1x0_standard_peripheral/Source/gd32f1x0_cmp.c **** */
 212:Drivers/GD32F1x0_standard_peripheral/Source/gd32f1x0_cmp.c **** void cmp_lock_disable(uint32_t cmp_periph)
 213:Drivers/GD32F1x0_standard_peripheral/Source/gd32f1x0_cmp.c **** {
 475              		.loc 1 213 1 is_stmt 1 view -0
 476              		.cfi_startproc
 477              		@ args = 0, pretend = 0, frame = 0
 478              		@ frame_needed = 0, uses_anonymous_args = 0
 479              		@ link register save eliminated.
 214:Drivers/GD32F1x0_standard_peripheral/Source/gd32f1x0_cmp.c ****     if(CMP0 == cmp_periph){
 480              		.loc 1 214 5 view .LVU106
 481 0000 044B     		ldr	r3, .L52
 215:Drivers/GD32F1x0_standard_peripheral/Source/gd32f1x0_cmp.c ****         CMP_CS &= ~CMP_CS_CMP0LK;
 482              		.loc 1 215 16 is_stmt 0 view .LVU107
 483 0002 DA69     		ldr	r2, [r3, #28]
 214:Drivers/GD32F1x0_standard_peripheral/Source/gd32f1x0_cmp.c ****     if(CMP0 == cmp_periph){
 484              		.loc 1 214 7 view .LVU108
 485 0004 18B9     		cbnz	r0, .L49
 486              		.loc 1 215 9 is_stmt 1 view .LVU109
 487              		.loc 1 215 16 is_stmt 0 view .LVU110
 488 0006 22F40042 		bic	r2, r2, #32768
 489              	.L51:
 216:Drivers/GD32F1x0_standard_peripheral/Source/gd32f1x0_cmp.c ****     }else{
 217:Drivers/GD32F1x0_standard_peripheral/Source/gd32f1x0_cmp.c ****         CMP_CS &= ~CMP_CS_CMP1LK;
 490              		.loc 1 217 16 view .LVU111
 491 000a DA61     		str	r2, [r3, #28]
 218:Drivers/GD32F1x0_standard_peripheral/Source/gd32f1x0_cmp.c ****     }
 219:Drivers/GD32F1x0_standard_peripheral/Source/gd32f1x0_cmp.c **** }
 492              		.loc 1 219 1 view .LVU112
 493 000c 7047     		bx	lr
 494              	.L49:
 217:Drivers/GD32F1x0_standard_peripheral/Source/gd32f1x0_cmp.c ****     }
 495              		.loc 1 217 9 is_stmt 1 view .LVU113
 217:Drivers/GD32F1x0_standard_peripheral/Source/gd32f1x0_cmp.c ****     }
 496              		.loc 1 217 16 is_stmt 0 view .LVU114
 497 000e 22F00042 		bic	r2, r2, #-2147483648
 498 0012 FAE7     		b	.L51
 499              	.L53:
 500              		.align	2
 501              	.L52:
 502 0014 00000140 		.word	1073807360
 503              		.cfi_endproc
 504              	.LFE66:
 506              		.section	.text.cmp_output_level_get,"ax",%progbits
 507              		.align	1
 508              		.global	cmp_output_level_get
 509              		.syntax unified
ARM GAS  /tmp/ccsF3AUE.s 			page 14


 510              		.thumb
 511              		.thumb_func
 512              		.fpu softvfp
 514              	cmp_output_level_get:
 515              	.LVL22:
 516              	.LFB67:
 220:Drivers/GD32F1x0_standard_peripheral/Source/gd32f1x0_cmp.c **** 
 221:Drivers/GD32F1x0_standard_peripheral/Source/gd32f1x0_cmp.c **** /*!
 222:Drivers/GD32F1x0_standard_peripheral/Source/gd32f1x0_cmp.c ****     \brief      get output level
 223:Drivers/GD32F1x0_standard_peripheral/Source/gd32f1x0_cmp.c ****     \param[in]  cmp_periph
 224:Drivers/GD32F1x0_standard_peripheral/Source/gd32f1x0_cmp.c ****       \arg        CMP0: comparator 0
 225:Drivers/GD32F1x0_standard_peripheral/Source/gd32f1x0_cmp.c ****       \arg        CMP1: comparator 1
 226:Drivers/GD32F1x0_standard_peripheral/Source/gd32f1x0_cmp.c ****     \param[out] none
 227:Drivers/GD32F1x0_standard_peripheral/Source/gd32f1x0_cmp.c ****     \retval     the output level
 228:Drivers/GD32F1x0_standard_peripheral/Source/gd32f1x0_cmp.c **** */
 229:Drivers/GD32F1x0_standard_peripheral/Source/gd32f1x0_cmp.c **** uint32_t cmp_output_level_get(uint32_t cmp_periph)
 230:Drivers/GD32F1x0_standard_peripheral/Source/gd32f1x0_cmp.c **** {
 517              		.loc 1 230 1 is_stmt 1 view -0
 518              		.cfi_startproc
 519              		@ args = 0, pretend = 0, frame = 0
 520              		@ frame_needed = 0, uses_anonymous_args = 0
 521              		@ link register save eliminated.
 231:Drivers/GD32F1x0_standard_peripheral/Source/gd32f1x0_cmp.c ****     if(CMP0 == cmp_periph){
 522              		.loc 1 231 5 view .LVU116
 523 0000 044B     		ldr	r3, .L57
 524              		.loc 1 231 7 is_stmt 0 view .LVU117
 525 0002 18B9     		cbnz	r0, .L55
 232:Drivers/GD32F1x0_standard_peripheral/Source/gd32f1x0_cmp.c ****         if(CMP_CS & CMP_CS_CMP0O){
 526              		.loc 1 232 9 is_stmt 1 view .LVU118
 527              		.loc 1 232 12 is_stmt 0 view .LVU119
 528 0004 D869     		ldr	r0, [r3, #28]
 529              	.LVL23:
 530              		.loc 1 232 11 view .LVU120
 531 0006 C0F38030 		ubfx	r0, r0, #14, #1
 532 000a 7047     		bx	lr
 533              	.LVL24:
 534              	.L55:
 233:Drivers/GD32F1x0_standard_peripheral/Source/gd32f1x0_cmp.c ****             return CMP_OUTPUTLEVEL_HIGH;
 234:Drivers/GD32F1x0_standard_peripheral/Source/gd32f1x0_cmp.c ****         }else{
 235:Drivers/GD32F1x0_standard_peripheral/Source/gd32f1x0_cmp.c ****             return CMP_OUTPUTLEVEL_LOW;
 236:Drivers/GD32F1x0_standard_peripheral/Source/gd32f1x0_cmp.c ****         }
 237:Drivers/GD32F1x0_standard_peripheral/Source/gd32f1x0_cmp.c ****     }else{
 238:Drivers/GD32F1x0_standard_peripheral/Source/gd32f1x0_cmp.c ****         if(CMP_CS & CMP_CS_CMP1O){
 535              		.loc 1 238 9 is_stmt 1 view .LVU121
 536              		.loc 1 238 12 is_stmt 0 view .LVU122
 537 000c D869     		ldr	r0, [r3, #28]
 538              	.LVL25:
 539              		.loc 1 238 11 view .LVU123
 540 000e C0F38070 		ubfx	r0, r0, #30, #1
 239:Drivers/GD32F1x0_standard_peripheral/Source/gd32f1x0_cmp.c ****             return CMP_OUTPUTLEVEL_HIGH;
 240:Drivers/GD32F1x0_standard_peripheral/Source/gd32f1x0_cmp.c ****         }else{
 241:Drivers/GD32F1x0_standard_peripheral/Source/gd32f1x0_cmp.c ****             return CMP_OUTPUTLEVEL_LOW;
 242:Drivers/GD32F1x0_standard_peripheral/Source/gd32f1x0_cmp.c ****         }
 243:Drivers/GD32F1x0_standard_peripheral/Source/gd32f1x0_cmp.c ****     }
 244:Drivers/GD32F1x0_standard_peripheral/Source/gd32f1x0_cmp.c **** }
 541              		.loc 1 244 1 view .LVU124
 542 0012 7047     		bx	lr
ARM GAS  /tmp/ccsF3AUE.s 			page 15


 543              	.L58:
 544              		.align	2
 545              	.L57:
 546 0014 00000140 		.word	1073807360
 547              		.cfi_endproc
 548              	.LFE67:
 550              		.text
 551              	.Letext0:
 552              		.file 2 "/usr/lib/gcc/arm-none-eabi/10.3.1/include/stdint.h"
 553              		.file 3 "Drivers/GD32F1x0_standard_peripheral/Include/gd32f1x0_cmp.h"
ARM GAS  /tmp/ccsF3AUE.s 			page 16

