ARM GAS  /tmp/cczyuVXH.s 			page 1


   1              		.cpu cortex-m3
   2              		.eabi_attribute 20, 1
   3              		.eabi_attribute 21, 1
   4              		.eabi_attribute 23, 3
   5              		.eabi_attribute 24, 1
   6              		.eabi_attribute 25, 1
   7              		.eabi_attribute 26, 1
   8              		.eabi_attribute 30, 4
   9              		.eabi_attribute 34, 1
  10              		.eabi_attribute 18, 4
  11              		.file	"gd32f1x0_adc.c"
  12              		.text
  13              	.Ltext0:
  14              		.cfi_sections	.debug_frame
  15              		.section	.text.adc_deinit,"ax",%progbits
  16              		.align	1
  17              		.global	adc_deinit
  18              		.arch armv7-m
  19              		.syntax unified
  20              		.thumb
  21              		.thumb_func
  22              		.fpu softvfp
  24              	adc_deinit:
  25              	.LFB56:
  26              		.file 1 "Drivers/GD32F1x0_standard_peripheral/Source/gd32f1x0_adc.c"
   1:Drivers/GD32F1x0_standard_peripheral/Source/gd32f1x0_adc.c **** /*!
   2:Drivers/GD32F1x0_standard_peripheral/Source/gd32f1x0_adc.c ****     \file  gd32f1x0_adc.c
   3:Drivers/GD32F1x0_standard_peripheral/Source/gd32f1x0_adc.c ****     \brief ADC driver
   4:Drivers/GD32F1x0_standard_peripheral/Source/gd32f1x0_adc.c **** */
   5:Drivers/GD32F1x0_standard_peripheral/Source/gd32f1x0_adc.c **** 
   6:Drivers/GD32F1x0_standard_peripheral/Source/gd32f1x0_adc.c **** /*
   7:Drivers/GD32F1x0_standard_peripheral/Source/gd32f1x0_adc.c ****     Copyright (C) 2017 GigaDevice
   8:Drivers/GD32F1x0_standard_peripheral/Source/gd32f1x0_adc.c **** 
   9:Drivers/GD32F1x0_standard_peripheral/Source/gd32f1x0_adc.c ****     2014-12-26, V1.0.0, platform GD32F1x0(x=3,5)
  10:Drivers/GD32F1x0_standard_peripheral/Source/gd32f1x0_adc.c ****     2016-01-15, V2.0.0, platform GD32F1x0(x=3,5,7,9)
  11:Drivers/GD32F1x0_standard_peripheral/Source/gd32f1x0_adc.c ****     2016-04-30, V3.0.0, firmware update for GD32F1x0(x=3,5,7,9)
  12:Drivers/GD32F1x0_standard_peripheral/Source/gd32f1x0_adc.c ****     2017-06-19, V3.1.0, firmware update for GD32F1x0(x=3,5,7,9)
  13:Drivers/GD32F1x0_standard_peripheral/Source/gd32f1x0_adc.c **** */
  14:Drivers/GD32F1x0_standard_peripheral/Source/gd32f1x0_adc.c **** 
  15:Drivers/GD32F1x0_standard_peripheral/Source/gd32f1x0_adc.c **** #include "gd32f1x0_adc.h"
  16:Drivers/GD32F1x0_standard_peripheral/Source/gd32f1x0_adc.c **** 
  17:Drivers/GD32F1x0_standard_peripheral/Source/gd32f1x0_adc.c **** /*!
  18:Drivers/GD32F1x0_standard_peripheral/Source/gd32f1x0_adc.c ****     \brief      ADC reset
  19:Drivers/GD32F1x0_standard_peripheral/Source/gd32f1x0_adc.c ****     \param[in]  none
  20:Drivers/GD32F1x0_standard_peripheral/Source/gd32f1x0_adc.c ****     \param[out] none
  21:Drivers/GD32F1x0_standard_peripheral/Source/gd32f1x0_adc.c ****     \retval     none
  22:Drivers/GD32F1x0_standard_peripheral/Source/gd32f1x0_adc.c **** */
  23:Drivers/GD32F1x0_standard_peripheral/Source/gd32f1x0_adc.c **** void adc_deinit(void)
  24:Drivers/GD32F1x0_standard_peripheral/Source/gd32f1x0_adc.c **** {
  27              		.loc 1 24 1 view -0
  28              		.cfi_startproc
  29              		@ args = 0, pretend = 0, frame = 0
  30              		@ frame_needed = 0, uses_anonymous_args = 0
  25:Drivers/GD32F1x0_standard_peripheral/Source/gd32f1x0_adc.c ****     rcu_periph_reset_enable(RCU_ADCRST);
  31              		.loc 1 25 5 view .LVU1
  24:Drivers/GD32F1x0_standard_peripheral/Source/gd32f1x0_adc.c ****     rcu_periph_reset_enable(RCU_ADCRST);
  32              		.loc 1 24 1 is_stmt 0 view .LVU2
ARM GAS  /tmp/cczyuVXH.s 			page 2


  33 0000 08B5     		push	{r3, lr}
  34              	.LCFI0:
  35              		.cfi_def_cfa_offset 8
  36              		.cfi_offset 3, -8
  37              		.cfi_offset 14, -4
  38              		.loc 1 25 5 view .LVU3
  39 0002 40F20930 		movw	r0, #777
  40 0006 FFF7FEFF 		bl	rcu_periph_reset_enable
  41              	.LVL0:
  26:Drivers/GD32F1x0_standard_peripheral/Source/gd32f1x0_adc.c ****     rcu_periph_reset_disable(RCU_ADCRST);
  42              		.loc 1 26 5 is_stmt 1 view .LVU4
  27:Drivers/GD32F1x0_standard_peripheral/Source/gd32f1x0_adc.c **** }
  43              		.loc 1 27 1 is_stmt 0 view .LVU5
  44 000a BDE80840 		pop	{r3, lr}
  45              	.LCFI1:
  46              		.cfi_restore 14
  47              		.cfi_restore 3
  48              		.cfi_def_cfa_offset 0
  26:Drivers/GD32F1x0_standard_peripheral/Source/gd32f1x0_adc.c ****     rcu_periph_reset_disable(RCU_ADCRST);
  49              		.loc 1 26 5 view .LVU6
  50 000e 40F20930 		movw	r0, #777
  51 0012 FFF7FEBF 		b	rcu_periph_reset_disable
  52              	.LVL1:
  53              		.cfi_endproc
  54              	.LFE56:
  56              		.section	.text.adc_enable,"ax",%progbits
  57              		.align	1
  58              		.global	adc_enable
  59              		.syntax unified
  60              		.thumb
  61              		.thumb_func
  62              		.fpu softvfp
  64              	adc_enable:
  65              	.LFB57:
  28:Drivers/GD32F1x0_standard_peripheral/Source/gd32f1x0_adc.c **** 
  29:Drivers/GD32F1x0_standard_peripheral/Source/gd32f1x0_adc.c **** /*!
  30:Drivers/GD32F1x0_standard_peripheral/Source/gd32f1x0_adc.c ****     \brief      enable ADC interface
  31:Drivers/GD32F1x0_standard_peripheral/Source/gd32f1x0_adc.c ****     \param[in]  none
  32:Drivers/GD32F1x0_standard_peripheral/Source/gd32f1x0_adc.c ****     \param[out] none
  33:Drivers/GD32F1x0_standard_peripheral/Source/gd32f1x0_adc.c ****     \retval     none
  34:Drivers/GD32F1x0_standard_peripheral/Source/gd32f1x0_adc.c **** */
  35:Drivers/GD32F1x0_standard_peripheral/Source/gd32f1x0_adc.c **** void adc_enable(void)
  36:Drivers/GD32F1x0_standard_peripheral/Source/gd32f1x0_adc.c **** {
  66              		.loc 1 36 1 is_stmt 1 view -0
  67              		.cfi_startproc
  68              		@ args = 0, pretend = 0, frame = 0
  69              		@ frame_needed = 0, uses_anonymous_args = 0
  70              		@ link register save eliminated.
  37:Drivers/GD32F1x0_standard_peripheral/Source/gd32f1x0_adc.c ****     if(RESET == (ADC_CTL1 & ADC_CTL1_ADCON)){
  71              		.loc 1 37 5 view .LVU8
  72              		.loc 1 37 18 is_stmt 0 view .LVU9
  73 0000 054B     		ldr	r3, .L4
  74 0002 D3F80824 		ldr	r2, [r3, #1032]
  75              		.loc 1 37 7 view .LVU10
  76 0006 D207     		lsls	r2, r2, #31
  38:Drivers/GD32F1x0_standard_peripheral/Source/gd32f1x0_adc.c ****         ADC_CTL1 |= (uint32_t)ADC_CTL1_ADCON;
  77              		.loc 1 38 9 is_stmt 1 view .LVU11
ARM GAS  /tmp/cczyuVXH.s 			page 3


  78              		.loc 1 38 18 is_stmt 0 view .LVU12
  79 0008 5EBF     		ittt	pl
  80 000a D3F80824 		ldrpl	r2, [r3, #1032]
  81 000e 42F00102 		orrpl	r2, r2, #1
  82 0012 C3F80824 		strpl	r2, [r3, #1032]
  39:Drivers/GD32F1x0_standard_peripheral/Source/gd32f1x0_adc.c ****     }
  40:Drivers/GD32F1x0_standard_peripheral/Source/gd32f1x0_adc.c **** }
  83              		.loc 1 40 1 view .LVU13
  84 0016 7047     		bx	lr
  85              	.L5:
  86              		.align	2
  87              	.L4:
  88 0018 00200140 		.word	1073815552
  89              		.cfi_endproc
  90              	.LFE57:
  92              		.section	.text.adc_disable,"ax",%progbits
  93              		.align	1
  94              		.global	adc_disable
  95              		.syntax unified
  96              		.thumb
  97              		.thumb_func
  98              		.fpu softvfp
 100              	adc_disable:
 101              	.LFB58:
  41:Drivers/GD32F1x0_standard_peripheral/Source/gd32f1x0_adc.c **** 
  42:Drivers/GD32F1x0_standard_peripheral/Source/gd32f1x0_adc.c **** /*!
  43:Drivers/GD32F1x0_standard_peripheral/Source/gd32f1x0_adc.c ****     \brief      disable ADC interface
  44:Drivers/GD32F1x0_standard_peripheral/Source/gd32f1x0_adc.c ****     \param[in]  none
  45:Drivers/GD32F1x0_standard_peripheral/Source/gd32f1x0_adc.c ****     \param[out] none
  46:Drivers/GD32F1x0_standard_peripheral/Source/gd32f1x0_adc.c ****     \retval     none
  47:Drivers/GD32F1x0_standard_peripheral/Source/gd32f1x0_adc.c **** */
  48:Drivers/GD32F1x0_standard_peripheral/Source/gd32f1x0_adc.c **** void adc_disable(void)
  49:Drivers/GD32F1x0_standard_peripheral/Source/gd32f1x0_adc.c **** {
 102              		.loc 1 49 1 is_stmt 1 view -0
 103              		.cfi_startproc
 104              		@ args = 0, pretend = 0, frame = 0
 105              		@ frame_needed = 0, uses_anonymous_args = 0
 106              		@ link register save eliminated.
  50:Drivers/GD32F1x0_standard_peripheral/Source/gd32f1x0_adc.c ****     ADC_CTL1 &= (uint32_t)~(ADC_CTL1_ADCON);
 107              		.loc 1 50 5 view .LVU15
 108              		.loc 1 50 14 is_stmt 0 view .LVU16
 109 0000 034A     		ldr	r2, .L7
 110 0002 D2F80834 		ldr	r3, [r2, #1032]
 111 0006 23F00103 		bic	r3, r3, #1
 112 000a C2F80834 		str	r3, [r2, #1032]
  51:Drivers/GD32F1x0_standard_peripheral/Source/gd32f1x0_adc.c **** }
 113              		.loc 1 51 1 view .LVU17
 114 000e 7047     		bx	lr
 115              	.L8:
 116              		.align	2
 117              	.L7:
 118 0010 00200140 		.word	1073815552
 119              		.cfi_endproc
 120              	.LFE58:
 122              		.section	.text.adc_calibration_enable,"ax",%progbits
 123              		.align	1
 124              		.global	adc_calibration_enable
ARM GAS  /tmp/cczyuVXH.s 			page 4


 125              		.syntax unified
 126              		.thumb
 127              		.thumb_func
 128              		.fpu softvfp
 130              	adc_calibration_enable:
 131              	.LFB59:
  52:Drivers/GD32F1x0_standard_peripheral/Source/gd32f1x0_adc.c **** 
  53:Drivers/GD32F1x0_standard_peripheral/Source/gd32f1x0_adc.c **** /*!
  54:Drivers/GD32F1x0_standard_peripheral/Source/gd32f1x0_adc.c ****     \brief      ADC calibration and reset calibration
  55:Drivers/GD32F1x0_standard_peripheral/Source/gd32f1x0_adc.c ****     \param[in]  none
  56:Drivers/GD32F1x0_standard_peripheral/Source/gd32f1x0_adc.c ****     \param[out] none
  57:Drivers/GD32F1x0_standard_peripheral/Source/gd32f1x0_adc.c ****     \retval     none
  58:Drivers/GD32F1x0_standard_peripheral/Source/gd32f1x0_adc.c **** */
  59:Drivers/GD32F1x0_standard_peripheral/Source/gd32f1x0_adc.c **** void adc_calibration_enable(void)
  60:Drivers/GD32F1x0_standard_peripheral/Source/gd32f1x0_adc.c **** {
 132              		.loc 1 60 1 is_stmt 1 view -0
 133              		.cfi_startproc
 134              		@ args = 0, pretend = 0, frame = 0
 135              		@ frame_needed = 0, uses_anonymous_args = 0
 136              		@ link register save eliminated.
  61:Drivers/GD32F1x0_standard_peripheral/Source/gd32f1x0_adc.c ****     /* reset the selected ADC1 calibration registers */
  62:Drivers/GD32F1x0_standard_peripheral/Source/gd32f1x0_adc.c ****     ADC_CTL1 |= (uint32_t) ADC_CTL1_RSTCLB;
 137              		.loc 1 62 5 view .LVU19
 138              		.loc 1 62 14 is_stmt 0 view .LVU20
 139 0000 0A4B     		ldr	r3, .L14
 140 0002 D3F80824 		ldr	r2, [r3, #1032]
 141 0006 42F00802 		orr	r2, r2, #8
 142 000a C3F80824 		str	r2, [r3, #1032]
  63:Drivers/GD32F1x0_standard_peripheral/Source/gd32f1x0_adc.c ****     /* check the RSTCLB bit state */
  64:Drivers/GD32F1x0_standard_peripheral/Source/gd32f1x0_adc.c ****     while((ADC_CTL1 & ADC_CTL1_RSTCLB)){
 143              		.loc 1 64 5 is_stmt 1 view .LVU21
 144              	.L10:
  65:Drivers/GD32F1x0_standard_peripheral/Source/gd32f1x0_adc.c ****     }
 145              		.loc 1 65 5 discriminator 1 view .LVU22
  64:Drivers/GD32F1x0_standard_peripheral/Source/gd32f1x0_adc.c ****     }
 146              		.loc 1 64 10 discriminator 1 view .LVU23
  64:Drivers/GD32F1x0_standard_peripheral/Source/gd32f1x0_adc.c ****     }
 147              		.loc 1 64 12 is_stmt 0 discriminator 1 view .LVU24
 148 000e D3F80824 		ldr	r2, [r3, #1032]
  64:Drivers/GD32F1x0_standard_peripheral/Source/gd32f1x0_adc.c ****     }
 149              		.loc 1 64 10 discriminator 1 view .LVU25
 150 0012 1107     		lsls	r1, r2, #28
 151 0014 FBD4     		bmi	.L10
  66:Drivers/GD32F1x0_standard_peripheral/Source/gd32f1x0_adc.c ****     /* enable ADC calibration process */
  67:Drivers/GD32F1x0_standard_peripheral/Source/gd32f1x0_adc.c ****     ADC_CTL1 |= ADC_CTL1_CLB;
 152              		.loc 1 67 5 is_stmt 1 view .LVU26
 153              		.loc 1 67 14 is_stmt 0 view .LVU27
 154 0016 D3F80824 		ldr	r2, [r3, #1032]
 155 001a 42F00402 		orr	r2, r2, #4
 156 001e C3F80824 		str	r2, [r3, #1032]
  68:Drivers/GD32F1x0_standard_peripheral/Source/gd32f1x0_adc.c ****     /* check the CLB bit state */
  69:Drivers/GD32F1x0_standard_peripheral/Source/gd32f1x0_adc.c ****     while((ADC_CTL1 & ADC_CTL1_CLB)){
 157              		.loc 1 69 5 is_stmt 1 view .LVU28
 158              	.L11:
  70:Drivers/GD32F1x0_standard_peripheral/Source/gd32f1x0_adc.c ****     }
 159              		.loc 1 70 5 discriminator 1 view .LVU29
  69:Drivers/GD32F1x0_standard_peripheral/Source/gd32f1x0_adc.c ****     }
ARM GAS  /tmp/cczyuVXH.s 			page 5


 160              		.loc 1 69 10 discriminator 1 view .LVU30
  69:Drivers/GD32F1x0_standard_peripheral/Source/gd32f1x0_adc.c ****     }
 161              		.loc 1 69 12 is_stmt 0 discriminator 1 view .LVU31
 162 0022 D3F80824 		ldr	r2, [r3, #1032]
  69:Drivers/GD32F1x0_standard_peripheral/Source/gd32f1x0_adc.c ****     }
 163              		.loc 1 69 10 discriminator 1 view .LVU32
 164 0026 5207     		lsls	r2, r2, #29
 165 0028 FBD4     		bmi	.L11
  71:Drivers/GD32F1x0_standard_peripheral/Source/gd32f1x0_adc.c **** }
 166              		.loc 1 71 1 view .LVU33
 167 002a 7047     		bx	lr
 168              	.L15:
 169              		.align	2
 170              	.L14:
 171 002c 00200140 		.word	1073815552
 172              		.cfi_endproc
 173              	.LFE59:
 175              		.section	.text.adc_dma_mode_enable,"ax",%progbits
 176              		.align	1
 177              		.global	adc_dma_mode_enable
 178              		.syntax unified
 179              		.thumb
 180              		.thumb_func
 181              		.fpu softvfp
 183              	adc_dma_mode_enable:
 184              	.LFB60:
  72:Drivers/GD32F1x0_standard_peripheral/Source/gd32f1x0_adc.c **** 
  73:Drivers/GD32F1x0_standard_peripheral/Source/gd32f1x0_adc.c **** /*!
  74:Drivers/GD32F1x0_standard_peripheral/Source/gd32f1x0_adc.c ****     \brief      enable DMA request 
  75:Drivers/GD32F1x0_standard_peripheral/Source/gd32f1x0_adc.c ****     \param[in]  none
  76:Drivers/GD32F1x0_standard_peripheral/Source/gd32f1x0_adc.c ****     \param[out] none
  77:Drivers/GD32F1x0_standard_peripheral/Source/gd32f1x0_adc.c ****     \retval     none
  78:Drivers/GD32F1x0_standard_peripheral/Source/gd32f1x0_adc.c **** */
  79:Drivers/GD32F1x0_standard_peripheral/Source/gd32f1x0_adc.c **** void adc_dma_mode_enable(void)
  80:Drivers/GD32F1x0_standard_peripheral/Source/gd32f1x0_adc.c **** {
 185              		.loc 1 80 1 is_stmt 1 view -0
 186              		.cfi_startproc
 187              		@ args = 0, pretend = 0, frame = 0
 188              		@ frame_needed = 0, uses_anonymous_args = 0
 189              		@ link register save eliminated.
  81:Drivers/GD32F1x0_standard_peripheral/Source/gd32f1x0_adc.c ****     ADC_CTL1 |= (uint32_t)(ADC_CTL1_DMA);
 190              		.loc 1 81 5 view .LVU35
 191              		.loc 1 81 14 is_stmt 0 view .LVU36
 192 0000 034A     		ldr	r2, .L17
 193 0002 D2F80834 		ldr	r3, [r2, #1032]
 194 0006 43F48073 		orr	r3, r3, #256
 195 000a C2F80834 		str	r3, [r2, #1032]
  82:Drivers/GD32F1x0_standard_peripheral/Source/gd32f1x0_adc.c **** }
 196              		.loc 1 82 1 view .LVU37
 197 000e 7047     		bx	lr
 198              	.L18:
 199              		.align	2
 200              	.L17:
 201 0010 00200140 		.word	1073815552
 202              		.cfi_endproc
 203              	.LFE60:
 205              		.section	.text.adc_dma_mode_disable,"ax",%progbits
ARM GAS  /tmp/cczyuVXH.s 			page 6


 206              		.align	1
 207              		.global	adc_dma_mode_disable
 208              		.syntax unified
 209              		.thumb
 210              		.thumb_func
 211              		.fpu softvfp
 213              	adc_dma_mode_disable:
 214              	.LFB61:
  83:Drivers/GD32F1x0_standard_peripheral/Source/gd32f1x0_adc.c **** 
  84:Drivers/GD32F1x0_standard_peripheral/Source/gd32f1x0_adc.c **** /*!
  85:Drivers/GD32F1x0_standard_peripheral/Source/gd32f1x0_adc.c ****     \brief      disable DMA request 
  86:Drivers/GD32F1x0_standard_peripheral/Source/gd32f1x0_adc.c ****     \param[in]  none
  87:Drivers/GD32F1x0_standard_peripheral/Source/gd32f1x0_adc.c ****     \param[out] none
  88:Drivers/GD32F1x0_standard_peripheral/Source/gd32f1x0_adc.c ****     \retval     none
  89:Drivers/GD32F1x0_standard_peripheral/Source/gd32f1x0_adc.c **** */
  90:Drivers/GD32F1x0_standard_peripheral/Source/gd32f1x0_adc.c **** void adc_dma_mode_disable(void)
  91:Drivers/GD32F1x0_standard_peripheral/Source/gd32f1x0_adc.c **** {
 215              		.loc 1 91 1 is_stmt 1 view -0
 216              		.cfi_startproc
 217              		@ args = 0, pretend = 0, frame = 0
 218              		@ frame_needed = 0, uses_anonymous_args = 0
 219              		@ link register save eliminated.
  92:Drivers/GD32F1x0_standard_peripheral/Source/gd32f1x0_adc.c ****     ADC_CTL1 &= ~((uint32_t)ADC_CTL1_DMA);
 220              		.loc 1 92 5 view .LVU39
 221              		.loc 1 92 14 is_stmt 0 view .LVU40
 222 0000 034A     		ldr	r2, .L20
 223 0002 D2F80834 		ldr	r3, [r2, #1032]
 224 0006 23F48073 		bic	r3, r3, #256
 225 000a C2F80834 		str	r3, [r2, #1032]
  93:Drivers/GD32F1x0_standard_peripheral/Source/gd32f1x0_adc.c **** }
 226              		.loc 1 93 1 view .LVU41
 227 000e 7047     		bx	lr
 228              	.L21:
 229              		.align	2
 230              	.L20:
 231 0010 00200140 		.word	1073815552
 232              		.cfi_endproc
 233              	.LFE61:
 235              		.section	.text.adc_tempsensor_vrefint_enable,"ax",%progbits
 236              		.align	1
 237              		.global	adc_tempsensor_vrefint_enable
 238              		.syntax unified
 239              		.thumb
 240              		.thumb_func
 241              		.fpu softvfp
 243              	adc_tempsensor_vrefint_enable:
 244              	.LFB62:
  94:Drivers/GD32F1x0_standard_peripheral/Source/gd32f1x0_adc.c **** 
  95:Drivers/GD32F1x0_standard_peripheral/Source/gd32f1x0_adc.c **** /*!
  96:Drivers/GD32F1x0_standard_peripheral/Source/gd32f1x0_adc.c ****     \brief      enable ADC0 temperature sensor and Vrefint channel
  97:Drivers/GD32F1x0_standard_peripheral/Source/gd32f1x0_adc.c ****     \param[in]  none
  98:Drivers/GD32F1x0_standard_peripheral/Source/gd32f1x0_adc.c ****     \param[out] none
  99:Drivers/GD32F1x0_standard_peripheral/Source/gd32f1x0_adc.c ****     \retval     none
 100:Drivers/GD32F1x0_standard_peripheral/Source/gd32f1x0_adc.c **** */
 101:Drivers/GD32F1x0_standard_peripheral/Source/gd32f1x0_adc.c **** void adc_tempsensor_vrefint_enable(void)
 102:Drivers/GD32F1x0_standard_peripheral/Source/gd32f1x0_adc.c **** {
 245              		.loc 1 102 1 is_stmt 1 view -0
ARM GAS  /tmp/cczyuVXH.s 			page 7


 246              		.cfi_startproc
 247              		@ args = 0, pretend = 0, frame = 0
 248              		@ frame_needed = 0, uses_anonymous_args = 0
 249              		@ link register save eliminated.
 103:Drivers/GD32F1x0_standard_peripheral/Source/gd32f1x0_adc.c ****     /* enable the temperature sensor and Vrefint channel */
 104:Drivers/GD32F1x0_standard_peripheral/Source/gd32f1x0_adc.c ****     ADC_CTL1 |= ADC_CTL1_TSVREN;
 250              		.loc 1 104 5 view .LVU43
 251              		.loc 1 104 14 is_stmt 0 view .LVU44
 252 0000 034A     		ldr	r2, .L23
 253 0002 D2F80834 		ldr	r3, [r2, #1032]
 254 0006 43F40003 		orr	r3, r3, #8388608
 255 000a C2F80834 		str	r3, [r2, #1032]
 105:Drivers/GD32F1x0_standard_peripheral/Source/gd32f1x0_adc.c **** }
 256              		.loc 1 105 1 view .LVU45
 257 000e 7047     		bx	lr
 258              	.L24:
 259              		.align	2
 260              	.L23:
 261 0010 00200140 		.word	1073815552
 262              		.cfi_endproc
 263              	.LFE62:
 265              		.section	.text.adc_tempsensor_vrefint_disable,"ax",%progbits
 266              		.align	1
 267              		.global	adc_tempsensor_vrefint_disable
 268              		.syntax unified
 269              		.thumb
 270              		.thumb_func
 271              		.fpu softvfp
 273              	adc_tempsensor_vrefint_disable:
 274              	.LFB63:
 106:Drivers/GD32F1x0_standard_peripheral/Source/gd32f1x0_adc.c **** 
 107:Drivers/GD32F1x0_standard_peripheral/Source/gd32f1x0_adc.c **** /*!
 108:Drivers/GD32F1x0_standard_peripheral/Source/gd32f1x0_adc.c ****     \brief      disable ADC0 temperature sensor and Vrefint channel
 109:Drivers/GD32F1x0_standard_peripheral/Source/gd32f1x0_adc.c ****     \param[in]  none
 110:Drivers/GD32F1x0_standard_peripheral/Source/gd32f1x0_adc.c ****     \param[out] none
 111:Drivers/GD32F1x0_standard_peripheral/Source/gd32f1x0_adc.c ****     \retval     none
 112:Drivers/GD32F1x0_standard_peripheral/Source/gd32f1x0_adc.c **** */
 113:Drivers/GD32F1x0_standard_peripheral/Source/gd32f1x0_adc.c **** void adc_tempsensor_vrefint_disable(void)
 114:Drivers/GD32F1x0_standard_peripheral/Source/gd32f1x0_adc.c **** {
 275              		.loc 1 114 1 is_stmt 1 view -0
 276              		.cfi_startproc
 277              		@ args = 0, pretend = 0, frame = 0
 278              		@ frame_needed = 0, uses_anonymous_args = 0
 279              		@ link register save eliminated.
 115:Drivers/GD32F1x0_standard_peripheral/Source/gd32f1x0_adc.c ****     /* disable the temperature sensor and Vrefint channel */
 116:Drivers/GD32F1x0_standard_peripheral/Source/gd32f1x0_adc.c ****     ADC_CTL1 &= ~ADC_CTL1_TSVREN;
 280              		.loc 1 116 5 view .LVU47
 281              		.loc 1 116 14 is_stmt 0 view .LVU48
 282 0000 034A     		ldr	r2, .L26
 283 0002 D2F80834 		ldr	r3, [r2, #1032]
 284 0006 23F40003 		bic	r3, r3, #8388608
 285 000a C2F80834 		str	r3, [r2, #1032]
 117:Drivers/GD32F1x0_standard_peripheral/Source/gd32f1x0_adc.c **** }
 286              		.loc 1 117 1 view .LVU49
 287 000e 7047     		bx	lr
 288              	.L27:
 289              		.align	2
ARM GAS  /tmp/cczyuVXH.s 			page 8


 290              	.L26:
 291 0010 00200140 		.word	1073815552
 292              		.cfi_endproc
 293              	.LFE63:
 295              		.section	.text.adc_vbat_enable,"ax",%progbits
 296              		.align	1
 297              		.global	adc_vbat_enable
 298              		.syntax unified
 299              		.thumb
 300              		.thumb_func
 301              		.fpu softvfp
 303              	adc_vbat_enable:
 304              	.LFB64:
 118:Drivers/GD32F1x0_standard_peripheral/Source/gd32f1x0_adc.c **** 
 119:Drivers/GD32F1x0_standard_peripheral/Source/gd32f1x0_adc.c **** /*!
 120:Drivers/GD32F1x0_standard_peripheral/Source/gd32f1x0_adc.c ****     \brief      enable the vbat channel
 121:Drivers/GD32F1x0_standard_peripheral/Source/gd32f1x0_adc.c ****     \param[in]  none
 122:Drivers/GD32F1x0_standard_peripheral/Source/gd32f1x0_adc.c ****     \param[out] none
 123:Drivers/GD32F1x0_standard_peripheral/Source/gd32f1x0_adc.c ****     \retval     none
 124:Drivers/GD32F1x0_standard_peripheral/Source/gd32f1x0_adc.c **** */
 125:Drivers/GD32F1x0_standard_peripheral/Source/gd32f1x0_adc.c **** void adc_vbat_enable(void)
 126:Drivers/GD32F1x0_standard_peripheral/Source/gd32f1x0_adc.c **** {
 305              		.loc 1 126 1 is_stmt 1 view -0
 306              		.cfi_startproc
 307              		@ args = 0, pretend = 0, frame = 0
 308              		@ frame_needed = 0, uses_anonymous_args = 0
 309              		@ link register save eliminated.
 127:Drivers/GD32F1x0_standard_peripheral/Source/gd32f1x0_adc.c ****     /* enable the vbat channel */
 128:Drivers/GD32F1x0_standard_peripheral/Source/gd32f1x0_adc.c ****     ADC_CTL1 |= ADC_CTL1_VBETEN;
 310              		.loc 1 128 5 view .LVU51
 311              		.loc 1 128 14 is_stmt 0 view .LVU52
 312 0000 034A     		ldr	r2, .L29
 313 0002 D2F80834 		ldr	r3, [r2, #1032]
 314 0006 43F08073 		orr	r3, r3, #16777216
 315 000a C2F80834 		str	r3, [r2, #1032]
 129:Drivers/GD32F1x0_standard_peripheral/Source/gd32f1x0_adc.c **** }
 316              		.loc 1 129 1 view .LVU53
 317 000e 7047     		bx	lr
 318              	.L30:
 319              		.align	2
 320              	.L29:
 321 0010 00200140 		.word	1073815552
 322              		.cfi_endproc
 323              	.LFE64:
 325              		.section	.text.adc_vbat_disable,"ax",%progbits
 326              		.align	1
 327              		.global	adc_vbat_disable
 328              		.syntax unified
 329              		.thumb
 330              		.thumb_func
 331              		.fpu softvfp
 333              	adc_vbat_disable:
 334              	.LFB65:
 130:Drivers/GD32F1x0_standard_peripheral/Source/gd32f1x0_adc.c **** 
 131:Drivers/GD32F1x0_standard_peripheral/Source/gd32f1x0_adc.c **** /*!
 132:Drivers/GD32F1x0_standard_peripheral/Source/gd32f1x0_adc.c ****     \brief      disable the vbat channel
 133:Drivers/GD32F1x0_standard_peripheral/Source/gd32f1x0_adc.c ****     \param[in]  none
ARM GAS  /tmp/cczyuVXH.s 			page 9


 134:Drivers/GD32F1x0_standard_peripheral/Source/gd32f1x0_adc.c ****     \param[out] none
 135:Drivers/GD32F1x0_standard_peripheral/Source/gd32f1x0_adc.c ****     \retval     none
 136:Drivers/GD32F1x0_standard_peripheral/Source/gd32f1x0_adc.c **** */
 137:Drivers/GD32F1x0_standard_peripheral/Source/gd32f1x0_adc.c **** void adc_vbat_disable(void)
 138:Drivers/GD32F1x0_standard_peripheral/Source/gd32f1x0_adc.c **** {
 335              		.loc 1 138 1 is_stmt 1 view -0
 336              		.cfi_startproc
 337              		@ args = 0, pretend = 0, frame = 0
 338              		@ frame_needed = 0, uses_anonymous_args = 0
 339              		@ link register save eliminated.
 139:Drivers/GD32F1x0_standard_peripheral/Source/gd32f1x0_adc.c ****     /* disable the vbat channel */
 140:Drivers/GD32F1x0_standard_peripheral/Source/gd32f1x0_adc.c ****     ADC_CTL1 &= ~ADC_CTL1_VBETEN;
 340              		.loc 1 140 5 view .LVU55
 341              		.loc 1 140 14 is_stmt 0 view .LVU56
 342 0000 034A     		ldr	r2, .L32
 343 0002 D2F80834 		ldr	r3, [r2, #1032]
 344 0006 23F08073 		bic	r3, r3, #16777216
 345 000a C2F80834 		str	r3, [r2, #1032]
 141:Drivers/GD32F1x0_standard_peripheral/Source/gd32f1x0_adc.c **** }
 346              		.loc 1 141 1 view .LVU57
 347 000e 7047     		bx	lr
 348              	.L33:
 349              		.align	2
 350              	.L32:
 351 0010 00200140 		.word	1073815552
 352              		.cfi_endproc
 353              	.LFE65:
 355              		.section	.text.adc_discontinuous_mode_config,"ax",%progbits
 356              		.align	1
 357              		.global	adc_discontinuous_mode_config
 358              		.syntax unified
 359              		.thumb
 360              		.thumb_func
 361              		.fpu softvfp
 363              	adc_discontinuous_mode_config:
 364              	.LVL2:
 365              	.LFB66:
 142:Drivers/GD32F1x0_standard_peripheral/Source/gd32f1x0_adc.c **** 
 143:Drivers/GD32F1x0_standard_peripheral/Source/gd32f1x0_adc.c **** /*!
 144:Drivers/GD32F1x0_standard_peripheral/Source/gd32f1x0_adc.c ****     \brief      adc discontinuous mode config
 145:Drivers/GD32F1x0_standard_peripheral/Source/gd32f1x0_adc.c ****     \param[in]  channel_group: select the channel group
 146:Drivers/GD32F1x0_standard_peripheral/Source/gd32f1x0_adc.c ****       \arg        ADC_REGULAR_CHANNEL: regular channel group
 147:Drivers/GD32F1x0_standard_peripheral/Source/gd32f1x0_adc.c ****       \arg        ADC_INSERTED_CHANNEL: inserted channel group
 148:Drivers/GD32F1x0_standard_peripheral/Source/gd32f1x0_adc.c ****     \param[in]  length: number of conversions in discontinuous mode,the number can be 1..8
 149:Drivers/GD32F1x0_standard_peripheral/Source/gd32f1x0_adc.c ****                         for regular channel ,the number is insignificant for inserted channel
 150:Drivers/GD32F1x0_standard_peripheral/Source/gd32f1x0_adc.c ****     \param[out] none
 151:Drivers/GD32F1x0_standard_peripheral/Source/gd32f1x0_adc.c ****     \retval     none
 152:Drivers/GD32F1x0_standard_peripheral/Source/gd32f1x0_adc.c **** */
 153:Drivers/GD32F1x0_standard_peripheral/Source/gd32f1x0_adc.c **** void adc_discontinuous_mode_config(uint8_t channel_group,uint8_t length)
 154:Drivers/GD32F1x0_standard_peripheral/Source/gd32f1x0_adc.c **** {
 366              		.loc 1 154 1 is_stmt 1 view -0
 367              		.cfi_startproc
 368              		@ args = 0, pretend = 0, frame = 0
 369              		@ frame_needed = 0, uses_anonymous_args = 0
 370              		@ link register save eliminated.
 155:Drivers/GD32F1x0_standard_peripheral/Source/gd32f1x0_adc.c ****     ADC_CTL0 &= ~((uint32_t)(ADC_CTL0_DISRC | ADC_CTL0_DISIC));
 371              		.loc 1 155 5 view .LVU59
ARM GAS  /tmp/cczyuVXH.s 			page 10


 372              		.loc 1 155 14 is_stmt 0 view .LVU60
 373 0000 124B     		ldr	r3, .L39
 156:Drivers/GD32F1x0_standard_peripheral/Source/gd32f1x0_adc.c ****     switch(channel_group){
 374              		.loc 1 156 5 view .LVU61
 375 0002 0128     		cmp	r0, #1
 155:Drivers/GD32F1x0_standard_peripheral/Source/gd32f1x0_adc.c ****     ADC_CTL0 &= ~((uint32_t)(ADC_CTL0_DISRC | ADC_CTL0_DISIC));
 376              		.loc 1 155 14 view .LVU62
 377 0004 D3F80424 		ldr	r2, [r3, #1028]
 378 0008 22F4C052 		bic	r2, r2, #6144
 379 000c C3F80424 		str	r2, [r3, #1028]
 380              		.loc 1 156 5 is_stmt 1 view .LVU63
 381 0010 02D0     		beq	.L35
 382 0012 0228     		cmp	r0, #2
 383 0014 14D0     		beq	.L36
 384 0016 7047     		bx	lr
 385              	.L35:
 157:Drivers/GD32F1x0_standard_peripheral/Source/gd32f1x0_adc.c ****     case ADC_REGULAR_CHANNEL:
 158:Drivers/GD32F1x0_standard_peripheral/Source/gd32f1x0_adc.c ****         /* config the number of conversions in discontinuous mode  */
 159:Drivers/GD32F1x0_standard_peripheral/Source/gd32f1x0_adc.c ****         ADC_CTL0 &= ~((uint32_t)ADC_CTL0_DISNUM);
 386              		.loc 1 159 9 view .LVU64
 387              		.loc 1 159 18 is_stmt 0 view .LVU65
 388 0018 D3F80424 		ldr	r2, [r3, #1028]
 160:Drivers/GD32F1x0_standard_peripheral/Source/gd32f1x0_adc.c ****         ADC_CTL0 |= (uint32_t)(((uint32_t)length - 1U) << 13U);
 389              		.loc 1 160 50 view .LVU66
 390 001c 0139     		subs	r1, r1, #1
 391              	.LVL3:
 159:Drivers/GD32F1x0_standard_peripheral/Source/gd32f1x0_adc.c ****         ADC_CTL0 |= (uint32_t)(((uint32_t)length - 1U) << 13U);
 392              		.loc 1 159 18 view .LVU67
 393 001e 22F46042 		bic	r2, r2, #57344
 394 0022 C3F80424 		str	r2, [r3, #1028]
 395              		.loc 1 160 9 is_stmt 1 view .LVU68
 396              		.loc 1 160 18 is_stmt 0 view .LVU69
 397 0026 D3F80424 		ldr	r2, [r3, #1028]
 398 002a 42EA4131 		orr	r1, r2, r1, lsl #13
 399 002e C3F80414 		str	r1, [r3, #1028]
 161:Drivers/GD32F1x0_standard_peripheral/Source/gd32f1x0_adc.c **** 
 162:Drivers/GD32F1x0_standard_peripheral/Source/gd32f1x0_adc.c ****         ADC_CTL0 |= (uint32_t)ADC_CTL0_DISRC;
 400              		.loc 1 162 9 is_stmt 1 view .LVU70
 401              		.loc 1 162 18 is_stmt 0 view .LVU71
 402 0032 D3F80424 		ldr	r2, [r3, #1028]
 403 0036 42F40062 		orr	r2, r2, #2048
 404              	.L38:
 163:Drivers/GD32F1x0_standard_peripheral/Source/gd32f1x0_adc.c ****         break;
 164:Drivers/GD32F1x0_standard_peripheral/Source/gd32f1x0_adc.c ****     case ADC_INSERTED_CHANNEL:
 165:Drivers/GD32F1x0_standard_peripheral/Source/gd32f1x0_adc.c ****         ADC_CTL0 |= (uint32_t)ADC_CTL0_DISIC;
 405              		.loc 1 165 18 view .LVU72
 406 003a C3F80424 		str	r2, [r3, #1028]
 166:Drivers/GD32F1x0_standard_peripheral/Source/gd32f1x0_adc.c ****         break;
 407              		.loc 1 166 9 is_stmt 1 view .LVU73
 167:Drivers/GD32F1x0_standard_peripheral/Source/gd32f1x0_adc.c ****     default:
 168:Drivers/GD32F1x0_standard_peripheral/Source/gd32f1x0_adc.c ****         break;
 169:Drivers/GD32F1x0_standard_peripheral/Source/gd32f1x0_adc.c ****     }
 170:Drivers/GD32F1x0_standard_peripheral/Source/gd32f1x0_adc.c **** }
 408              		.loc 1 170 1 is_stmt 0 view .LVU74
 409 003e 7047     		bx	lr
 410              	.LVL4:
 411              	.L36:
ARM GAS  /tmp/cczyuVXH.s 			page 11


 165:Drivers/GD32F1x0_standard_peripheral/Source/gd32f1x0_adc.c ****         break;
 412              		.loc 1 165 9 is_stmt 1 view .LVU75
 165:Drivers/GD32F1x0_standard_peripheral/Source/gd32f1x0_adc.c ****         break;
 413              		.loc 1 165 18 is_stmt 0 view .LVU76
 414 0040 D3F80424 		ldr	r2, [r3, #1028]
 415 0044 42F48052 		orr	r2, r2, #4096
 416 0048 F7E7     		b	.L38
 417              	.L40:
 418 004a 00BF     		.align	2
 419              	.L39:
 420 004c 00200140 		.word	1073815552
 421              		.cfi_endproc
 422              	.LFE66:
 424              		.section	.text.adc_special_function_config,"ax",%progbits
 425              		.align	1
 426              		.global	adc_special_function_config
 427              		.syntax unified
 428              		.thumb
 429              		.thumb_func
 430              		.fpu softvfp
 432              	adc_special_function_config:
 433              	.LVL5:
 434              	.LFB67:
 171:Drivers/GD32F1x0_standard_peripheral/Source/gd32f1x0_adc.c **** 
 172:Drivers/GD32F1x0_standard_peripheral/Source/gd32f1x0_adc.c **** /*!
 173:Drivers/GD32F1x0_standard_peripheral/Source/gd32f1x0_adc.c ****     \brief      enable or disable ADC special function
 174:Drivers/GD32F1x0_standard_peripheral/Source/gd32f1x0_adc.c ****     \param[in]  function: the function to config
 175:Drivers/GD32F1x0_standard_peripheral/Source/gd32f1x0_adc.c ****                 one or more parameters can be selected below
 176:Drivers/GD32F1x0_standard_peripheral/Source/gd32f1x0_adc.c ****       \arg        ADC_SCAN_MODE: scan mode select
 177:Drivers/GD32F1x0_standard_peripheral/Source/gd32f1x0_adc.c ****       \arg        ADC_INSERTED_CHANNEL_AUTO: inserted channel group convert automatically
 178:Drivers/GD32F1x0_standard_peripheral/Source/gd32f1x0_adc.c ****       \arg        ADC_CONTINUOUS_MODE: continuous mode select
 179:Drivers/GD32F1x0_standard_peripheral/Source/gd32f1x0_adc.c ****     \param[in]  newvalue: ENABLE or DISABLE
 180:Drivers/GD32F1x0_standard_peripheral/Source/gd32f1x0_adc.c ****     \param[out] none
 181:Drivers/GD32F1x0_standard_peripheral/Source/gd32f1x0_adc.c ****     \retval     none
 182:Drivers/GD32F1x0_standard_peripheral/Source/gd32f1x0_adc.c **** */
 183:Drivers/GD32F1x0_standard_peripheral/Source/gd32f1x0_adc.c **** void adc_special_function_config(uint32_t function, ControlStatus newvalue)
 184:Drivers/GD32F1x0_standard_peripheral/Source/gd32f1x0_adc.c **** {
 435              		.loc 1 184 1 is_stmt 1 view -0
 436              		.cfi_startproc
 437              		@ args = 0, pretend = 0, frame = 0
 438              		@ frame_needed = 0, uses_anonymous_args = 0
 439              		@ link register save eliminated.
 185:Drivers/GD32F1x0_standard_peripheral/Source/gd32f1x0_adc.c ****     if(newvalue){
 440              		.loc 1 185 5 view .LVU78
 186:Drivers/GD32F1x0_standard_peripheral/Source/gd32f1x0_adc.c ****         if(RESET != (function & ADC_SCAN_MODE)){
 441              		.loc 1 186 31 is_stmt 0 view .LVU79
 442 0000 00F48073 		and	r3, r0, #256
 443 0004 00F48062 		and	r2, r0, #1024
 444 0008 00F00200 		and	r0, r0, #2
 445              	.LVL6:
 185:Drivers/GD32F1x0_standard_peripheral/Source/gd32f1x0_adc.c ****     if(newvalue){
 446              		.loc 1 185 7 view .LVU80
 447 000c C1B1     		cbz	r1, .L42
 448              		.loc 1 186 9 is_stmt 1 view .LVU81
 449              		.loc 1 186 11 is_stmt 0 view .LVU82
 450 000e 33B1     		cbz	r3, .L43
 187:Drivers/GD32F1x0_standard_peripheral/Source/gd32f1x0_adc.c ****             ADC_CTL0 |= ADC_SCAN_MODE;
ARM GAS  /tmp/cczyuVXH.s 			page 12


 451              		.loc 1 187 13 is_stmt 1 view .LVU83
 452              		.loc 1 187 22 is_stmt 0 view .LVU84
 453 0010 1749     		ldr	r1, .L66
 454              	.LVL7:
 455              		.loc 1 187 22 view .LVU85
 456 0012 D1F80434 		ldr	r3, [r1, #1028]
 457 0016 43F48073 		orr	r3, r3, #256
 458 001a C1F80434 		str	r3, [r1, #1028]
 459              	.L43:
 188:Drivers/GD32F1x0_standard_peripheral/Source/gd32f1x0_adc.c ****         }
 189:Drivers/GD32F1x0_standard_peripheral/Source/gd32f1x0_adc.c ****         if(RESET != (function & ADC_INSERTED_CHANNEL_AUTO)){
 460              		.loc 1 189 9 is_stmt 1 view .LVU86
 461              		.loc 1 189 11 is_stmt 0 view .LVU87
 462 001e 32B1     		cbz	r2, .L44
 190:Drivers/GD32F1x0_standard_peripheral/Source/gd32f1x0_adc.c ****             ADC_CTL0 |= ADC_INSERTED_CHANNEL_AUTO;
 463              		.loc 1 190 13 is_stmt 1 view .LVU88
 464              		.loc 1 190 22 is_stmt 0 view .LVU89
 465 0020 134A     		ldr	r2, .L66
 466 0022 D2F80434 		ldr	r3, [r2, #1028]
 467 0026 43F48063 		orr	r3, r3, #1024
 468 002a C2F80434 		str	r3, [r2, #1028]
 469              	.L44:
 191:Drivers/GD32F1x0_standard_peripheral/Source/gd32f1x0_adc.c ****         } 
 192:Drivers/GD32F1x0_standard_peripheral/Source/gd32f1x0_adc.c ****         if(RESET != (function & ADC_CONTINUOUS_MODE)){
 470              		.loc 1 192 9 is_stmt 1 view .LVU90
 471              		.loc 1 192 11 is_stmt 0 view .LVU91
 472 002e 30B1     		cbz	r0, .L41
 193:Drivers/GD32F1x0_standard_peripheral/Source/gd32f1x0_adc.c ****             ADC_CTL1 |= ADC_CONTINUOUS_MODE;
 473              		.loc 1 193 13 is_stmt 1 view .LVU92
 474              		.loc 1 193 22 is_stmt 0 view .LVU93
 475 0030 0F4A     		ldr	r2, .L66
 476 0032 D2F80834 		ldr	r3, [r2, #1032]
 477 0036 43F00203 		orr	r3, r3, #2
 478              	.L65:
 194:Drivers/GD32F1x0_standard_peripheral/Source/gd32f1x0_adc.c ****         }        
 195:Drivers/GD32F1x0_standard_peripheral/Source/gd32f1x0_adc.c ****     }else{
 196:Drivers/GD32F1x0_standard_peripheral/Source/gd32f1x0_adc.c ****         if(RESET != (function & ADC_SCAN_MODE)){
 197:Drivers/GD32F1x0_standard_peripheral/Source/gd32f1x0_adc.c ****             ADC_CTL0 &= ~ADC_SCAN_MODE;
 198:Drivers/GD32F1x0_standard_peripheral/Source/gd32f1x0_adc.c ****         }
 199:Drivers/GD32F1x0_standard_peripheral/Source/gd32f1x0_adc.c ****         if(RESET != (function & ADC_INSERTED_CHANNEL_AUTO)){
 200:Drivers/GD32F1x0_standard_peripheral/Source/gd32f1x0_adc.c ****             ADC_CTL0 &= ~ADC_INSERTED_CHANNEL_AUTO;
 201:Drivers/GD32F1x0_standard_peripheral/Source/gd32f1x0_adc.c ****         } 
 202:Drivers/GD32F1x0_standard_peripheral/Source/gd32f1x0_adc.c ****         if(RESET != (function & ADC_CONTINUOUS_MODE)){
 203:Drivers/GD32F1x0_standard_peripheral/Source/gd32f1x0_adc.c ****             ADC_CTL1 &= ~ADC_CONTINUOUS_MODE;
 479              		.loc 1 203 22 view .LVU94
 480 003a C2F80834 		str	r3, [r2, #1032]
 481              	.L41:
 204:Drivers/GD32F1x0_standard_peripheral/Source/gd32f1x0_adc.c ****         }
 205:Drivers/GD32F1x0_standard_peripheral/Source/gd32f1x0_adc.c ****     }
 206:Drivers/GD32F1x0_standard_peripheral/Source/gd32f1x0_adc.c **** }
 482              		.loc 1 206 1 view .LVU95
 483 003e 7047     		bx	lr
 484              	.LVL8:
 485              	.L42:
 196:Drivers/GD32F1x0_standard_peripheral/Source/gd32f1x0_adc.c ****             ADC_CTL0 &= ~ADC_SCAN_MODE;
 486              		.loc 1 196 9 is_stmt 1 view .LVU96
 196:Drivers/GD32F1x0_standard_peripheral/Source/gd32f1x0_adc.c ****             ADC_CTL0 &= ~ADC_SCAN_MODE;
ARM GAS  /tmp/cczyuVXH.s 			page 13


 487              		.loc 1 196 11 is_stmt 0 view .LVU97
 488 0040 33B1     		cbz	r3, .L47
 197:Drivers/GD32F1x0_standard_peripheral/Source/gd32f1x0_adc.c ****         }
 489              		.loc 1 197 13 is_stmt 1 view .LVU98
 197:Drivers/GD32F1x0_standard_peripheral/Source/gd32f1x0_adc.c ****         }
 490              		.loc 1 197 22 is_stmt 0 view .LVU99
 491 0042 0B49     		ldr	r1, .L66
 492              	.LVL9:
 197:Drivers/GD32F1x0_standard_peripheral/Source/gd32f1x0_adc.c ****         }
 493              		.loc 1 197 22 view .LVU100
 494 0044 D1F80434 		ldr	r3, [r1, #1028]
 495 0048 23F48073 		bic	r3, r3, #256
 496 004c C1F80434 		str	r3, [r1, #1028]
 497              	.L47:
 199:Drivers/GD32F1x0_standard_peripheral/Source/gd32f1x0_adc.c ****             ADC_CTL0 &= ~ADC_INSERTED_CHANNEL_AUTO;
 498              		.loc 1 199 9 is_stmt 1 view .LVU101
 199:Drivers/GD32F1x0_standard_peripheral/Source/gd32f1x0_adc.c ****             ADC_CTL0 &= ~ADC_INSERTED_CHANNEL_AUTO;
 499              		.loc 1 199 11 is_stmt 0 view .LVU102
 500 0050 32B1     		cbz	r2, .L48
 200:Drivers/GD32F1x0_standard_peripheral/Source/gd32f1x0_adc.c ****         } 
 501              		.loc 1 200 13 is_stmt 1 view .LVU103
 200:Drivers/GD32F1x0_standard_peripheral/Source/gd32f1x0_adc.c ****         } 
 502              		.loc 1 200 22 is_stmt 0 view .LVU104
 503 0052 074A     		ldr	r2, .L66
 504 0054 D2F80434 		ldr	r3, [r2, #1028]
 505 0058 23F48063 		bic	r3, r3, #1024
 506 005c C2F80434 		str	r3, [r2, #1028]
 507              	.L48:
 202:Drivers/GD32F1x0_standard_peripheral/Source/gd32f1x0_adc.c ****             ADC_CTL1 &= ~ADC_CONTINUOUS_MODE;
 508              		.loc 1 202 9 is_stmt 1 view .LVU105
 202:Drivers/GD32F1x0_standard_peripheral/Source/gd32f1x0_adc.c ****             ADC_CTL1 &= ~ADC_CONTINUOUS_MODE;
 509              		.loc 1 202 11 is_stmt 0 view .LVU106
 510 0060 0028     		cmp	r0, #0
 511 0062 ECD0     		beq	.L41
 203:Drivers/GD32F1x0_standard_peripheral/Source/gd32f1x0_adc.c ****         }
 512              		.loc 1 203 13 is_stmt 1 view .LVU107
 203:Drivers/GD32F1x0_standard_peripheral/Source/gd32f1x0_adc.c ****         }
 513              		.loc 1 203 22 is_stmt 0 view .LVU108
 514 0064 024A     		ldr	r2, .L66
 515 0066 D2F80834 		ldr	r3, [r2, #1032]
 516 006a 23F00203 		bic	r3, r3, #2
 517 006e E4E7     		b	.L65
 518              	.L67:
 519              		.align	2
 520              	.L66:
 521 0070 00200140 		.word	1073815552
 522              		.cfi_endproc
 523              	.LFE67:
 525              		.section	.text.adc_data_alignment_config,"ax",%progbits
 526              		.align	1
 527              		.global	adc_data_alignment_config
 528              		.syntax unified
 529              		.thumb
 530              		.thumb_func
 531              		.fpu softvfp
 533              	adc_data_alignment_config:
 534              	.LVL10:
ARM GAS  /tmp/cczyuVXH.s 			page 14


 535              	.LFB68:
 207:Drivers/GD32F1x0_standard_peripheral/Source/gd32f1x0_adc.c **** 
 208:Drivers/GD32F1x0_standard_peripheral/Source/gd32f1x0_adc.c **** /*!
 209:Drivers/GD32F1x0_standard_peripheral/Source/gd32f1x0_adc.c ****     \brief      adc data alignment config
 210:Drivers/GD32F1x0_standard_peripheral/Source/gd32f1x0_adc.c ****     \param[in]  data_alignment: data alignment select
 211:Drivers/GD32F1x0_standard_peripheral/Source/gd32f1x0_adc.c ****                 only one parameter can be selected
 212:Drivers/GD32F1x0_standard_peripheral/Source/gd32f1x0_adc.c ****       \arg        ADC_DATAALIGN_RIGHT: LSB alignment
 213:Drivers/GD32F1x0_standard_peripheral/Source/gd32f1x0_adc.c ****       \arg        ADC_DATAALIGN_LEFT: MSB alignment
 214:Drivers/GD32F1x0_standard_peripheral/Source/gd32f1x0_adc.c ****     \param[out] none
 215:Drivers/GD32F1x0_standard_peripheral/Source/gd32f1x0_adc.c ****     \retval     none
 216:Drivers/GD32F1x0_standard_peripheral/Source/gd32f1x0_adc.c **** */
 217:Drivers/GD32F1x0_standard_peripheral/Source/gd32f1x0_adc.c **** void adc_data_alignment_config(uint32_t data_alignment)
 218:Drivers/GD32F1x0_standard_peripheral/Source/gd32f1x0_adc.c **** {
 536              		.loc 1 218 1 is_stmt 1 view -0
 537              		.cfi_startproc
 538              		@ args = 0, pretend = 0, frame = 0
 539              		@ frame_needed = 0, uses_anonymous_args = 0
 540              		@ link register save eliminated.
 219:Drivers/GD32F1x0_standard_peripheral/Source/gd32f1x0_adc.c ****     if(data_alignment){
 541              		.loc 1 219 5 view .LVU110
 542 0000 054B     		ldr	r3, .L72
 220:Drivers/GD32F1x0_standard_peripheral/Source/gd32f1x0_adc.c ****         ADC_CTL1 |= ADC_CTL1_DAL;
 543              		.loc 1 220 18 is_stmt 0 view .LVU111
 544 0002 D3F80824 		ldr	r2, [r3, #1032]
 219:Drivers/GD32F1x0_standard_peripheral/Source/gd32f1x0_adc.c ****     if(data_alignment){
 545              		.loc 1 219 7 view .LVU112
 546 0006 20B1     		cbz	r0, .L69
 547              		.loc 1 220 9 is_stmt 1 view .LVU113
 548              		.loc 1 220 18 is_stmt 0 view .LVU114
 549 0008 42F40062 		orr	r2, r2, #2048
 550              	.L71:
 221:Drivers/GD32F1x0_standard_peripheral/Source/gd32f1x0_adc.c ****     }else{
 222:Drivers/GD32F1x0_standard_peripheral/Source/gd32f1x0_adc.c ****         ADC_CTL1 &= ~((uint32_t)ADC_CTL1_DAL);
 551              		.loc 1 222 18 view .LVU115
 552 000c C3F80824 		str	r2, [r3, #1032]
 223:Drivers/GD32F1x0_standard_peripheral/Source/gd32f1x0_adc.c ****     }
 224:Drivers/GD32F1x0_standard_peripheral/Source/gd32f1x0_adc.c **** }
 553              		.loc 1 224 1 view .LVU116
 554 0010 7047     		bx	lr
 555              	.L69:
 222:Drivers/GD32F1x0_standard_peripheral/Source/gd32f1x0_adc.c ****     }
 556              		.loc 1 222 9 is_stmt 1 view .LVU117
 222:Drivers/GD32F1x0_standard_peripheral/Source/gd32f1x0_adc.c ****     }
 557              		.loc 1 222 18 is_stmt 0 view .LVU118
 558 0012 22F40062 		bic	r2, r2, #2048
 559 0016 F9E7     		b	.L71
 560              	.L73:
 561              		.align	2
 562              	.L72:
 563 0018 00200140 		.word	1073815552
 564              		.cfi_endproc
 565              	.LFE68:
 567              		.section	.text.adc_channel_length_config,"ax",%progbits
 568              		.align	1
 569              		.global	adc_channel_length_config
 570              		.syntax unified
 571              		.thumb
ARM GAS  /tmp/cczyuVXH.s 			page 15


 572              		.thumb_func
 573              		.fpu softvfp
 575              	adc_channel_length_config:
 576              	.LVL11:
 577              	.LFB69:
 225:Drivers/GD32F1x0_standard_peripheral/Source/gd32f1x0_adc.c **** 
 226:Drivers/GD32F1x0_standard_peripheral/Source/gd32f1x0_adc.c **** /*!
 227:Drivers/GD32F1x0_standard_peripheral/Source/gd32f1x0_adc.c ****     \brief      config the length of regular channel group or inserted channel group
 228:Drivers/GD32F1x0_standard_peripheral/Source/gd32f1x0_adc.c ****     \param[in]  channel_group: select the channel group
 229:Drivers/GD32F1x0_standard_peripheral/Source/gd32f1x0_adc.c ****                 only one parameter can be selected
 230:Drivers/GD32F1x0_standard_peripheral/Source/gd32f1x0_adc.c ****       \arg        ADC_REGULAR_CHANNEL: regular channel group
 231:Drivers/GD32F1x0_standard_peripheral/Source/gd32f1x0_adc.c ****       \arg        ADC_INSERTED_CHANNEL: inserted channel group
 232:Drivers/GD32F1x0_standard_peripheral/Source/gd32f1x0_adc.c ****     \param[in]  length: the length of the channel
 233:Drivers/GD32F1x0_standard_peripheral/Source/gd32f1x0_adc.c ****                         regular channel 1-17
 234:Drivers/GD32F1x0_standard_peripheral/Source/gd32f1x0_adc.c ****                         inserted channel 1-4
 235:Drivers/GD32F1x0_standard_peripheral/Source/gd32f1x0_adc.c ****     \param[out] none
 236:Drivers/GD32F1x0_standard_peripheral/Source/gd32f1x0_adc.c ****     \retval     none
 237:Drivers/GD32F1x0_standard_peripheral/Source/gd32f1x0_adc.c **** */
 238:Drivers/GD32F1x0_standard_peripheral/Source/gd32f1x0_adc.c **** void adc_channel_length_config(uint8_t channel_group,uint32_t length)
 239:Drivers/GD32F1x0_standard_peripheral/Source/gd32f1x0_adc.c **** {
 578              		.loc 1 239 1 is_stmt 1 view -0
 579              		.cfi_startproc
 580              		@ args = 0, pretend = 0, frame = 0
 581              		@ frame_needed = 0, uses_anonymous_args = 0
 582              		@ link register save eliminated.
 240:Drivers/GD32F1x0_standard_peripheral/Source/gd32f1x0_adc.c ****     switch(channel_group){
 583              		.loc 1 240 5 view .LVU120
 584 0000 0128     		cmp	r0, #1
 585 0002 02D0     		beq	.L75
 586 0004 0228     		cmp	r0, #2
 587 0006 0FD0     		beq	.L76
 588 0008 7047     		bx	lr
 589              	.L75:
 241:Drivers/GD32F1x0_standard_peripheral/Source/gd32f1x0_adc.c ****     case ADC_REGULAR_CHANNEL:
 242:Drivers/GD32F1x0_standard_peripheral/Source/gd32f1x0_adc.c ****         ADC_RSQ0 &= ~(((uint32_t)length - 1U) << 20U);
 590              		.loc 1 242 9 view .LVU121
 591              		.loc 1 242 18 is_stmt 0 view .LVU122
 592 000a 0F4B     		ldr	r3, .L78
 593              		.loc 1 242 41 view .LVU123
 594 000c 0139     		subs	r1, r1, #1
 595              	.LVL12:
 596              		.loc 1 242 18 view .LVU124
 597 000e D3F82C24 		ldr	r2, [r3, #1068]
 598 0012 22EA0152 		bic	r2, r2, r1, lsl #20
 599 0016 C3F82C24 		str	r2, [r3, #1068]
 243:Drivers/GD32F1x0_standard_peripheral/Source/gd32f1x0_adc.c ****         ADC_RSQ0 |= (((uint32_t)length - 1U) << 20U);
 600              		.loc 1 243 9 is_stmt 1 view .LVU125
 601              		.loc 1 243 18 is_stmt 0 view .LVU126
 602 001a D3F82C24 		ldr	r2, [r3, #1068]
 603 001e 42EA0151 		orr	r1, r2, r1, lsl #20
 604              	.LVL13:
 605              		.loc 1 243 18 view .LVU127
 606 0022 C3F82C14 		str	r1, [r3, #1068]
 244:Drivers/GD32F1x0_standard_peripheral/Source/gd32f1x0_adc.c ****         break;
 607              		.loc 1 244 9 is_stmt 1 view .LVU128
 608 0026 7047     		bx	lr
 609              	.LVL14:
ARM GAS  /tmp/cczyuVXH.s 			page 16


 610              	.L76:
 245:Drivers/GD32F1x0_standard_peripheral/Source/gd32f1x0_adc.c ****     case ADC_INSERTED_CHANNEL:
 246:Drivers/GD32F1x0_standard_peripheral/Source/gd32f1x0_adc.c ****         ADC_ISQ &= ~(((uint32_t)length - 1U) << 20U);
 611              		.loc 1 246 9 view .LVU129
 612              		.loc 1 246 17 is_stmt 0 view .LVU130
 613 0028 074B     		ldr	r3, .L78
 614              		.loc 1 246 40 view .LVU131
 615 002a 0139     		subs	r1, r1, #1
 616              	.LVL15:
 617              		.loc 1 246 17 view .LVU132
 618 002c D3F83824 		ldr	r2, [r3, #1080]
 619 0030 22EA0152 		bic	r2, r2, r1, lsl #20
 620 0034 C3F83824 		str	r2, [r3, #1080]
 247:Drivers/GD32F1x0_standard_peripheral/Source/gd32f1x0_adc.c ****         ADC_ISQ |= (((uint32_t)length - 1U) << 20U);
 621              		.loc 1 247 9 is_stmt 1 view .LVU133
 622              		.loc 1 247 17 is_stmt 0 view .LVU134
 623 0038 D3F83824 		ldr	r2, [r3, #1080]
 624 003c 42EA0151 		orr	r1, r2, r1, lsl #20
 625              	.LVL16:
 626              		.loc 1 247 17 view .LVU135
 627 0040 C3F83814 		str	r1, [r3, #1080]
 248:Drivers/GD32F1x0_standard_peripheral/Source/gd32f1x0_adc.c ****         break;
 628              		.loc 1 248 9 is_stmt 1 view .LVU136
 249:Drivers/GD32F1x0_standard_peripheral/Source/gd32f1x0_adc.c ****     default:
 250:Drivers/GD32F1x0_standard_peripheral/Source/gd32f1x0_adc.c ****         break;
 251:Drivers/GD32F1x0_standard_peripheral/Source/gd32f1x0_adc.c ****     }
 252:Drivers/GD32F1x0_standard_peripheral/Source/gd32f1x0_adc.c **** }
 629              		.loc 1 252 1 is_stmt 0 view .LVU137
 630 0044 7047     		bx	lr
 631              	.L79:
 632 0046 00BF     		.align	2
 633              	.L78:
 634 0048 00200140 		.word	1073815552
 635              		.cfi_endproc
 636              	.LFE69:
 638              		.section	.text.adc_regular_channel_config,"ax",%progbits
 639              		.align	1
 640              		.global	adc_regular_channel_config
 641              		.syntax unified
 642              		.thumb
 643              		.thumb_func
 644              		.fpu softvfp
 646              	adc_regular_channel_config:
 647              	.LVL17:
 648              	.LFB70:
 253:Drivers/GD32F1x0_standard_peripheral/Source/gd32f1x0_adc.c **** 
 254:Drivers/GD32F1x0_standard_peripheral/Source/gd32f1x0_adc.c **** /*!
 255:Drivers/GD32F1x0_standard_peripheral/Source/gd32f1x0_adc.c ****     \brief      ADC regular channel config
 256:Drivers/GD32F1x0_standard_peripheral/Source/gd32f1x0_adc.c ****     \param[in]  rank: the regular group sequencer rank,this parameter must be between 0 to 15
 257:Drivers/GD32F1x0_standard_peripheral/Source/gd32f1x0_adc.c ****     \param[in]  channel: the selected ADC channel
 258:Drivers/GD32F1x0_standard_peripheral/Source/gd32f1x0_adc.c ****       \arg        ADC_CHANNEL_x(x=0..18): ADC Channelx
 259:Drivers/GD32F1x0_standard_peripheral/Source/gd32f1x0_adc.c ****     \param[in]  sample_time: the sample time value
 260:Drivers/GD32F1x0_standard_peripheral/Source/gd32f1x0_adc.c ****       \arg        ADC_SAMPLETIME_1POINT5: 1.5 cycles
 261:Drivers/GD32F1x0_standard_peripheral/Source/gd32f1x0_adc.c ****       \arg        ADC_SAMPLETIME_7POINT5: 7.5 cycles
 262:Drivers/GD32F1x0_standard_peripheral/Source/gd32f1x0_adc.c ****       \arg        ADC_SAMPLETIME_13POINT5: 13.5 cycles
 263:Drivers/GD32F1x0_standard_peripheral/Source/gd32f1x0_adc.c ****       \arg        ADC_SAMPLETIME_28POINT5: 28.5 cycles
 264:Drivers/GD32F1x0_standard_peripheral/Source/gd32f1x0_adc.c ****       \arg        ADC_SAMPLETIME_41POINT5: 41.5 cycles
ARM GAS  /tmp/cczyuVXH.s 			page 17


 265:Drivers/GD32F1x0_standard_peripheral/Source/gd32f1x0_adc.c ****       \arg        ADC_SAMPLETIME_55POINT5: 55.5 cycles
 266:Drivers/GD32F1x0_standard_peripheral/Source/gd32f1x0_adc.c ****       \arg        ADC_SAMPLETIME_71POINT5: 71.5 cycles
 267:Drivers/GD32F1x0_standard_peripheral/Source/gd32f1x0_adc.c ****       \arg        ADC_SAMPLETIME_239POINT5: 239.5 cycles
 268:Drivers/GD32F1x0_standard_peripheral/Source/gd32f1x0_adc.c ****     \param[out] none
 269:Drivers/GD32F1x0_standard_peripheral/Source/gd32f1x0_adc.c ****     \retval     none
 270:Drivers/GD32F1x0_standard_peripheral/Source/gd32f1x0_adc.c **** */
 271:Drivers/GD32F1x0_standard_peripheral/Source/gd32f1x0_adc.c **** void adc_regular_channel_config(uint8_t rank, uint8_t channel,uint32_t sample_time)
 272:Drivers/GD32F1x0_standard_peripheral/Source/gd32f1x0_adc.c **** {
 649              		.loc 1 272 1 is_stmt 1 view -0
 650              		.cfi_startproc
 651              		@ args = 0, pretend = 0, frame = 0
 652              		@ frame_needed = 0, uses_anonymous_args = 0
 273:Drivers/GD32F1x0_standard_peripheral/Source/gd32f1x0_adc.c ****     uint32_t rsq,sampt;
 653              		.loc 1 273 5 view .LVU139
 274:Drivers/GD32F1x0_standard_peripheral/Source/gd32f1x0_adc.c ****     
 275:Drivers/GD32F1x0_standard_peripheral/Source/gd32f1x0_adc.c **** #ifdef GD32F130_150
 276:Drivers/GD32F1x0_standard_peripheral/Source/gd32f1x0_adc.c ****     if(ADC_CHANNEL_18 == channel){
 654              		.loc 1 276 5 view .LVU140
 277:Drivers/GD32F1x0_standard_peripheral/Source/gd32f1x0_adc.c ****         channel = ADC_CHANNEL_0;
 655              		.loc 1 277 17 is_stmt 0 view .LVU141
 656 0000 1229     		cmp	r1, #18
 657 0002 08BF     		it	eq
 658 0004 0021     		moveq	r1, #0
 659              	.LVL18:
 278:Drivers/GD32F1x0_standard_peripheral/Source/gd32f1x0_adc.c ****     }
 279:Drivers/GD32F1x0_standard_peripheral/Source/gd32f1x0_adc.c **** #endif
 280:Drivers/GD32F1x0_standard_peripheral/Source/gd32f1x0_adc.c ****     
 281:Drivers/GD32F1x0_standard_peripheral/Source/gd32f1x0_adc.c ****     /* configure ADC regular sequence */
 282:Drivers/GD32F1x0_standard_peripheral/Source/gd32f1x0_adc.c ****     if(rank < 6U){
 660              		.loc 1 282 5 is_stmt 1 view .LVU142
 661              		.loc 1 282 7 is_stmt 0 view .LVU143
 662 0006 0528     		cmp	r0, #5
 272:Drivers/GD32F1x0_standard_peripheral/Source/gd32f1x0_adc.c ****     uint32_t rsq,sampt;
 663              		.loc 1 272 1 view .LVU144
 664 0008 30B5     		push	{r4, r5, lr}
 665              	.LCFI2:
 666              		.cfi_def_cfa_offset 12
 667              		.cfi_offset 4, -12
 668              		.cfi_offset 5, -8
 669              		.cfi_offset 14, -4
 670              		.loc 1 282 7 view .LVU145
 671 000a 1ED8     		bhi	.L82
 283:Drivers/GD32F1x0_standard_peripheral/Source/gd32f1x0_adc.c ****         rsq = ADC_RSQ2;
 672              		.loc 1 283 9 is_stmt 1 view .LVU146
 284:Drivers/GD32F1x0_standard_peripheral/Source/gd32f1x0_adc.c ****         rsq &=  ~((uint32_t)(ADC_RSQX_RSQN << (5U*rank)));
 673              		.loc 1 284 19 is_stmt 0 view .LVU147
 674 000c 1F24     		movs	r4, #31
 283:Drivers/GD32F1x0_standard_peripheral/Source/gd32f1x0_adc.c ****         rsq = ADC_RSQ2;
 675              		.loc 1 283 13 view .LVU148
 676 000e 294D     		ldr	r5, .L87
 677              		.loc 1 284 50 view .LVU149
 678 0010 00EB8000 		add	r0, r0, r0, lsl #2
 679              	.LVL19:
 283:Drivers/GD32F1x0_standard_peripheral/Source/gd32f1x0_adc.c ****         rsq = ADC_RSQ2;
 680              		.loc 1 283 13 view .LVU150
 681 0014 D5F83434 		ldr	r3, [r5, #1076]
 682              	.LVL20:
ARM GAS  /tmp/cczyuVXH.s 			page 18


 683              		.loc 1 284 9 is_stmt 1 view .LVU151
 684              		.loc 1 284 19 is_stmt 0 view .LVU152
 685 0018 8440     		lsls	r4, r4, r0
 686              		.loc 1 284 13 view .LVU153
 687 001a 23EA0403 		bic	r3, r3, r4
 688              	.LVL21:
 285:Drivers/GD32F1x0_standard_peripheral/Source/gd32f1x0_adc.c ****         rsq |= ((uint32_t)channel << (5U*rank));
 689              		.loc 1 285 9 is_stmt 1 view .LVU154
 690              		.loc 1 285 35 is_stmt 0 view .LVU155
 691 001e 01FA00F0 		lsl	r0, r1, r0
 692              		.loc 1 285 13 view .LVU156
 693 0022 1843     		orrs	r0, r0, r3
 694              	.LVL22:
 286:Drivers/GD32F1x0_standard_peripheral/Source/gd32f1x0_adc.c ****         ADC_RSQ2 = rsq;
 695              		.loc 1 286 9 is_stmt 1 view .LVU157
 696              		.loc 1 286 18 is_stmt 0 view .LVU158
 697 0024 C5F83404 		str	r0, [r5, #1076]
 698              	.LVL23:
 699              	.L83:
 287:Drivers/GD32F1x0_standard_peripheral/Source/gd32f1x0_adc.c ****     }else if(rank < 12U){
 288:Drivers/GD32F1x0_standard_peripheral/Source/gd32f1x0_adc.c ****         rsq = ADC_RSQ1;
 289:Drivers/GD32F1x0_standard_peripheral/Source/gd32f1x0_adc.c ****         rsq &= ~((uint32_t)(ADC_RSQX_RSQN << (5U*(rank-6U))));
 290:Drivers/GD32F1x0_standard_peripheral/Source/gd32f1x0_adc.c ****         rsq |= ((uint32_t)channel << (5U*(rank-6U)));
 291:Drivers/GD32F1x0_standard_peripheral/Source/gd32f1x0_adc.c ****         ADC_RSQ1 = rsq;
 292:Drivers/GD32F1x0_standard_peripheral/Source/gd32f1x0_adc.c ****     }else if(rank < 16U){
 293:Drivers/GD32F1x0_standard_peripheral/Source/gd32f1x0_adc.c ****         rsq = ADC_RSQ0;
 294:Drivers/GD32F1x0_standard_peripheral/Source/gd32f1x0_adc.c ****         rsq &= ~((uint32_t)(ADC_RSQX_RSQN << (5U*(rank-12U))));
 295:Drivers/GD32F1x0_standard_peripheral/Source/gd32f1x0_adc.c ****         rsq |= ((uint32_t)channel << (5U*(rank-12U)));
 296:Drivers/GD32F1x0_standard_peripheral/Source/gd32f1x0_adc.c ****         ADC_RSQ0 = rsq;
 297:Drivers/GD32F1x0_standard_peripheral/Source/gd32f1x0_adc.c ****     }else{
 298:Drivers/GD32F1x0_standard_peripheral/Source/gd32f1x0_adc.c ****         /* illegal parameters */
 299:Drivers/GD32F1x0_standard_peripheral/Source/gd32f1x0_adc.c ****     }
 700              		.loc 1 299 5 is_stmt 1 view .LVU159
 300:Drivers/GD32F1x0_standard_peripheral/Source/gd32f1x0_adc.c ****     
 301:Drivers/GD32F1x0_standard_peripheral/Source/gd32f1x0_adc.c ****     /* configure ADC sampling time */
 302:Drivers/GD32F1x0_standard_peripheral/Source/gd32f1x0_adc.c ****     if(channel < 10U){
 701              		.loc 1 302 5 view .LVU160
 702              		.loc 1 302 7 is_stmt 0 view .LVU161
 703 0028 0929     		cmp	r1, #9
 704 002a 32D8     		bhi	.L85
 303:Drivers/GD32F1x0_standard_peripheral/Source/gd32f1x0_adc.c ****         sampt = ADC_SAMPT1;
 705              		.loc 1 303 9 is_stmt 1 view .LVU162
 304:Drivers/GD32F1x0_standard_peripheral/Source/gd32f1x0_adc.c ****         sampt &= ~((uint32_t)(ADC_SAMPTX_SPTN << (3U*channel)));
 706              		.loc 1 304 20 is_stmt 0 view .LVU163
 707 002c 0720     		movs	r0, #7
 303:Drivers/GD32F1x0_standard_peripheral/Source/gd32f1x0_adc.c ****         sampt = ADC_SAMPT1;
 708              		.loc 1 303 15 view .LVU164
 709 002e 214C     		ldr	r4, .L87
 710              		.loc 1 304 53 view .LVU165
 711 0030 01EB4101 		add	r1, r1, r1, lsl #1
 712              	.LVL24:
 303:Drivers/GD32F1x0_standard_peripheral/Source/gd32f1x0_adc.c ****         sampt = ADC_SAMPT1;
 713              		.loc 1 303 15 view .LVU166
 714 0034 D4F81034 		ldr	r3, [r4, #1040]
 715              	.LVL25:
 716              		.loc 1 304 9 is_stmt 1 view .LVU167
 717              		.loc 1 304 20 is_stmt 0 view .LVU168
ARM GAS  /tmp/cczyuVXH.s 			page 19


 718 0038 8840     		lsls	r0, r0, r1
 719              		.loc 1 304 15 view .LVU169
 720 003a 23EA0003 		bic	r3, r3, r0
 721              	.LVL26:
 305:Drivers/GD32F1x0_standard_peripheral/Source/gd32f1x0_adc.c ****         sampt |= (uint32_t)(sample_time << (3U*channel));
 722              		.loc 1 305 9 is_stmt 1 view .LVU170
 723              		.loc 1 305 41 is_stmt 0 view .LVU171
 724 003e 02FA01F1 		lsl	r1, r2, r1
 725              		.loc 1 305 15 view .LVU172
 726 0042 1943     		orrs	r1, r1, r3
 727              	.LVL27:
 306:Drivers/GD32F1x0_standard_peripheral/Source/gd32f1x0_adc.c ****         ADC_SAMPT1 = sampt;
 728              		.loc 1 306 9 is_stmt 1 view .LVU173
 729              		.loc 1 306 20 is_stmt 0 view .LVU174
 730 0044 C4F81014 		str	r1, [r4, #1040]
 731              	.LVL28:
 732              	.L80:
 307:Drivers/GD32F1x0_standard_peripheral/Source/gd32f1x0_adc.c ****     }else if(channel < 18U){
 308:Drivers/GD32F1x0_standard_peripheral/Source/gd32f1x0_adc.c ****         sampt = ADC_SAMPT0;
 309:Drivers/GD32F1x0_standard_peripheral/Source/gd32f1x0_adc.c ****         sampt &= ~((uint32_t)(ADC_SAMPTX_SPTN << (3U*(channel-10U))));
 310:Drivers/GD32F1x0_standard_peripheral/Source/gd32f1x0_adc.c ****         sampt |= (uint32_t)(sample_time << (3U*(channel-10U)));
 311:Drivers/GD32F1x0_standard_peripheral/Source/gd32f1x0_adc.c ****         ADC_SAMPT0 = sampt;
 312:Drivers/GD32F1x0_standard_peripheral/Source/gd32f1x0_adc.c ****     }else{
 313:Drivers/GD32F1x0_standard_peripheral/Source/gd32f1x0_adc.c ****         /* illegal parameters */ 
 314:Drivers/GD32F1x0_standard_peripheral/Source/gd32f1x0_adc.c ****     }
 315:Drivers/GD32F1x0_standard_peripheral/Source/gd32f1x0_adc.c **** }
 733              		.loc 1 315 1 view .LVU175
 734 0048 30BD     		pop	{r4, r5, pc}
 735              	.LVL29:
 736              	.L82:
 287:Drivers/GD32F1x0_standard_peripheral/Source/gd32f1x0_adc.c ****         rsq = ADC_RSQ1;
 737              		.loc 1 287 11 is_stmt 1 view .LVU176
 287:Drivers/GD32F1x0_standard_peripheral/Source/gd32f1x0_adc.c ****         rsq = ADC_RSQ1;
 738              		.loc 1 287 13 is_stmt 0 view .LVU177
 739 004a 0B28     		cmp	r0, #11
 740 004c 0FD8     		bhi	.L84
 288:Drivers/GD32F1x0_standard_peripheral/Source/gd32f1x0_adc.c ****         rsq &= ~((uint32_t)(ADC_RSQX_RSQN << (5U*(rank-6U))));
 741              		.loc 1 288 9 is_stmt 1 view .LVU178
 289:Drivers/GD32F1x0_standard_peripheral/Source/gd32f1x0_adc.c ****         rsq |= ((uint32_t)channel << (5U*(rank-6U)));
 742              		.loc 1 289 18 is_stmt 0 view .LVU179
 743 004e 1F24     		movs	r4, #31
 288:Drivers/GD32F1x0_standard_peripheral/Source/gd32f1x0_adc.c ****         rsq &= ~((uint32_t)(ADC_RSQX_RSQN << (5U*(rank-6U))));
 744              		.loc 1 288 13 view .LVU180
 745 0050 184D     		ldr	r5, .L87
 289:Drivers/GD32F1x0_standard_peripheral/Source/gd32f1x0_adc.c ****         rsq |= ((uint32_t)channel << (5U*(rank-6U)));
 746              		.loc 1 289 49 view .LVU181
 747 0052 00EB8000 		add	r0, r0, r0, lsl #2
 748              	.LVL30:
 288:Drivers/GD32F1x0_standard_peripheral/Source/gd32f1x0_adc.c ****         rsq &= ~((uint32_t)(ADC_RSQX_RSQN << (5U*(rank-6U))));
 749              		.loc 1 288 13 view .LVU182
 750 0056 D5F83034 		ldr	r3, [r5, #1072]
 751              	.LVL31:
 289:Drivers/GD32F1x0_standard_peripheral/Source/gd32f1x0_adc.c ****         rsq |= ((uint32_t)channel << (5U*(rank-6U)));
 752              		.loc 1 289 9 is_stmt 1 view .LVU183
 289:Drivers/GD32F1x0_standard_peripheral/Source/gd32f1x0_adc.c ****         rsq |= ((uint32_t)channel << (5U*(rank-6U)));
 753              		.loc 1 289 49 is_stmt 0 view .LVU184
 754 005a 1E38     		subs	r0, r0, #30
ARM GAS  /tmp/cczyuVXH.s 			page 20


 289:Drivers/GD32F1x0_standard_peripheral/Source/gd32f1x0_adc.c ****         rsq |= ((uint32_t)channel << (5U*(rank-6U)));
 755              		.loc 1 289 18 view .LVU185
 756 005c 8440     		lsls	r4, r4, r0
 289:Drivers/GD32F1x0_standard_peripheral/Source/gd32f1x0_adc.c ****         rsq |= ((uint32_t)channel << (5U*(rank-6U)));
 757              		.loc 1 289 13 view .LVU186
 758 005e 23EA0403 		bic	r3, r3, r4
 759              	.LVL32:
 290:Drivers/GD32F1x0_standard_peripheral/Source/gd32f1x0_adc.c ****         ADC_RSQ1 = rsq;
 760              		.loc 1 290 9 is_stmt 1 view .LVU187
 290:Drivers/GD32F1x0_standard_peripheral/Source/gd32f1x0_adc.c ****         ADC_RSQ1 = rsq;
 761              		.loc 1 290 35 is_stmt 0 view .LVU188
 762 0062 01FA00F0 		lsl	r0, r1, r0
 290:Drivers/GD32F1x0_standard_peripheral/Source/gd32f1x0_adc.c ****         ADC_RSQ1 = rsq;
 763              		.loc 1 290 13 view .LVU189
 764 0066 1843     		orrs	r0, r0, r3
 765              	.LVL33:
 291:Drivers/GD32F1x0_standard_peripheral/Source/gd32f1x0_adc.c ****     }else if(rank < 16U){
 766              		.loc 1 291 9 is_stmt 1 view .LVU190
 291:Drivers/GD32F1x0_standard_peripheral/Source/gd32f1x0_adc.c ****     }else if(rank < 16U){
 767              		.loc 1 291 18 is_stmt 0 view .LVU191
 768 0068 C5F83004 		str	r0, [r5, #1072]
 769 006c DCE7     		b	.L83
 770              	.LVL34:
 771              	.L84:
 292:Drivers/GD32F1x0_standard_peripheral/Source/gd32f1x0_adc.c ****         rsq = ADC_RSQ0;
 772              		.loc 1 292 11 is_stmt 1 view .LVU192
 292:Drivers/GD32F1x0_standard_peripheral/Source/gd32f1x0_adc.c ****         rsq = ADC_RSQ0;
 773              		.loc 1 292 13 is_stmt 0 view .LVU193
 774 006e 0F28     		cmp	r0, #15
 775 0070 DAD8     		bhi	.L83
 293:Drivers/GD32F1x0_standard_peripheral/Source/gd32f1x0_adc.c ****         rsq &= ~((uint32_t)(ADC_RSQX_RSQN << (5U*(rank-12U))));
 776              		.loc 1 293 9 is_stmt 1 view .LVU194
 294:Drivers/GD32F1x0_standard_peripheral/Source/gd32f1x0_adc.c ****         rsq |= ((uint32_t)channel << (5U*(rank-12U)));
 777              		.loc 1 294 18 is_stmt 0 view .LVU195
 778 0072 1F24     		movs	r4, #31
 293:Drivers/GD32F1x0_standard_peripheral/Source/gd32f1x0_adc.c ****         rsq &= ~((uint32_t)(ADC_RSQX_RSQN << (5U*(rank-12U))));
 779              		.loc 1 293 13 view .LVU196
 780 0074 0F4D     		ldr	r5, .L87
 294:Drivers/GD32F1x0_standard_peripheral/Source/gd32f1x0_adc.c ****         rsq |= ((uint32_t)channel << (5U*(rank-12U)));
 781              		.loc 1 294 49 view .LVU197
 782 0076 00EB8000 		add	r0, r0, r0, lsl #2
 783              	.LVL35:
 293:Drivers/GD32F1x0_standard_peripheral/Source/gd32f1x0_adc.c ****         rsq &= ~((uint32_t)(ADC_RSQX_RSQN << (5U*(rank-12U))));
 784              		.loc 1 293 13 view .LVU198
 785 007a D5F82C34 		ldr	r3, [r5, #1068]
 786              	.LVL36:
 294:Drivers/GD32F1x0_standard_peripheral/Source/gd32f1x0_adc.c ****         rsq |= ((uint32_t)channel << (5U*(rank-12U)));
 787              		.loc 1 294 9 is_stmt 1 view .LVU199
 294:Drivers/GD32F1x0_standard_peripheral/Source/gd32f1x0_adc.c ****         rsq |= ((uint32_t)channel << (5U*(rank-12U)));
 788              		.loc 1 294 49 is_stmt 0 view .LVU200
 789 007e 3C38     		subs	r0, r0, #60
 294:Drivers/GD32F1x0_standard_peripheral/Source/gd32f1x0_adc.c ****         rsq |= ((uint32_t)channel << (5U*(rank-12U)));
 790              		.loc 1 294 18 view .LVU201
 791 0080 8440     		lsls	r4, r4, r0
 294:Drivers/GD32F1x0_standard_peripheral/Source/gd32f1x0_adc.c ****         rsq |= ((uint32_t)channel << (5U*(rank-12U)));
 792              		.loc 1 294 13 view .LVU202
 793 0082 23EA0403 		bic	r3, r3, r4
ARM GAS  /tmp/cczyuVXH.s 			page 21


 794              	.LVL37:
 295:Drivers/GD32F1x0_standard_peripheral/Source/gd32f1x0_adc.c ****         ADC_RSQ0 = rsq;
 795              		.loc 1 295 9 is_stmt 1 view .LVU203
 295:Drivers/GD32F1x0_standard_peripheral/Source/gd32f1x0_adc.c ****         ADC_RSQ0 = rsq;
 796              		.loc 1 295 35 is_stmt 0 view .LVU204
 797 0086 01FA00F0 		lsl	r0, r1, r0
 295:Drivers/GD32F1x0_standard_peripheral/Source/gd32f1x0_adc.c ****         ADC_RSQ0 = rsq;
 798              		.loc 1 295 13 view .LVU205
 799 008a 1843     		orrs	r0, r0, r3
 800              	.LVL38:
 296:Drivers/GD32F1x0_standard_peripheral/Source/gd32f1x0_adc.c ****     }else{
 801              		.loc 1 296 9 is_stmt 1 view .LVU206
 296:Drivers/GD32F1x0_standard_peripheral/Source/gd32f1x0_adc.c ****     }else{
 802              		.loc 1 296 18 is_stmt 0 view .LVU207
 803 008c C5F82C04 		str	r0, [r5, #1068]
 804 0090 CAE7     		b	.L83
 805              	.LVL39:
 806              	.L85:
 307:Drivers/GD32F1x0_standard_peripheral/Source/gd32f1x0_adc.c ****         sampt = ADC_SAMPT0;
 807              		.loc 1 307 11 is_stmt 1 view .LVU208
 307:Drivers/GD32F1x0_standard_peripheral/Source/gd32f1x0_adc.c ****         sampt = ADC_SAMPT0;
 808              		.loc 1 307 13 is_stmt 0 view .LVU209
 809 0092 1129     		cmp	r1, #17
 810 0094 D8D8     		bhi	.L80
 308:Drivers/GD32F1x0_standard_peripheral/Source/gd32f1x0_adc.c ****         sampt &= ~((uint32_t)(ADC_SAMPTX_SPTN << (3U*(channel-10U))));
 811              		.loc 1 308 9 is_stmt 1 view .LVU210
 309:Drivers/GD32F1x0_standard_peripheral/Source/gd32f1x0_adc.c ****         sampt |= (uint32_t)(sample_time << (3U*(channel-10U)));
 812              		.loc 1 309 20 is_stmt 0 view .LVU211
 813 0096 0720     		movs	r0, #7
 308:Drivers/GD32F1x0_standard_peripheral/Source/gd32f1x0_adc.c ****         sampt &= ~((uint32_t)(ADC_SAMPTX_SPTN << (3U*(channel-10U))));
 814              		.loc 1 308 15 view .LVU212
 815 0098 064C     		ldr	r4, .L87
 309:Drivers/GD32F1x0_standard_peripheral/Source/gd32f1x0_adc.c ****         sampt |= (uint32_t)(sample_time << (3U*(channel-10U)));
 816              		.loc 1 309 53 view .LVU213
 817 009a 01EB4101 		add	r1, r1, r1, lsl #1
 818              	.LVL40:
 308:Drivers/GD32F1x0_standard_peripheral/Source/gd32f1x0_adc.c ****         sampt &= ~((uint32_t)(ADC_SAMPTX_SPTN << (3U*(channel-10U))));
 819              		.loc 1 308 15 view .LVU214
 820 009e D4F80C34 		ldr	r3, [r4, #1036]
 821              	.LVL41:
 309:Drivers/GD32F1x0_standard_peripheral/Source/gd32f1x0_adc.c ****         sampt |= (uint32_t)(sample_time << (3U*(channel-10U)));
 822              		.loc 1 309 9 is_stmt 1 view .LVU215
 309:Drivers/GD32F1x0_standard_peripheral/Source/gd32f1x0_adc.c ****         sampt |= (uint32_t)(sample_time << (3U*(channel-10U)));
 823              		.loc 1 309 53 is_stmt 0 view .LVU216
 824 00a2 1E39     		subs	r1, r1, #30
 309:Drivers/GD32F1x0_standard_peripheral/Source/gd32f1x0_adc.c ****         sampt |= (uint32_t)(sample_time << (3U*(channel-10U)));
 825              		.loc 1 309 20 view .LVU217
 826 00a4 8840     		lsls	r0, r0, r1
 309:Drivers/GD32F1x0_standard_peripheral/Source/gd32f1x0_adc.c ****         sampt |= (uint32_t)(sample_time << (3U*(channel-10U)));
 827              		.loc 1 309 15 view .LVU218
 828 00a6 23EA0003 		bic	r3, r3, r0
 829              	.LVL42:
 310:Drivers/GD32F1x0_standard_peripheral/Source/gd32f1x0_adc.c ****         ADC_SAMPT0 = sampt;
 830              		.loc 1 310 9 is_stmt 1 view .LVU219
 310:Drivers/GD32F1x0_standard_peripheral/Source/gd32f1x0_adc.c ****         ADC_SAMPT0 = sampt;
 831              		.loc 1 310 41 is_stmt 0 view .LVU220
 832 00aa 8A40     		lsls	r2, r2, r1
ARM GAS  /tmp/cczyuVXH.s 			page 22


 833              	.LVL43:
 310:Drivers/GD32F1x0_standard_peripheral/Source/gd32f1x0_adc.c ****         ADC_SAMPT0 = sampt;
 834              		.loc 1 310 15 view .LVU221
 835 00ac 1A43     		orrs	r2, r2, r3
 836              	.LVL44:
 311:Drivers/GD32F1x0_standard_peripheral/Source/gd32f1x0_adc.c ****     }else{
 837              		.loc 1 311 9 is_stmt 1 view .LVU222
 311:Drivers/GD32F1x0_standard_peripheral/Source/gd32f1x0_adc.c ****     }else{
 838              		.loc 1 311 20 is_stmt 0 view .LVU223
 839 00ae C4F80C24 		str	r2, [r4, #1036]
 314:Drivers/GD32F1x0_standard_peripheral/Source/gd32f1x0_adc.c **** }
 840              		.loc 1 314 5 is_stmt 1 view .LVU224
 841              		.loc 1 315 1 is_stmt 0 view .LVU225
 842 00b2 C9E7     		b	.L80
 843              	.L88:
 844              		.align	2
 845              	.L87:
 846 00b4 00200140 		.word	1073815552
 847              		.cfi_endproc
 848              	.LFE70:
 850              		.section	.text.adc_inserted_channel_config,"ax",%progbits
 851              		.align	1
 852              		.global	adc_inserted_channel_config
 853              		.syntax unified
 854              		.thumb
 855              		.thumb_func
 856              		.fpu softvfp
 858              	adc_inserted_channel_config:
 859              	.LVL45:
 860              	.LFB71:
 316:Drivers/GD32F1x0_standard_peripheral/Source/gd32f1x0_adc.c **** 
 317:Drivers/GD32F1x0_standard_peripheral/Source/gd32f1x0_adc.c **** /*!
 318:Drivers/GD32F1x0_standard_peripheral/Source/gd32f1x0_adc.c ****     \brief      ADC inserted channel config
 319:Drivers/GD32F1x0_standard_peripheral/Source/gd32f1x0_adc.c ****     \param[in]  rank: the inserted group sequencer rank,this parameter must be between 0 to 3
 320:Drivers/GD32F1x0_standard_peripheral/Source/gd32f1x0_adc.c ****     \param[in]  channel: the selected ADC channel
 321:Drivers/GD32F1x0_standard_peripheral/Source/gd32f1x0_adc.c ****       \arg        ADC_CHANNEL_x(x=0..18): ADC Channelx
 322:Drivers/GD32F1x0_standard_peripheral/Source/gd32f1x0_adc.c ****     \param[in]  sample_time: The sample time value
 323:Drivers/GD32F1x0_standard_peripheral/Source/gd32f1x0_adc.c ****       \arg        ADC_SAMPLETIME_1POINT5: 1.5 cycles
 324:Drivers/GD32F1x0_standard_peripheral/Source/gd32f1x0_adc.c ****       \arg        ADC_SAMPLETIME_7POINT5: 7.5 cycles
 325:Drivers/GD32F1x0_standard_peripheral/Source/gd32f1x0_adc.c ****       \arg        ADC_SAMPLETIME_13POINT5: 13.5 cycles
 326:Drivers/GD32F1x0_standard_peripheral/Source/gd32f1x0_adc.c ****       \arg        ADC_SAMPLETIME_28POINT5: 28.5 cycles
 327:Drivers/GD32F1x0_standard_peripheral/Source/gd32f1x0_adc.c ****       \arg        ADC_SAMPLETIME_41POINT5: 41.5 cycles
 328:Drivers/GD32F1x0_standard_peripheral/Source/gd32f1x0_adc.c ****       \arg        ADC_SAMPLETIME_55POINT5: 55.5 cycles
 329:Drivers/GD32F1x0_standard_peripheral/Source/gd32f1x0_adc.c ****       \arg        ADC_SAMPLETIME_71POINT5: 71.5 cycles
 330:Drivers/GD32F1x0_standard_peripheral/Source/gd32f1x0_adc.c ****       \arg        ADC_SAMPLETIME_239POINT5: 239.5 cycles
 331:Drivers/GD32F1x0_standard_peripheral/Source/gd32f1x0_adc.c ****     \param[out] none
 332:Drivers/GD32F1x0_standard_peripheral/Source/gd32f1x0_adc.c ****     \retval     none
 333:Drivers/GD32F1x0_standard_peripheral/Source/gd32f1x0_adc.c **** */
 334:Drivers/GD32F1x0_standard_peripheral/Source/gd32f1x0_adc.c **** void adc_inserted_channel_config(uint8_t rank, uint8_t channel, uint32_t sample_time)
 335:Drivers/GD32F1x0_standard_peripheral/Source/gd32f1x0_adc.c **** {
 861              		.loc 1 335 1 is_stmt 1 view -0
 862              		.cfi_startproc
 863              		@ args = 0, pretend = 0, frame = 0
 864              		@ frame_needed = 0, uses_anonymous_args = 0
 336:Drivers/GD32F1x0_standard_peripheral/Source/gd32f1x0_adc.c ****     uint8_t inserted_length;
 865              		.loc 1 336 5 view .LVU227
 337:Drivers/GD32F1x0_standard_peripheral/Source/gd32f1x0_adc.c ****     uint32_t isq,sampt;
ARM GAS  /tmp/cczyuVXH.s 			page 23


 866              		.loc 1 337 5 view .LVU228
 338:Drivers/GD32F1x0_standard_peripheral/Source/gd32f1x0_adc.c **** 
 339:Drivers/GD32F1x0_standard_peripheral/Source/gd32f1x0_adc.c ****     inserted_length = (uint8_t)GET_BITS(ADC_ISQ, 20, 21);
 867              		.loc 1 339 5 view .LVU229
 335:Drivers/GD32F1x0_standard_peripheral/Source/gd32f1x0_adc.c ****     uint8_t inserted_length;
 868              		.loc 1 335 1 is_stmt 0 view .LVU230
 869 0000 30B5     		push	{r4, r5, lr}
 870              	.LCFI3:
 871              		.cfi_def_cfa_offset 12
 872              		.cfi_offset 4, -12
 873              		.cfi_offset 5, -8
 874              		.cfi_offset 14, -4
 875              		.loc 1 339 32 view .LVU231
 876 0002 1C4C     		ldr	r4, .L93
 340:Drivers/GD32F1x0_standard_peripheral/Source/gd32f1x0_adc.c ****     if(rank < 5U){
 877              		.loc 1 340 7 view .LVU232
 878 0004 0428     		cmp	r0, #4
 339:Drivers/GD32F1x0_standard_peripheral/Source/gd32f1x0_adc.c ****     if(rank < 5U){
 879              		.loc 1 339 32 view .LVU233
 880 0006 D4F83834 		ldr	r3, [r4, #1080]
 881              	.LVL46:
 882              		.loc 1 340 5 is_stmt 1 view .LVU234
 883              		.loc 1 340 7 is_stmt 0 view .LVU235
 884 000a 11D8     		bhi	.L90
 341:Drivers/GD32F1x0_standard_peripheral/Source/gd32f1x0_adc.c ****         isq = ADC_ISQ;
 885              		.loc 1 341 9 is_stmt 1 view .LVU236
 342:Drivers/GD32F1x0_standard_peripheral/Source/gd32f1x0_adc.c ****         isq &= ~((uint32_t)(ADC_ISQ_ISQN << (15U - (inserted_length - rank)*5U)));
 886              		.loc 1 342 69 is_stmt 0 view .LVU237
 887 000c C3F30153 		ubfx	r3, r3, #20, #2
 888              	.LVL47:
 889              		.loc 1 342 69 view .LVU238
 890 0010 1B1A     		subs	r3, r3, r0
 891              		.loc 1 342 18 view .LVU239
 892 0012 1F20     		movs	r0, #31
 893              	.LVL48:
 894              		.loc 1 342 76 view .LVU240
 895 0014 03EB8303 		add	r3, r3, r3, lsl #2
 341:Drivers/GD32F1x0_standard_peripheral/Source/gd32f1x0_adc.c ****         isq = ADC_ISQ;
 896              		.loc 1 341 13 view .LVU241
 897 0018 D4F83854 		ldr	r5, [r4, #1080]
 898              	.LVL49:
 899              		.loc 1 342 9 is_stmt 1 view .LVU242
 900              		.loc 1 342 50 is_stmt 0 view .LVU243
 901 001c C3F10F03 		rsb	r3, r3, #15
 902              		.loc 1 342 18 view .LVU244
 903 0020 9840     		lsls	r0, r0, r3
 904              		.loc 1 342 13 view .LVU245
 905 0022 25EA0000 		bic	r0, r5, r0
 906              	.LVL50:
 343:Drivers/GD32F1x0_standard_peripheral/Source/gd32f1x0_adc.c ****         isq |= ((uint32_t)channel << (15U - (inserted_length - rank)*5U));
 907              		.loc 1 343 9 is_stmt 1 view .LVU246
 908              		.loc 1 343 35 is_stmt 0 view .LVU247
 909 0026 01FA03F3 		lsl	r3, r1, r3
 910              		.loc 1 343 13 view .LVU248
 911 002a 0343     		orrs	r3, r3, r0
 912              	.LVL51:
 344:Drivers/GD32F1x0_standard_peripheral/Source/gd32f1x0_adc.c ****         ADC_ISQ = isq;
ARM GAS  /tmp/cczyuVXH.s 			page 24


 913              		.loc 1 344 9 is_stmt 1 view .LVU249
 914              		.loc 1 344 17 is_stmt 0 view .LVU250
 915 002c C4F83834 		str	r3, [r4, #1080]
 916              	.LVL52:
 917              	.L90:
 345:Drivers/GD32F1x0_standard_peripheral/Source/gd32f1x0_adc.c ****     }
 346:Drivers/GD32F1x0_standard_peripheral/Source/gd32f1x0_adc.c **** 
 347:Drivers/GD32F1x0_standard_peripheral/Source/gd32f1x0_adc.c ****     if(channel < 10U){
 918              		.loc 1 347 5 is_stmt 1 view .LVU251
 919              		.loc 1 347 7 is_stmt 0 view .LVU252
 920 0030 0929     		cmp	r1, #9
 921 0032 0DD8     		bhi	.L91
 348:Drivers/GD32F1x0_standard_peripheral/Source/gd32f1x0_adc.c ****         sampt = ADC_SAMPT1;
 922              		.loc 1 348 9 is_stmt 1 view .LVU253
 349:Drivers/GD32F1x0_standard_peripheral/Source/gd32f1x0_adc.c ****         sampt &= ~((uint32_t)(ADC_SAMPTX_SPTN << (3U*channel)));
 923              		.loc 1 349 53 is_stmt 0 view .LVU254
 924 0034 01EB4103 		add	r3, r1, r1, lsl #1
 925              		.loc 1 349 20 view .LVU255
 926 0038 0721     		movs	r1, #7
 927              	.LVL53:
 348:Drivers/GD32F1x0_standard_peripheral/Source/gd32f1x0_adc.c ****         sampt = ADC_SAMPT1;
 928              		.loc 1 348 15 view .LVU256
 929 003a D4F81004 		ldr	r0, [r4, #1040]
 930              	.LVL54:
 931              		.loc 1 349 9 is_stmt 1 view .LVU257
 932              		.loc 1 349 20 is_stmt 0 view .LVU258
 933 003e 9940     		lsls	r1, r1, r3
 934              		.loc 1 349 15 view .LVU259
 935 0040 20EA0100 		bic	r0, r0, r1
 936              	.LVL55:
 350:Drivers/GD32F1x0_standard_peripheral/Source/gd32f1x0_adc.c ****         sampt |= (uint32_t) sample_time << (3U*channel);
 937              		.loc 1 350 9 is_stmt 1 view .LVU260
 938              		.loc 1 350 41 is_stmt 0 view .LVU261
 939 0044 02FA03F1 		lsl	r1, r2, r3
 940              		.loc 1 350 15 view .LVU262
 941 0048 0143     		orrs	r1, r1, r0
 942              	.LVL56:
 351:Drivers/GD32F1x0_standard_peripheral/Source/gd32f1x0_adc.c ****         ADC_SAMPT1 = sampt;
 943              		.loc 1 351 9 is_stmt 1 view .LVU263
 944              		.loc 1 351 20 is_stmt 0 view .LVU264
 945 004a C4F81014 		str	r1, [r4, #1040]
 946              	.LVL57:
 947              	.L89:
 352:Drivers/GD32F1x0_standard_peripheral/Source/gd32f1x0_adc.c ****     }else if(channel < 19U){
 353:Drivers/GD32F1x0_standard_peripheral/Source/gd32f1x0_adc.c ****         sampt = ADC_SAMPT0;
 354:Drivers/GD32F1x0_standard_peripheral/Source/gd32f1x0_adc.c ****         sampt &= ~((uint32_t)(ADC_SAMPTX_SPTN << (3U*(channel-10U))));
 355:Drivers/GD32F1x0_standard_peripheral/Source/gd32f1x0_adc.c ****         sampt |= ((uint32_t)sample_time << (3U*(channel-10U)));
 356:Drivers/GD32F1x0_standard_peripheral/Source/gd32f1x0_adc.c ****         ADC_SAMPT0 = sampt;
 357:Drivers/GD32F1x0_standard_peripheral/Source/gd32f1x0_adc.c ****     }else{
 358:Drivers/GD32F1x0_standard_peripheral/Source/gd32f1x0_adc.c ****         /* illegal parameters */
 359:Drivers/GD32F1x0_standard_peripheral/Source/gd32f1x0_adc.c ****     }
 360:Drivers/GD32F1x0_standard_peripheral/Source/gd32f1x0_adc.c **** }
 948              		.loc 1 360 1 view .LVU265
 949 004e 30BD     		pop	{r4, r5, pc}
 950              	.LVL58:
 951              	.L91:
 352:Drivers/GD32F1x0_standard_peripheral/Source/gd32f1x0_adc.c ****     }else if(channel < 19U){
ARM GAS  /tmp/cczyuVXH.s 			page 25


 952              		.loc 1 352 11 is_stmt 1 view .LVU266
 352:Drivers/GD32F1x0_standard_peripheral/Source/gd32f1x0_adc.c ****     }else if(channel < 19U){
 953              		.loc 1 352 13 is_stmt 0 view .LVU267
 954 0050 1229     		cmp	r1, #18
 955 0052 FCD8     		bhi	.L89
 353:Drivers/GD32F1x0_standard_peripheral/Source/gd32f1x0_adc.c ****         sampt &= ~((uint32_t)(ADC_SAMPTX_SPTN << (3U*(channel-10U))));
 956              		.loc 1 353 9 is_stmt 1 view .LVU268
 354:Drivers/GD32F1x0_standard_peripheral/Source/gd32f1x0_adc.c ****         sampt |= ((uint32_t)sample_time << (3U*(channel-10U)));
 957              		.loc 1 354 20 is_stmt 0 view .LVU269
 958 0054 0720     		movs	r0, #7
 354:Drivers/GD32F1x0_standard_peripheral/Source/gd32f1x0_adc.c ****         sampt |= ((uint32_t)sample_time << (3U*(channel-10U)));
 959              		.loc 1 354 53 view .LVU270
 960 0056 01EB4101 		add	r1, r1, r1, lsl #1
 961              	.LVL59:
 353:Drivers/GD32F1x0_standard_peripheral/Source/gd32f1x0_adc.c ****         sampt &= ~((uint32_t)(ADC_SAMPTX_SPTN << (3U*(channel-10U))));
 962              		.loc 1 353 15 view .LVU271
 963 005a D4F80C34 		ldr	r3, [r4, #1036]
 964              	.LVL60:
 354:Drivers/GD32F1x0_standard_peripheral/Source/gd32f1x0_adc.c ****         sampt |= ((uint32_t)sample_time << (3U*(channel-10U)));
 965              		.loc 1 354 9 is_stmt 1 view .LVU272
 354:Drivers/GD32F1x0_standard_peripheral/Source/gd32f1x0_adc.c ****         sampt |= ((uint32_t)sample_time << (3U*(channel-10U)));
 966              		.loc 1 354 53 is_stmt 0 view .LVU273
 967 005e 1E39     		subs	r1, r1, #30
 354:Drivers/GD32F1x0_standard_peripheral/Source/gd32f1x0_adc.c ****         sampt |= ((uint32_t)sample_time << (3U*(channel-10U)));
 968              		.loc 1 354 20 view .LVU274
 969 0060 8840     		lsls	r0, r0, r1
 354:Drivers/GD32F1x0_standard_peripheral/Source/gd32f1x0_adc.c ****         sampt |= ((uint32_t)sample_time << (3U*(channel-10U)));
 970              		.loc 1 354 15 view .LVU275
 971 0062 23EA0003 		bic	r3, r3, r0
 972              	.LVL61:
 355:Drivers/GD32F1x0_standard_peripheral/Source/gd32f1x0_adc.c ****         ADC_SAMPT0 = sampt;
 973              		.loc 1 355 9 is_stmt 1 view .LVU276
 355:Drivers/GD32F1x0_standard_peripheral/Source/gd32f1x0_adc.c ****         ADC_SAMPT0 = sampt;
 974              		.loc 1 355 41 is_stmt 0 view .LVU277
 975 0066 02FA01F1 		lsl	r1, r2, r1
 355:Drivers/GD32F1x0_standard_peripheral/Source/gd32f1x0_adc.c ****         ADC_SAMPT0 = sampt;
 976              		.loc 1 355 15 view .LVU278
 977 006a 1943     		orrs	r1, r1, r3
 978              	.LVL62:
 356:Drivers/GD32F1x0_standard_peripheral/Source/gd32f1x0_adc.c ****     }else{
 979              		.loc 1 356 9 is_stmt 1 view .LVU279
 356:Drivers/GD32F1x0_standard_peripheral/Source/gd32f1x0_adc.c ****     }else{
 980              		.loc 1 356 20 is_stmt 0 view .LVU280
 981 006c C4F80C14 		str	r1, [r4, #1036]
 359:Drivers/GD32F1x0_standard_peripheral/Source/gd32f1x0_adc.c **** }
 982              		.loc 1 359 5 is_stmt 1 view .LVU281
 983              		.loc 1 360 1 is_stmt 0 view .LVU282
 984 0070 EDE7     		b	.L89
 985              	.L94:
 986 0072 00BF     		.align	2
 987              	.L93:
 988 0074 00200140 		.word	1073815552
 989              		.cfi_endproc
 990              	.LFE71:
 992              		.section	.text.adc_inserted_channel_offset_config,"ax",%progbits
 993              		.align	1
 994              		.global	adc_inserted_channel_offset_config
ARM GAS  /tmp/cczyuVXH.s 			page 26


 995              		.syntax unified
 996              		.thumb
 997              		.thumb_func
 998              		.fpu softvfp
 1000              	adc_inserted_channel_offset_config:
 1001              	.LVL63:
 1002              	.LFB72:
 361:Drivers/GD32F1x0_standard_peripheral/Source/gd32f1x0_adc.c **** 
 362:Drivers/GD32F1x0_standard_peripheral/Source/gd32f1x0_adc.c **** /*!
 363:Drivers/GD32F1x0_standard_peripheral/Source/gd32f1x0_adc.c ****     \brief      adc inserted channel offset config
 364:Drivers/GD32F1x0_standard_peripheral/Source/gd32f1x0_adc.c ****     \param[in]  inserted_channel : insert channel select
 365:Drivers/GD32F1x0_standard_peripheral/Source/gd32f1x0_adc.c ****       \arg        ADC_INSERTED_CHANNEL_0: inserted channel0
 366:Drivers/GD32F1x0_standard_peripheral/Source/gd32f1x0_adc.c ****       \arg        ADC_INSERTED_CHANNEL_1: inserted channel1
 367:Drivers/GD32F1x0_standard_peripheral/Source/gd32f1x0_adc.c ****       \arg        ADC_INSERTED_CHANNEL_2: inserted channel2
 368:Drivers/GD32F1x0_standard_peripheral/Source/gd32f1x0_adc.c ****       \arg        ADC_INSERTED_CHANNEL_3: inserted channel3
 369:Drivers/GD32F1x0_standard_peripheral/Source/gd32f1x0_adc.c ****     \param[in]  offset : the offset data
 370:Drivers/GD32F1x0_standard_peripheral/Source/gd32f1x0_adc.c ****     \param[out] none
 371:Drivers/GD32F1x0_standard_peripheral/Source/gd32f1x0_adc.c ****     \retval     the conversion value
 372:Drivers/GD32F1x0_standard_peripheral/Source/gd32f1x0_adc.c **** */
 373:Drivers/GD32F1x0_standard_peripheral/Source/gd32f1x0_adc.c **** void adc_inserted_channel_offset_config(uint8_t inserted_channel,uint16_t offset)
 374:Drivers/GD32F1x0_standard_peripheral/Source/gd32f1x0_adc.c **** {
 1003              		.loc 1 374 1 is_stmt 1 view -0
 1004              		.cfi_startproc
 1005              		@ args = 0, pretend = 0, frame = 0
 1006              		@ frame_needed = 0, uses_anonymous_args = 0
 1007              		@ link register save eliminated.
 375:Drivers/GD32F1x0_standard_peripheral/Source/gd32f1x0_adc.c ****     uint8_t inserted_length;
 1008              		.loc 1 375 5 view .LVU284
 376:Drivers/GD32F1x0_standard_peripheral/Source/gd32f1x0_adc.c ****     uint32_t num = 0U;
 1009              		.loc 1 376 5 view .LVU285
 377:Drivers/GD32F1x0_standard_peripheral/Source/gd32f1x0_adc.c **** 
 378:Drivers/GD32F1x0_standard_peripheral/Source/gd32f1x0_adc.c ****     inserted_length = (uint8_t)GET_BITS(ADC_ISQ, 20U, 21U);
 1010              		.loc 1 378 5 view .LVU286
 1011              		.loc 1 378 32 is_stmt 0 view .LVU287
 1012 0000 074B     		ldr	r3, .L97
 1013 0002 D3F83834 		ldr	r3, [r3, #1080]
 1014              	.LVL64:
 379:Drivers/GD32F1x0_standard_peripheral/Source/gd32f1x0_adc.c ****     num = 3U - (inserted_length - inserted_channel);
 1015              		.loc 1 379 5 is_stmt 1 view .LVU288
 1016              		.loc 1 379 33 is_stmt 0 view .LVU289
 1017 0006 C3F30153 		ubfx	r3, r3, #20, #2
 1018              	.LVL65:
 1019              		.loc 1 379 33 view .LVU290
 1020 000a 181A     		subs	r0, r3, r0
 1021              	.LVL66:
 1022              		.loc 1 379 9 view .LVU291
 1023 000c C0F10300 		rsb	r0, r0, #3
 1024              	.LVL67:
 380:Drivers/GD32F1x0_standard_peripheral/Source/gd32f1x0_adc.c ****     
 381:Drivers/GD32F1x0_standard_peripheral/Source/gd32f1x0_adc.c ****     if(num <= 3U){
 1025              		.loc 1 381 5 is_stmt 1 view .LVU292
 1026              		.loc 1 381 7 is_stmt 0 view .LVU293
 1027 0010 0328     		cmp	r0, #3
 382:Drivers/GD32F1x0_standard_peripheral/Source/gd32f1x0_adc.c ****         /* calculate the offset of the register */
 383:Drivers/GD32F1x0_standard_peripheral/Source/gd32f1x0_adc.c ****         num = num * 4U;
 1028              		.loc 1 383 9 is_stmt 1 view .LVU294
 1029              	.LVL68:
ARM GAS  /tmp/cczyuVXH.s 			page 27


 384:Drivers/GD32F1x0_standard_peripheral/Source/gd32f1x0_adc.c ****         /* config the offset of the selected channels */
 385:Drivers/GD32F1x0_standard_peripheral/Source/gd32f1x0_adc.c ****         REG32((ADC_BASE) + 0x14U + num) = IOFFX_IOFF((uint32_t)offset);
 1030              		.loc 1 385 9 view .LVU295
 1031              		.loc 1 385 41 is_stmt 0 view .LVU296
 1032 0012 9EBF     		ittt	ls
 1033 0014 034B     		ldrls	r3, .L97+4
 1034              		.loc 1 385 43 view .LVU297
 1035 0016 C1F30B01 		ubfxls	r1, r1, #0, #12
 1036              	.LVL69:
 1037              		.loc 1 385 41 view .LVU298
 1038 001a 43F82010 		strls	r1, [r3, r0, lsl #2]
 386:Drivers/GD32F1x0_standard_peripheral/Source/gd32f1x0_adc.c ****     }
 387:Drivers/GD32F1x0_standard_peripheral/Source/gd32f1x0_adc.c **** }
 1039              		.loc 1 387 1 view .LVU299
 1040 001e 7047     		bx	lr
 1041              	.L98:
 1042              		.align	2
 1043              	.L97:
 1044 0020 00200140 		.word	1073815552
 1045 0024 14240140 		.word	1073816596
 1046              		.cfi_endproc
 1047              	.LFE72:
 1049              		.section	.text.adc_external_trigger_config,"ax",%progbits
 1050              		.align	1
 1051              		.global	adc_external_trigger_config
 1052              		.syntax unified
 1053              		.thumb
 1054              		.thumb_func
 1055              		.fpu softvfp
 1057              	adc_external_trigger_config:
 1058              	.LVL70:
 1059              	.LFB73:
 388:Drivers/GD32F1x0_standard_peripheral/Source/gd32f1x0_adc.c **** 
 389:Drivers/GD32F1x0_standard_peripheral/Source/gd32f1x0_adc.c **** /*!
 390:Drivers/GD32F1x0_standard_peripheral/Source/gd32f1x0_adc.c ****     \brief      adc external trigger enable
 391:Drivers/GD32F1x0_standard_peripheral/Source/gd32f1x0_adc.c ****     \param[in]  adc_channel_group: select the channel group
 392:Drivers/GD32F1x0_standard_peripheral/Source/gd32f1x0_adc.c ****       \arg        ADC_REGULAR_CHANNEL: regular channel group
 393:Drivers/GD32F1x0_standard_peripheral/Source/gd32f1x0_adc.c ****       \arg        ADC_INSERTED_CHANNEL: inserted channel group
 394:Drivers/GD32F1x0_standard_peripheral/Source/gd32f1x0_adc.c ****     \param[in]  newvalue: ENABLE or DISABLE
 395:Drivers/GD32F1x0_standard_peripheral/Source/gd32f1x0_adc.c ****     \param[out] none
 396:Drivers/GD32F1x0_standard_peripheral/Source/gd32f1x0_adc.c ****     \retval     none
 397:Drivers/GD32F1x0_standard_peripheral/Source/gd32f1x0_adc.c **** */
 398:Drivers/GD32F1x0_standard_peripheral/Source/gd32f1x0_adc.c **** void adc_external_trigger_config(uint8_t channel_group,ControlStatus newvalue)
 399:Drivers/GD32F1x0_standard_peripheral/Source/gd32f1x0_adc.c **** {
 1060              		.loc 1 399 1 is_stmt 1 view -0
 1061              		.cfi_startproc
 1062              		@ args = 0, pretend = 0, frame = 0
 1063              		@ frame_needed = 0, uses_anonymous_args = 0
 1064              		@ link register save eliminated.
 400:Drivers/GD32F1x0_standard_peripheral/Source/gd32f1x0_adc.c ****     if(newvalue){
 1065              		.loc 1 400 5 view .LVU301
 1066 0000 00F00103 		and	r3, r0, #1
 1067 0004 00F00200 		and	r0, r0, #2
 1068              	.LVL71:
 1069              		.loc 1 400 7 is_stmt 0 view .LVU302
 1070 0008 81B1     		cbz	r1, .L100
 401:Drivers/GD32F1x0_standard_peripheral/Source/gd32f1x0_adc.c ****         if(RESET != (channel_group & ADC_REGULAR_CHANNEL)){
ARM GAS  /tmp/cczyuVXH.s 			page 28


 1071              		.loc 1 401 9 is_stmt 1 view .LVU303
 1072              		.loc 1 401 11 is_stmt 0 view .LVU304
 1073 000a 33B1     		cbz	r3, .L101
 402:Drivers/GD32F1x0_standard_peripheral/Source/gd32f1x0_adc.c ****             ADC_CTL1 |= ADC_CTL1_ETERC;
 1074              		.loc 1 402 13 is_stmt 1 view .LVU305
 1075              		.loc 1 402 22 is_stmt 0 view .LVU306
 1076 000c 0F4A     		ldr	r2, .L116
 1077 000e D2F80834 		ldr	r3, [r2, #1032]
 1078 0012 43F48013 		orr	r3, r3, #1048576
 1079 0016 C2F80834 		str	r3, [r2, #1032]
 1080              	.L101:
 403:Drivers/GD32F1x0_standard_peripheral/Source/gd32f1x0_adc.c ****         }
 404:Drivers/GD32F1x0_standard_peripheral/Source/gd32f1x0_adc.c ****         if(RESET != (channel_group & ADC_INSERTED_CHANNEL)){
 1081              		.loc 1 404 9 is_stmt 1 view .LVU307
 1082              		.loc 1 404 11 is_stmt 0 view .LVU308
 1083 001a 30B1     		cbz	r0, .L99
 405:Drivers/GD32F1x0_standard_peripheral/Source/gd32f1x0_adc.c ****             ADC_CTL1 |= ADC_CTL1_ETEIC;
 1084              		.loc 1 405 13 is_stmt 1 view .LVU309
 1085              		.loc 1 405 22 is_stmt 0 view .LVU310
 1086 001c 0B4A     		ldr	r2, .L116
 1087 001e D2F80834 		ldr	r3, [r2, #1032]
 1088 0022 43F40043 		orr	r3, r3, #32768
 1089              	.L115:
 406:Drivers/GD32F1x0_standard_peripheral/Source/gd32f1x0_adc.c ****         }
 407:Drivers/GD32F1x0_standard_peripheral/Source/gd32f1x0_adc.c ****     }else{
 408:Drivers/GD32F1x0_standard_peripheral/Source/gd32f1x0_adc.c ****         if(RESET != (channel_group & ADC_REGULAR_CHANNEL)){
 409:Drivers/GD32F1x0_standard_peripheral/Source/gd32f1x0_adc.c ****             ADC_CTL1 &= ~ADC_CTL1_ETERC;
 410:Drivers/GD32F1x0_standard_peripheral/Source/gd32f1x0_adc.c ****         }
 411:Drivers/GD32F1x0_standard_peripheral/Source/gd32f1x0_adc.c ****         if(RESET != (channel_group & ADC_INSERTED_CHANNEL)){
 412:Drivers/GD32F1x0_standard_peripheral/Source/gd32f1x0_adc.c ****             ADC_CTL1 &= ~ADC_CTL1_ETEIC;
 1090              		.loc 1 412 22 view .LVU311
 1091 0026 C2F80834 		str	r3, [r2, #1032]
 1092              	.L99:
 413:Drivers/GD32F1x0_standard_peripheral/Source/gd32f1x0_adc.c ****         }
 414:Drivers/GD32F1x0_standard_peripheral/Source/gd32f1x0_adc.c ****     }
 415:Drivers/GD32F1x0_standard_peripheral/Source/gd32f1x0_adc.c **** }
 1093              		.loc 1 415 1 view .LVU312
 1094 002a 7047     		bx	lr
 1095              	.L100:
 408:Drivers/GD32F1x0_standard_peripheral/Source/gd32f1x0_adc.c ****             ADC_CTL1 &= ~ADC_CTL1_ETERC;
 1096              		.loc 1 408 9 is_stmt 1 view .LVU313
 408:Drivers/GD32F1x0_standard_peripheral/Source/gd32f1x0_adc.c ****             ADC_CTL1 &= ~ADC_CTL1_ETERC;
 1097              		.loc 1 408 11 is_stmt 0 view .LVU314
 1098 002c 33B1     		cbz	r3, .L104
 409:Drivers/GD32F1x0_standard_peripheral/Source/gd32f1x0_adc.c ****         }
 1099              		.loc 1 409 13 is_stmt 1 view .LVU315
 409:Drivers/GD32F1x0_standard_peripheral/Source/gd32f1x0_adc.c ****         }
 1100              		.loc 1 409 22 is_stmt 0 view .LVU316
 1101 002e 074A     		ldr	r2, .L116
 1102 0030 D2F80834 		ldr	r3, [r2, #1032]
 1103 0034 23F48013 		bic	r3, r3, #1048576
 1104 0038 C2F80834 		str	r3, [r2, #1032]
 1105              	.L104:
 411:Drivers/GD32F1x0_standard_peripheral/Source/gd32f1x0_adc.c ****             ADC_CTL1 &= ~ADC_CTL1_ETEIC;
 1106              		.loc 1 411 9 is_stmt 1 view .LVU317
 411:Drivers/GD32F1x0_standard_peripheral/Source/gd32f1x0_adc.c ****             ADC_CTL1 &= ~ADC_CTL1_ETEIC;
 1107              		.loc 1 411 11 is_stmt 0 view .LVU318
ARM GAS  /tmp/cczyuVXH.s 			page 29


 1108 003c 0028     		cmp	r0, #0
 1109 003e F4D0     		beq	.L99
 412:Drivers/GD32F1x0_standard_peripheral/Source/gd32f1x0_adc.c ****         }
 1110              		.loc 1 412 13 is_stmt 1 view .LVU319
 412:Drivers/GD32F1x0_standard_peripheral/Source/gd32f1x0_adc.c ****         }
 1111              		.loc 1 412 22 is_stmt 0 view .LVU320
 1112 0040 024A     		ldr	r2, .L116
 1113 0042 D2F80834 		ldr	r3, [r2, #1032]
 1114 0046 23F40043 		bic	r3, r3, #32768
 1115 004a ECE7     		b	.L115
 1116              	.L117:
 1117              		.align	2
 1118              	.L116:
 1119 004c 00200140 		.word	1073815552
 1120              		.cfi_endproc
 1121              	.LFE73:
 1123              		.section	.text.adc_external_trigger_source_config,"ax",%progbits
 1124              		.align	1
 1125              		.global	adc_external_trigger_source_config
 1126              		.syntax unified
 1127              		.thumb
 1128              		.thumb_func
 1129              		.fpu softvfp
 1131              	adc_external_trigger_source_config:
 1132              	.LVL72:
 1133              	.LFB74:
 416:Drivers/GD32F1x0_standard_peripheral/Source/gd32f1x0_adc.c **** 
 417:Drivers/GD32F1x0_standard_peripheral/Source/gd32f1x0_adc.c **** /*!
 418:Drivers/GD32F1x0_standard_peripheral/Source/gd32f1x0_adc.c ****     \brief      adc external trigger source config
 419:Drivers/GD32F1x0_standard_peripheral/Source/gd32f1x0_adc.c ****     \param[in]  adc_channel_group: select the channel group
 420:Drivers/GD32F1x0_standard_peripheral/Source/gd32f1x0_adc.c ****       \arg        ADC_REGULAR_CHANNEL: regular channel group
 421:Drivers/GD32F1x0_standard_peripheral/Source/gd32f1x0_adc.c ****       \arg        ADC_INSERTED_CHANNEL: inserted channel group
 422:Drivers/GD32F1x0_standard_peripheral/Source/gd32f1x0_adc.c ****     \param[in]  external_trigger_source: regular or inserted group trigger source
 423:Drivers/GD32F1x0_standard_peripheral/Source/gd32f1x0_adc.c ****                 for regular channel:
 424:Drivers/GD32F1x0_standard_peripheral/Source/gd32f1x0_adc.c ****       \arg        ADC_EXTTRIG_REGULAR_T0_CH0: external trigger timer 0 CH0 event select for regular
 425:Drivers/GD32F1x0_standard_peripheral/Source/gd32f1x0_adc.c ****       \arg        ADC_EXTTRIG_REGULAR_T0_CH1: external trigger timer 0 CH1 event select for regular
 426:Drivers/GD32F1x0_standard_peripheral/Source/gd32f1x0_adc.c ****       \arg        ADC_EXTTRIG_REGULAR_T0_CH2: external trigger timer 0 CH2 event select for regular
 427:Drivers/GD32F1x0_standard_peripheral/Source/gd32f1x0_adc.c ****       \arg        ADC_EXTTRIG_REGULAR_T1_CH1: external trigger timer 1 CH1 event select for regular
 428:Drivers/GD32F1x0_standard_peripheral/Source/gd32f1x0_adc.c ****       \arg        ADC_EXTTRIG_REGULAR_T2_TRGO: external trigger timer 2 TRGO event select for regul
 429:Drivers/GD32F1x0_standard_peripheral/Source/gd32f1x0_adc.c ****       \arg        ADC_EXTTRIG_REGULAR_T14_CH0: external trigger timer 14 CH0 event select for regul
 430:Drivers/GD32F1x0_standard_peripheral/Source/gd32f1x0_adc.c ****       \arg        ADC_EXTTRIG_REGULAR_EXT_IT11: external trigger extiline 11 select for regular cha
 431:Drivers/GD32F1x0_standard_peripheral/Source/gd32f1x0_adc.c ****       \arg        ADC_EXTTRIG_REGULAR_SWRCST: software trigger select for regular channel
 432:Drivers/GD32F1x0_standard_peripheral/Source/gd32f1x0_adc.c ****                 for inserted channel:
 433:Drivers/GD32F1x0_standard_peripheral/Source/gd32f1x0_adc.c ****       \arg        ADC_EXTTRIG_INSERTED_T0_TRGO: external trigger timer0 TRGO event select for inser
 434:Drivers/GD32F1x0_standard_peripheral/Source/gd32f1x0_adc.c ****       \arg        ADC_EXTTRIG_INSERTED_T0_CH3: external trigger timer0 CH3 event select for inserte
 435:Drivers/GD32F1x0_standard_peripheral/Source/gd32f1x0_adc.c ****       \arg        ADC_EXTTRIG_INSERTED_T1_TRGO: external trigger timer1 TRGO event select for inser
 436:Drivers/GD32F1x0_standard_peripheral/Source/gd32f1x0_adc.c ****       \arg        ADC_EXTTRIG_INSERTED_T1_CH0: external trigger timer1 CH0 event select for inserte
 437:Drivers/GD32F1x0_standard_peripheral/Source/gd32f1x0_adc.c ****       \arg        ADC_EXTTRIG_INSERTED_T2_CH3: external trigger timer2 CH3 event select for inserte
 438:Drivers/GD32F1x0_standard_peripheral/Source/gd32f1x0_adc.c ****       \arg        ADC_EXTTRIG_INSERTED_T14_TRGO: external trigger timer14 TRGO event select for ins
 439:Drivers/GD32F1x0_standard_peripheral/Source/gd32f1x0_adc.c ****       \arg        ADC_EXTTRIG_INSERTED_EXT_IT15: external interrupt line 15 select for inserted cha
 440:Drivers/GD32F1x0_standard_peripheral/Source/gd32f1x0_adc.c ****       \arg        ADC_EXTTRIG_INSERTED_SWRCST: software trigger select for inserted channel
 441:Drivers/GD32F1x0_standard_peripheral/Source/gd32f1x0_adc.c ****     \param[out] none
 442:Drivers/GD32F1x0_standard_peripheral/Source/gd32f1x0_adc.c ****     \retval     none
 443:Drivers/GD32F1x0_standard_peripheral/Source/gd32f1x0_adc.c **** */
 444:Drivers/GD32F1x0_standard_peripheral/Source/gd32f1x0_adc.c **** void adc_external_trigger_source_config(uint8_t channel_group,uint32_t external_trigger_source)
 445:Drivers/GD32F1x0_standard_peripheral/Source/gd32f1x0_adc.c **** {   
 1134              		.loc 1 445 1 is_stmt 1 view -0
ARM GAS  /tmp/cczyuVXH.s 			page 30


 1135              		.cfi_startproc
 1136              		@ args = 0, pretend = 0, frame = 0
 1137              		@ frame_needed = 0, uses_anonymous_args = 0
 1138              		@ link register save eliminated.
 446:Drivers/GD32F1x0_standard_peripheral/Source/gd32f1x0_adc.c ****     switch(channel_group){
 1139              		.loc 1 446 5 view .LVU322
 1140 0000 0128     		cmp	r0, #1
 1141 0002 02D0     		beq	.L119
 1142 0004 0228     		cmp	r0, #2
 1143 0006 0DD0     		beq	.L120
 1144 0008 7047     		bx	lr
 1145              	.L119:
 447:Drivers/GD32F1x0_standard_peripheral/Source/gd32f1x0_adc.c ****     case ADC_REGULAR_CHANNEL:
 448:Drivers/GD32F1x0_standard_peripheral/Source/gd32f1x0_adc.c ****         ADC_CTL1 &= ~((uint32_t)ADC_CTL1_ETSRC);
 1146              		.loc 1 448 9 view .LVU323
 1147              		.loc 1 448 18 is_stmt 0 view .LVU324
 1148 000a 094B     		ldr	r3, .L123
 1149 000c D3F80824 		ldr	r2, [r3, #1032]
 1150 0010 22F46022 		bic	r2, r2, #917504
 1151              	.L122:
 449:Drivers/GD32F1x0_standard_peripheral/Source/gd32f1x0_adc.c ****         ADC_CTL1 |= (uint32_t)external_trigger_source;
 450:Drivers/GD32F1x0_standard_peripheral/Source/gd32f1x0_adc.c ****         break;
 451:Drivers/GD32F1x0_standard_peripheral/Source/gd32f1x0_adc.c ****     case ADC_INSERTED_CHANNEL:
 452:Drivers/GD32F1x0_standard_peripheral/Source/gd32f1x0_adc.c ****         ADC_CTL1 &= ~((uint32_t)ADC_CTL1_ETSIC);
 1152              		.loc 1 452 18 view .LVU325
 1153 0014 C3F80824 		str	r2, [r3, #1032]
 453:Drivers/GD32F1x0_standard_peripheral/Source/gd32f1x0_adc.c ****         ADC_CTL1 |= (uint32_t)external_trigger_source;
 1154              		.loc 1 453 9 is_stmt 1 view .LVU326
 1155              		.loc 1 453 18 is_stmt 0 view .LVU327
 1156 0018 D3F80824 		ldr	r2, [r3, #1032]
 1157 001c 1143     		orrs	r1, r1, r2
 1158              	.LVL73:
 1159              		.loc 1 453 18 view .LVU328
 1160 001e C3F80814 		str	r1, [r3, #1032]
 454:Drivers/GD32F1x0_standard_peripheral/Source/gd32f1x0_adc.c ****         break;
 1161              		.loc 1 454 9 is_stmt 1 view .LVU329
 455:Drivers/GD32F1x0_standard_peripheral/Source/gd32f1x0_adc.c ****     default:
 456:Drivers/GD32F1x0_standard_peripheral/Source/gd32f1x0_adc.c ****         break;
 457:Drivers/GD32F1x0_standard_peripheral/Source/gd32f1x0_adc.c ****     }
 458:Drivers/GD32F1x0_standard_peripheral/Source/gd32f1x0_adc.c **** }
 1162              		.loc 1 458 1 is_stmt 0 view .LVU330
 1163 0022 7047     		bx	lr
 1164              	.LVL74:
 1165              	.L120:
 452:Drivers/GD32F1x0_standard_peripheral/Source/gd32f1x0_adc.c ****         ADC_CTL1 |= (uint32_t)external_trigger_source;
 1166              		.loc 1 452 9 is_stmt 1 view .LVU331
 452:Drivers/GD32F1x0_standard_peripheral/Source/gd32f1x0_adc.c ****         ADC_CTL1 |= (uint32_t)external_trigger_source;
 1167              		.loc 1 452 18 is_stmt 0 view .LVU332
 1168 0024 024B     		ldr	r3, .L123
 1169 0026 D3F80824 		ldr	r2, [r3, #1032]
 1170 002a 22F4E042 		bic	r2, r2, #28672
 1171 002e F1E7     		b	.L122
 1172              	.L124:
 1173              		.align	2
 1174              	.L123:
 1175 0030 00200140 		.word	1073815552
 1176              		.cfi_endproc
ARM GAS  /tmp/cczyuVXH.s 			page 31


 1177              	.LFE74:
 1179              		.section	.text.adc_software_trigger_enable,"ax",%progbits
 1180              		.align	1
 1181              		.global	adc_software_trigger_enable
 1182              		.syntax unified
 1183              		.thumb
 1184              		.thumb_func
 1185              		.fpu softvfp
 1187              	adc_software_trigger_enable:
 1188              	.LVL75:
 1189              	.LFB75:
 459:Drivers/GD32F1x0_standard_peripheral/Source/gd32f1x0_adc.c **** 
 460:Drivers/GD32F1x0_standard_peripheral/Source/gd32f1x0_adc.c **** /*!
 461:Drivers/GD32F1x0_standard_peripheral/Source/gd32f1x0_adc.c ****     \brief      adc software trigger enable
 462:Drivers/GD32F1x0_standard_peripheral/Source/gd32f1x0_adc.c ****     \param[in]  adc_channel_group: select the channel group
 463:Drivers/GD32F1x0_standard_peripheral/Source/gd32f1x0_adc.c ****       \arg        ADC_REGULAR_CHANNEL: regular channel group
 464:Drivers/GD32F1x0_standard_peripheral/Source/gd32f1x0_adc.c ****       \arg        ADC_INSERTED_CHANNEL: inserted channel group
 465:Drivers/GD32F1x0_standard_peripheral/Source/gd32f1x0_adc.c ****     \param[out] none
 466:Drivers/GD32F1x0_standard_peripheral/Source/gd32f1x0_adc.c ****     \retval     none
 467:Drivers/GD32F1x0_standard_peripheral/Source/gd32f1x0_adc.c **** */
 468:Drivers/GD32F1x0_standard_peripheral/Source/gd32f1x0_adc.c **** void adc_software_trigger_enable(uint8_t channel_group)
 469:Drivers/GD32F1x0_standard_peripheral/Source/gd32f1x0_adc.c **** {
 1190              		.loc 1 469 1 is_stmt 1 view -0
 1191              		.cfi_startproc
 1192              		@ args = 0, pretend = 0, frame = 0
 1193              		@ frame_needed = 0, uses_anonymous_args = 0
 1194              		@ link register save eliminated.
 470:Drivers/GD32F1x0_standard_peripheral/Source/gd32f1x0_adc.c ****     if(RESET != (channel_group & ADC_REGULAR_CHANNEL)){
 1195              		.loc 1 470 5 view .LVU334
 1196              		.loc 1 470 7 is_stmt 0 view .LVU335
 1197 0000 C207     		lsls	r2, r0, #31
 471:Drivers/GD32F1x0_standard_peripheral/Source/gd32f1x0_adc.c ****         ADC_CTL1 |= ADC_CTL1_SWRCST;
 1198              		.loc 1 471 9 is_stmt 1 view .LVU336
 1199              		.loc 1 471 18 is_stmt 0 view .LVU337
 1200 0002 41BF     		itttt	mi
 1201 0004 084A     		ldrmi	r2, .L134
 1202 0006 D2F80834 		ldrmi	r3, [r2, #1032]
 1203 000a 43F48003 		orrmi	r3, r3, #4194304
 1204 000e C2F80834 		strmi	r3, [r2, #1032]
 472:Drivers/GD32F1x0_standard_peripheral/Source/gd32f1x0_adc.c ****     }
 473:Drivers/GD32F1x0_standard_peripheral/Source/gd32f1x0_adc.c ****     if(RESET != (channel_group & ADC_INSERTED_CHANNEL)){
 1205              		.loc 1 473 5 is_stmt 1 view .LVU338
 1206              		.loc 1 473 7 is_stmt 0 view .LVU339
 1207 0012 8307     		lsls	r3, r0, #30
 474:Drivers/GD32F1x0_standard_peripheral/Source/gd32f1x0_adc.c ****         ADC_CTL1 |= ADC_CTL1_SWICST;
 1208              		.loc 1 474 9 is_stmt 1 view .LVU340
 1209              		.loc 1 474 18 is_stmt 0 view .LVU341
 1210 0014 41BF     		itttt	mi
 1211 0016 044A     		ldrmi	r2, .L134
 1212 0018 D2F80834 		ldrmi	r3, [r2, #1032]
 1213 001c 43F40013 		orrmi	r3, r3, #2097152
 1214 0020 C2F80834 		strmi	r3, [r2, #1032]
 475:Drivers/GD32F1x0_standard_peripheral/Source/gd32f1x0_adc.c ****     }
 476:Drivers/GD32F1x0_standard_peripheral/Source/gd32f1x0_adc.c **** }
 1215              		.loc 1 476 1 view .LVU342
 1216 0024 7047     		bx	lr
 1217              	.L135:
ARM GAS  /tmp/cczyuVXH.s 			page 32


 1218 0026 00BF     		.align	2
 1219              	.L134:
 1220 0028 00200140 		.word	1073815552
 1221              		.cfi_endproc
 1222              	.LFE75:
 1224              		.section	.text.adc_regular_data_read,"ax",%progbits
 1225              		.align	1
 1226              		.global	adc_regular_data_read
 1227              		.syntax unified
 1228              		.thumb
 1229              		.thumb_func
 1230              		.fpu softvfp
 1232              	adc_regular_data_read:
 1233              	.LFB76:
 477:Drivers/GD32F1x0_standard_peripheral/Source/gd32f1x0_adc.c **** 
 478:Drivers/GD32F1x0_standard_peripheral/Source/gd32f1x0_adc.c **** /*!
 479:Drivers/GD32F1x0_standard_peripheral/Source/gd32f1x0_adc.c ****     \brief      adc regular group data register read
 480:Drivers/GD32F1x0_standard_peripheral/Source/gd32f1x0_adc.c ****     \param[in]  none
 481:Drivers/GD32F1x0_standard_peripheral/Source/gd32f1x0_adc.c ****     \param[out] none
 482:Drivers/GD32F1x0_standard_peripheral/Source/gd32f1x0_adc.c ****     \retval     the conversion value
 483:Drivers/GD32F1x0_standard_peripheral/Source/gd32f1x0_adc.c **** */
 484:Drivers/GD32F1x0_standard_peripheral/Source/gd32f1x0_adc.c **** uint16_t adc_regular_data_read(void)
 485:Drivers/GD32F1x0_standard_peripheral/Source/gd32f1x0_adc.c **** {
 1234              		.loc 1 485 1 is_stmt 1 view -0
 1235              		.cfi_startproc
 1236              		@ args = 0, pretend = 0, frame = 0
 1237              		@ frame_needed = 0, uses_anonymous_args = 0
 1238              		@ link register save eliminated.
 486:Drivers/GD32F1x0_standard_peripheral/Source/gd32f1x0_adc.c ****     return (uint16_t)(ADC_RDATA);
 1239              		.loc 1 486 5 view .LVU344
 1240              		.loc 1 486 23 is_stmt 0 view .LVU345
 1241 0000 024B     		ldr	r3, .L137
 1242 0002 D3F84C04 		ldr	r0, [r3, #1100]
 487:Drivers/GD32F1x0_standard_peripheral/Source/gd32f1x0_adc.c **** }
 1243              		.loc 1 487 1 view .LVU346
 1244 0006 80B2     		uxth	r0, r0
 1245 0008 7047     		bx	lr
 1246              	.L138:
 1247 000a 00BF     		.align	2
 1248              	.L137:
 1249 000c 00200140 		.word	1073815552
 1250              		.cfi_endproc
 1251              	.LFE76:
 1253              		.section	.text.adc_inserted_data_read,"ax",%progbits
 1254              		.align	1
 1255              		.global	adc_inserted_data_read
 1256              		.syntax unified
 1257              		.thumb
 1258              		.thumb_func
 1259              		.fpu softvfp
 1261              	adc_inserted_data_read:
 1262              	.LVL76:
 1263              	.LFB77:
 488:Drivers/GD32F1x0_standard_peripheral/Source/gd32f1x0_adc.c **** 
 489:Drivers/GD32F1x0_standard_peripheral/Source/gd32f1x0_adc.c **** /*!
 490:Drivers/GD32F1x0_standard_peripheral/Source/gd32f1x0_adc.c ****     \brief      adc inserted group data register read
 491:Drivers/GD32F1x0_standard_peripheral/Source/gd32f1x0_adc.c ****     \param[in]  inserted_channel : insert channel select
ARM GAS  /tmp/cczyuVXH.s 			page 33


 492:Drivers/GD32F1x0_standard_peripheral/Source/gd32f1x0_adc.c ****       \arg        ADC_INSERTED_CHANNEL_0: inserted channel0
 493:Drivers/GD32F1x0_standard_peripheral/Source/gd32f1x0_adc.c ****       \arg        ADC_INSERTED_CHANNEL_1: inserted channel1
 494:Drivers/GD32F1x0_standard_peripheral/Source/gd32f1x0_adc.c ****       \arg        ADC_INSERTED_CHANNEL_2: inserted channel2
 495:Drivers/GD32F1x0_standard_peripheral/Source/gd32f1x0_adc.c ****       \arg        ADC_INSERTED_CHANNEL_3: inserted channel3
 496:Drivers/GD32F1x0_standard_peripheral/Source/gd32f1x0_adc.c ****     \param[out] none
 497:Drivers/GD32F1x0_standard_peripheral/Source/gd32f1x0_adc.c ****     \retval     the conversion value
 498:Drivers/GD32F1x0_standard_peripheral/Source/gd32f1x0_adc.c **** */
 499:Drivers/GD32F1x0_standard_peripheral/Source/gd32f1x0_adc.c **** uint16_t adc_inserted_data_read(uint8_t inserted_channel)
 500:Drivers/GD32F1x0_standard_peripheral/Source/gd32f1x0_adc.c **** {
 1264              		.loc 1 500 1 is_stmt 1 view -0
 1265              		.cfi_startproc
 1266              		@ args = 0, pretend = 0, frame = 0
 1267              		@ frame_needed = 0, uses_anonymous_args = 0
 1268              		@ link register save eliminated.
 501:Drivers/GD32F1x0_standard_peripheral/Source/gd32f1x0_adc.c ****     uint32_t idata;
 1269              		.loc 1 501 5 view .LVU348
 502:Drivers/GD32F1x0_standard_peripheral/Source/gd32f1x0_adc.c ****     /* read the data of the selected channel */
 503:Drivers/GD32F1x0_standard_peripheral/Source/gd32f1x0_adc.c ****     switch(inserted_channel){
 1270              		.loc 1 503 5 view .LVU349
 1271 0000 0328     		cmp	r0, #3
 1272 0002 14D8     		bhi	.L146
 1273 0004 DFE800F0 		tbb	[pc, r0]
 1274              	.L142:
 1275 0008 02       		.byte	(.L145-.L142)/2
 1276 0009 07       		.byte	(.L144-.L142)/2
 1277 000a 0B       		.byte	(.L143-.L142)/2
 1278 000b 0F       		.byte	(.L141-.L142)/2
 1279              		.p2align 1
 1280              	.L145:
 504:Drivers/GD32F1x0_standard_peripheral/Source/gd32f1x0_adc.c ****     case ADC_INSERTED_CHANNEL_0:
 505:Drivers/GD32F1x0_standard_peripheral/Source/gd32f1x0_adc.c ****         idata = ADC_IDATA0;
 1281              		.loc 1 505 9 view .LVU350
 1282              		.loc 1 505 15 is_stmt 0 view .LVU351
 1283 000c 094B     		ldr	r3, .L147
 1284 000e D3F83C04 		ldr	r0, [r3, #1084]
 1285              	.LVL77:
 506:Drivers/GD32F1x0_standard_peripheral/Source/gd32f1x0_adc.c ****         break;
 1286              		.loc 1 506 9 is_stmt 1 view .LVU352
 1287              	.L140:
 507:Drivers/GD32F1x0_standard_peripheral/Source/gd32f1x0_adc.c ****     case ADC_INSERTED_CHANNEL_1:
 508:Drivers/GD32F1x0_standard_peripheral/Source/gd32f1x0_adc.c ****         idata = ADC_IDATA1;
 509:Drivers/GD32F1x0_standard_peripheral/Source/gd32f1x0_adc.c ****         break;
 510:Drivers/GD32F1x0_standard_peripheral/Source/gd32f1x0_adc.c ****     case ADC_INSERTED_CHANNEL_2:
 511:Drivers/GD32F1x0_standard_peripheral/Source/gd32f1x0_adc.c ****         idata = ADC_IDATA2;
 512:Drivers/GD32F1x0_standard_peripheral/Source/gd32f1x0_adc.c ****         break;
 513:Drivers/GD32F1x0_standard_peripheral/Source/gd32f1x0_adc.c ****     case ADC_INSERTED_CHANNEL_3:
 514:Drivers/GD32F1x0_standard_peripheral/Source/gd32f1x0_adc.c ****         idata = ADC_IDATA3;
 515:Drivers/GD32F1x0_standard_peripheral/Source/gd32f1x0_adc.c ****         break;
 516:Drivers/GD32F1x0_standard_peripheral/Source/gd32f1x0_adc.c ****     default:
 517:Drivers/GD32F1x0_standard_peripheral/Source/gd32f1x0_adc.c ****         idata = 0U;
 518:Drivers/GD32F1x0_standard_peripheral/Source/gd32f1x0_adc.c ****         break;
 519:Drivers/GD32F1x0_standard_peripheral/Source/gd32f1x0_adc.c ****     }
 520:Drivers/GD32F1x0_standard_peripheral/Source/gd32f1x0_adc.c ****     return (uint16_t)idata;
 1288              		.loc 1 520 5 view .LVU353
 521:Drivers/GD32F1x0_standard_peripheral/Source/gd32f1x0_adc.c **** }
 1289              		.loc 1 521 1 is_stmt 0 view .LVU354
 1290 0012 80B2     		uxth	r0, r0
ARM GAS  /tmp/cczyuVXH.s 			page 34


 1291              	.LVL78:
 1292              		.loc 1 521 1 view .LVU355
 1293 0014 7047     		bx	lr
 1294              	.LVL79:
 1295              	.L144:
 508:Drivers/GD32F1x0_standard_peripheral/Source/gd32f1x0_adc.c ****         break;
 1296              		.loc 1 508 9 is_stmt 1 view .LVU356
 508:Drivers/GD32F1x0_standard_peripheral/Source/gd32f1x0_adc.c ****         break;
 1297              		.loc 1 508 15 is_stmt 0 view .LVU357
 1298 0016 074B     		ldr	r3, .L147
 1299 0018 D3F84004 		ldr	r0, [r3, #1088]
 1300              	.LVL80:
 509:Drivers/GD32F1x0_standard_peripheral/Source/gd32f1x0_adc.c ****     case ADC_INSERTED_CHANNEL_2:
 1301              		.loc 1 509 9 is_stmt 1 view .LVU358
 1302 001c F9E7     		b	.L140
 1303              	.LVL81:
 1304              	.L143:
 511:Drivers/GD32F1x0_standard_peripheral/Source/gd32f1x0_adc.c ****         break;
 1305              		.loc 1 511 9 view .LVU359
 511:Drivers/GD32F1x0_standard_peripheral/Source/gd32f1x0_adc.c ****         break;
 1306              		.loc 1 511 15 is_stmt 0 view .LVU360
 1307 001e 054B     		ldr	r3, .L147
 1308 0020 D3F84404 		ldr	r0, [r3, #1092]
 1309              	.LVL82:
 512:Drivers/GD32F1x0_standard_peripheral/Source/gd32f1x0_adc.c ****     case ADC_INSERTED_CHANNEL_3:
 1310              		.loc 1 512 9 is_stmt 1 view .LVU361
 1311 0024 F5E7     		b	.L140
 1312              	.LVL83:
 1313              	.L141:
 514:Drivers/GD32F1x0_standard_peripheral/Source/gd32f1x0_adc.c ****         break;
 1314              		.loc 1 514 9 view .LVU362
 514:Drivers/GD32F1x0_standard_peripheral/Source/gd32f1x0_adc.c ****         break;
 1315              		.loc 1 514 15 is_stmt 0 view .LVU363
 1316 0026 034B     		ldr	r3, .L147
 1317 0028 D3F84804 		ldr	r0, [r3, #1096]
 1318              	.LVL84:
 515:Drivers/GD32F1x0_standard_peripheral/Source/gd32f1x0_adc.c ****     default:
 1319              		.loc 1 515 9 is_stmt 1 view .LVU364
 1320 002c F1E7     		b	.L140
 1321              	.LVL85:
 1322              	.L146:
 503:Drivers/GD32F1x0_standard_peripheral/Source/gd32f1x0_adc.c ****     case ADC_INSERTED_CHANNEL_0:
 1323              		.loc 1 503 5 is_stmt 0 view .LVU365
 1324 002e 0020     		movs	r0, #0
 1325              	.LVL86:
 503:Drivers/GD32F1x0_standard_peripheral/Source/gd32f1x0_adc.c ****     case ADC_INSERTED_CHANNEL_0:
 1326              		.loc 1 503 5 view .LVU366
 1327 0030 EFE7     		b	.L140
 1328              	.L148:
 1329 0032 00BF     		.align	2
 1330              	.L147:
 1331 0034 00200140 		.word	1073815552
 1332              		.cfi_endproc
 1333              	.LFE77:
 1335              		.section	.text.adc_flag_get,"ax",%progbits
 1336              		.align	1
 1337              		.global	adc_flag_get
ARM GAS  /tmp/cczyuVXH.s 			page 35


 1338              		.syntax unified
 1339              		.thumb
 1340              		.thumb_func
 1341              		.fpu softvfp
 1343              	adc_flag_get:
 1344              	.LVL87:
 1345              	.LFB78:
 522:Drivers/GD32F1x0_standard_peripheral/Source/gd32f1x0_adc.c **** 
 523:Drivers/GD32F1x0_standard_peripheral/Source/gd32f1x0_adc.c **** /*!
 524:Drivers/GD32F1x0_standard_peripheral/Source/gd32f1x0_adc.c ****     \brief      get the ADC flag bits
 525:Drivers/GD32F1x0_standard_peripheral/Source/gd32f1x0_adc.c ****     \param[in]  flag: the adc flag bits
 526:Drivers/GD32F1x0_standard_peripheral/Source/gd32f1x0_adc.c ****       \arg        ADC_FLAG_WDE: analog watchdog event flag
 527:Drivers/GD32F1x0_standard_peripheral/Source/gd32f1x0_adc.c ****       \arg        ADC_FLAG_EOC: end of group conversion flag
 528:Drivers/GD32F1x0_standard_peripheral/Source/gd32f1x0_adc.c ****       \arg        ADC_FLAG_EOIC: end of inserted group conversion flag
 529:Drivers/GD32F1x0_standard_peripheral/Source/gd32f1x0_adc.c ****       \arg        ADC_FLAG_STIC: start flag of inserted channel group
 530:Drivers/GD32F1x0_standard_peripheral/Source/gd32f1x0_adc.c ****       \arg        ADC_FLAG_STRC: start flag of regular channel group
 531:Drivers/GD32F1x0_standard_peripheral/Source/gd32f1x0_adc.c ****     \param[out] none
 532:Drivers/GD32F1x0_standard_peripheral/Source/gd32f1x0_adc.c ****     \retval     FlagStatus: SET or RESET
 533:Drivers/GD32F1x0_standard_peripheral/Source/gd32f1x0_adc.c **** */
 534:Drivers/GD32F1x0_standard_peripheral/Source/gd32f1x0_adc.c **** FlagStatus adc_flag_get(uint32_t flag)
 535:Drivers/GD32F1x0_standard_peripheral/Source/gd32f1x0_adc.c **** {
 1346              		.loc 1 535 1 is_stmt 1 view -0
 1347              		.cfi_startproc
 1348              		@ args = 0, pretend = 0, frame = 0
 1349              		@ frame_needed = 0, uses_anonymous_args = 0
 1350              		@ link register save eliminated.
 536:Drivers/GD32F1x0_standard_peripheral/Source/gd32f1x0_adc.c ****     FlagStatus reval = RESET;
 1351              		.loc 1 536 5 view .LVU368
 537:Drivers/GD32F1x0_standard_peripheral/Source/gd32f1x0_adc.c ****     
 538:Drivers/GD32F1x0_standard_peripheral/Source/gd32f1x0_adc.c ****     if(ADC_STAT & flag){
 1352              		.loc 1 538 5 view .LVU369
 1353              		.loc 1 538 8 is_stmt 0 view .LVU370
 1354 0000 034B     		ldr	r3, .L150
 1355 0002 D3F80034 		ldr	r3, [r3, #1024]
 1356              	.LVL88:
 539:Drivers/GD32F1x0_standard_peripheral/Source/gd32f1x0_adc.c ****         reval = SET;
 540:Drivers/GD32F1x0_standard_peripheral/Source/gd32f1x0_adc.c ****     }
 541:Drivers/GD32F1x0_standard_peripheral/Source/gd32f1x0_adc.c ****     return reval;
 1357              		.loc 1 541 5 is_stmt 1 view .LVU371
 538:Drivers/GD32F1x0_standard_peripheral/Source/gd32f1x0_adc.c ****         reval = SET;
 1358              		.loc 1 538 7 is_stmt 0 view .LVU372
 1359 0006 0342     		tst	r3, r0
 542:Drivers/GD32F1x0_standard_peripheral/Source/gd32f1x0_adc.c **** 
 543:Drivers/GD32F1x0_standard_peripheral/Source/gd32f1x0_adc.c **** }
 1360              		.loc 1 543 1 view .LVU373
 1361 0008 14BF     		ite	ne
 1362 000a 0120     		movne	r0, #1
 1363              	.LVL89:
 1364              		.loc 1 543 1 view .LVU374
 1365 000c 0020     		moveq	r0, #0
 1366 000e 7047     		bx	lr
 1367              	.L151:
 1368              		.align	2
 1369              	.L150:
 1370 0010 00200140 		.word	1073815552
 1371              		.cfi_endproc
 1372              	.LFE78:
ARM GAS  /tmp/cczyuVXH.s 			page 36


 1374              		.section	.text.adc_flag_clear,"ax",%progbits
 1375              		.align	1
 1376              		.global	adc_flag_clear
 1377              		.syntax unified
 1378              		.thumb
 1379              		.thumb_func
 1380              		.fpu softvfp
 1382              	adc_flag_clear:
 1383              	.LVL90:
 1384              	.LFB79:
 544:Drivers/GD32F1x0_standard_peripheral/Source/gd32f1x0_adc.c **** 
 545:Drivers/GD32F1x0_standard_peripheral/Source/gd32f1x0_adc.c **** /*!
 546:Drivers/GD32F1x0_standard_peripheral/Source/gd32f1x0_adc.c ****     \brief      clear the ADC status flag
 547:Drivers/GD32F1x0_standard_peripheral/Source/gd32f1x0_adc.c ****     \param[in]  flag: the adc flag bits
 548:Drivers/GD32F1x0_standard_peripheral/Source/gd32f1x0_adc.c ****       \arg        ADC_FLAG_WDE: analog watchdog event flag
 549:Drivers/GD32F1x0_standard_peripheral/Source/gd32f1x0_adc.c ****       \arg        ADC_FLAG_EOC: end of group conversion flag
 550:Drivers/GD32F1x0_standard_peripheral/Source/gd32f1x0_adc.c ****       \arg        ADC_FLAG_EOIC: end of inserted group conversion flag
 551:Drivers/GD32F1x0_standard_peripheral/Source/gd32f1x0_adc.c ****       \arg        ADC_FLAG_STIC: start flag of inserted channel group
 552:Drivers/GD32F1x0_standard_peripheral/Source/gd32f1x0_adc.c ****       \arg        ADC_FLAG_STRC: start flag of regular channel group
 553:Drivers/GD32F1x0_standard_peripheral/Source/gd32f1x0_adc.c ****     \param[out] none
 554:Drivers/GD32F1x0_standard_peripheral/Source/gd32f1x0_adc.c ****     \retval     none
 555:Drivers/GD32F1x0_standard_peripheral/Source/gd32f1x0_adc.c **** */
 556:Drivers/GD32F1x0_standard_peripheral/Source/gd32f1x0_adc.c **** void adc_flag_clear(uint32_t flag)
 557:Drivers/GD32F1x0_standard_peripheral/Source/gd32f1x0_adc.c **** {
 1385              		.loc 1 557 1 is_stmt 1 view -0
 1386              		.cfi_startproc
 1387              		@ args = 0, pretend = 0, frame = 0
 1388              		@ frame_needed = 0, uses_anonymous_args = 0
 1389              		@ link register save eliminated.
 558:Drivers/GD32F1x0_standard_peripheral/Source/gd32f1x0_adc.c ****     ADC_STAT &= ~((uint32_t)flag);
 1390              		.loc 1 558 5 view .LVU376
 1391              		.loc 1 558 14 is_stmt 0 view .LVU377
 1392 0000 034A     		ldr	r2, .L153
 1393 0002 D2F80034 		ldr	r3, [r2, #1024]
 1394 0006 23EA0003 		bic	r3, r3, r0
 1395 000a C2F80034 		str	r3, [r2, #1024]
 559:Drivers/GD32F1x0_standard_peripheral/Source/gd32f1x0_adc.c **** }
 1396              		.loc 1 559 1 view .LVU378
 1397 000e 7047     		bx	lr
 1398              	.L154:
 1399              		.align	2
 1400              	.L153:
 1401 0010 00200140 		.word	1073815552
 1402              		.cfi_endproc
 1403              	.LFE79:
 1405              		.section	.text.adc_interrupt_flag_get,"ax",%progbits
 1406              		.align	1
 1407              		.global	adc_interrupt_flag_get
 1408              		.syntax unified
 1409              		.thumb
 1410              		.thumb_func
 1411              		.fpu softvfp
 1413              	adc_interrupt_flag_get:
 1414              	.LVL91:
 1415              	.LFB80:
 560:Drivers/GD32F1x0_standard_peripheral/Source/gd32f1x0_adc.c **** 
 561:Drivers/GD32F1x0_standard_peripheral/Source/gd32f1x0_adc.c **** /*!
ARM GAS  /tmp/cczyuVXH.s 			page 37


 562:Drivers/GD32F1x0_standard_peripheral/Source/gd32f1x0_adc.c ****     \brief      get the ADC interrupt bits
 563:Drivers/GD32F1x0_standard_peripheral/Source/gd32f1x0_adc.c ****     \param[in]  flag: the adc interrupt flag
 564:Drivers/GD32F1x0_standard_peripheral/Source/gd32f1x0_adc.c ****       \arg        ADC_INT_FLAG_WDE: analog watchdog interrupt flag
 565:Drivers/GD32F1x0_standard_peripheral/Source/gd32f1x0_adc.c ****       \arg        ADC_INT_FLAG_EOC: end of group conversion interrupt flag
 566:Drivers/GD32F1x0_standard_peripheral/Source/gd32f1x0_adc.c ****       \arg        ADC_INT_FLAG_EOIC: end of inserted group conversion interrupt flag
 567:Drivers/GD32F1x0_standard_peripheral/Source/gd32f1x0_adc.c ****     \param[out] none
 568:Drivers/GD32F1x0_standard_peripheral/Source/gd32f1x0_adc.c ****     \retval     FlagStatus: SET or RESET
 569:Drivers/GD32F1x0_standard_peripheral/Source/gd32f1x0_adc.c **** */
 570:Drivers/GD32F1x0_standard_peripheral/Source/gd32f1x0_adc.c **** FlagStatus adc_interrupt_flag_get(uint32_t flag)
 571:Drivers/GD32F1x0_standard_peripheral/Source/gd32f1x0_adc.c **** {
 1416              		.loc 1 571 1 is_stmt 1 view -0
 1417              		.cfi_startproc
 1418              		@ args = 0, pretend = 0, frame = 0
 1419              		@ frame_needed = 0, uses_anonymous_args = 0
 1420              		@ link register save eliminated.
 572:Drivers/GD32F1x0_standard_peripheral/Source/gd32f1x0_adc.c ****     FlagStatus interrupt_flag = RESET;
 1421              		.loc 1 572 5 view .LVU380
 573:Drivers/GD32F1x0_standard_peripheral/Source/gd32f1x0_adc.c ****     uint32_t state;
 1422              		.loc 1 573 5 view .LVU381
 574:Drivers/GD32F1x0_standard_peripheral/Source/gd32f1x0_adc.c ****     /* check the interrupt bits */
 575:Drivers/GD32F1x0_standard_peripheral/Source/gd32f1x0_adc.c ****     switch(flag){
 1423              		.loc 1 575 5 view .LVU382
 1424 0000 0228     		cmp	r0, #2
 1425 0002 0ED0     		beq	.L156
 1426 0004 0428     		cmp	r0, #4
 1427 0006 17D0     		beq	.L157
 1428 0008 0128     		cmp	r0, #1
 1429 000a 20D1     		bne	.L159
 576:Drivers/GD32F1x0_standard_peripheral/Source/gd32f1x0_adc.c ****     case ADC_INT_FLAG_WDE:
 577:Drivers/GD32F1x0_standard_peripheral/Source/gd32f1x0_adc.c ****         state = ADC_STAT & ADC_STAT_WDE;
 1430              		.loc 1 577 9 view .LVU383
 1431              		.loc 1 577 17 is_stmt 0 view .LVU384
 1432 000c 114B     		ldr	r3, .L163
 1433 000e D3F80024 		ldr	r2, [r3, #1024]
 1434              	.LVL92:
 578:Drivers/GD32F1x0_standard_peripheral/Source/gd32f1x0_adc.c ****         if((ADC_CTL0 & ADC_CTL0_WDEIE) && state){
 1435              		.loc 1 578 9 is_stmt 1 view .LVU385
 1436              		.loc 1 578 13 is_stmt 0 view .LVU386
 1437 0012 D3F80404 		ldr	r0, [r3, #1028]
 1438              	.LVL93:
 1439              		.loc 1 578 11 view .LVU387
 1440 0016 10F04000 		ands	r0, r0, #64
 1441 001a 19D0     		beq	.L158
 1442              		.loc 1 578 40 discriminator 1 view .LVU388
 1443 001c 02F00100 		and	r0, r2, #1
 1444              	.LVL94:
 1445              		.loc 1 578 40 discriminator 1 view .LVU389
 1446 0020 7047     		bx	lr
 1447              	.LVL95:
 1448              	.L156:
 579:Drivers/GD32F1x0_standard_peripheral/Source/gd32f1x0_adc.c ****           interrupt_flag = SET;
 580:Drivers/GD32F1x0_standard_peripheral/Source/gd32f1x0_adc.c ****         }
 581:Drivers/GD32F1x0_standard_peripheral/Source/gd32f1x0_adc.c ****         break;
 582:Drivers/GD32F1x0_standard_peripheral/Source/gd32f1x0_adc.c ****     case ADC_INT_FLAG_EOC:
 583:Drivers/GD32F1x0_standard_peripheral/Source/gd32f1x0_adc.c ****         state = ADC_STAT & ADC_STAT_EOC;
 1449              		.loc 1 583 9 is_stmt 1 view .LVU390
 1450              		.loc 1 583 17 is_stmt 0 view .LVU391
ARM GAS  /tmp/cczyuVXH.s 			page 38


 1451 0022 0C4B     		ldr	r3, .L163
 1452 0024 D3F80024 		ldr	r2, [r3, #1024]
 1453              	.LVL96:
 584:Drivers/GD32F1x0_standard_peripheral/Source/gd32f1x0_adc.c ****         if((ADC_CTL0 & ADC_CTL0_EOCIE) && state){
 1454              		.loc 1 584 9 is_stmt 1 view .LVU392
 1455              		.loc 1 584 13 is_stmt 0 view .LVU393
 1456 0028 D3F80404 		ldr	r0, [r3, #1028]
 1457              	.LVL97:
 1458              		.loc 1 584 11 view .LVU394
 1459 002c 10F02000 		ands	r0, r0, #32
 1460 0030 0ED0     		beq	.L158
 572:Drivers/GD32F1x0_standard_peripheral/Source/gd32f1x0_adc.c ****     uint32_t state;
 1461              		.loc 1 572 16 discriminator 1 view .LVU395
 1462 0032 C2F34000 		ubfx	r0, r2, #1, #1
 1463 0036 7047     		bx	lr
 1464              	.LVL98:
 1465              	.L157:
 585:Drivers/GD32F1x0_standard_peripheral/Source/gd32f1x0_adc.c ****             interrupt_flag = SET;
 586:Drivers/GD32F1x0_standard_peripheral/Source/gd32f1x0_adc.c ****         }
 587:Drivers/GD32F1x0_standard_peripheral/Source/gd32f1x0_adc.c ****         break;
 588:Drivers/GD32F1x0_standard_peripheral/Source/gd32f1x0_adc.c ****     case ADC_INT_FLAG_EOIC:
 589:Drivers/GD32F1x0_standard_peripheral/Source/gd32f1x0_adc.c ****         state = ADC_STAT & ADC_STAT_EOIC;
 1466              		.loc 1 589 9 is_stmt 1 view .LVU396
 1467              		.loc 1 589 17 is_stmt 0 view .LVU397
 1468 0038 064B     		ldr	r3, .L163
 1469 003a D3F80024 		ldr	r2, [r3, #1024]
 1470              	.LVL99:
 590:Drivers/GD32F1x0_standard_peripheral/Source/gd32f1x0_adc.c ****         if((ADC_CTL0 & ADC_CTL0_EOICIE) && state){
 1471              		.loc 1 590 9 is_stmt 1 view .LVU398
 1472              		.loc 1 590 13 is_stmt 0 view .LVU399
 1473 003e D3F80404 		ldr	r0, [r3, #1028]
 1474              	.LVL100:
 1475              		.loc 1 590 11 view .LVU400
 1476 0042 10F08000 		ands	r0, r0, #128
 1477 0046 03D0     		beq	.L158
 572:Drivers/GD32F1x0_standard_peripheral/Source/gd32f1x0_adc.c ****     uint32_t state;
 1478              		.loc 1 572 16 discriminator 1 view .LVU401
 1479 0048 C2F38000 		ubfx	r0, r2, #2, #1
 1480 004c 7047     		bx	lr
 1481              	.LVL101:
 1482              	.L159:
 575:Drivers/GD32F1x0_standard_peripheral/Source/gd32f1x0_adc.c ****     case ADC_INT_FLAG_WDE:
 1483              		.loc 1 575 5 view .LVU402
 1484 004e 0020     		movs	r0, #0
 1485              	.LVL102:
 1486              	.L158:
 591:Drivers/GD32F1x0_standard_peripheral/Source/gd32f1x0_adc.c ****             interrupt_flag = SET;
 592:Drivers/GD32F1x0_standard_peripheral/Source/gd32f1x0_adc.c ****         }
 593:Drivers/GD32F1x0_standard_peripheral/Source/gd32f1x0_adc.c ****         break;
 594:Drivers/GD32F1x0_standard_peripheral/Source/gd32f1x0_adc.c ****     default:
 595:Drivers/GD32F1x0_standard_peripheral/Source/gd32f1x0_adc.c ****         break;
 596:Drivers/GD32F1x0_standard_peripheral/Source/gd32f1x0_adc.c ****     }
 597:Drivers/GD32F1x0_standard_peripheral/Source/gd32f1x0_adc.c **** 
 598:Drivers/GD32F1x0_standard_peripheral/Source/gd32f1x0_adc.c ****     return interrupt_flag;
 1487              		.loc 1 598 5 is_stmt 1 view .LVU403
 599:Drivers/GD32F1x0_standard_peripheral/Source/gd32f1x0_adc.c **** }
 1488              		.loc 1 599 1 is_stmt 0 view .LVU404
ARM GAS  /tmp/cczyuVXH.s 			page 39


 1489 0050 7047     		bx	lr
 1490              	.L164:
 1491 0052 00BF     		.align	2
 1492              	.L163:
 1493 0054 00200140 		.word	1073815552
 1494              		.cfi_endproc
 1495              	.LFE80:
 1497              		.section	.text.adc_interrupt_flag_clear,"ax",%progbits
 1498              		.align	1
 1499              		.global	adc_interrupt_flag_clear
 1500              		.syntax unified
 1501              		.thumb
 1502              		.thumb_func
 1503              		.fpu softvfp
 1505              	adc_interrupt_flag_clear:
 1506              	.LFB89:
 1507              		.cfi_startproc
 1508              		@ args = 0, pretend = 0, frame = 0
 1509              		@ frame_needed = 0, uses_anonymous_args = 0
 1510              		@ link register save eliminated.
 1511 0000 FFF7FEBF 		b	adc_flag_clear
 1512              		.cfi_endproc
 1513              	.LFE89:
 1515              		.section	.text.adc_interrupt_enable,"ax",%progbits
 1516              		.align	1
 1517              		.global	adc_interrupt_enable
 1518              		.syntax unified
 1519              		.thumb
 1520              		.thumb_func
 1521              		.fpu softvfp
 1523              	adc_interrupt_enable:
 1524              	.LVL103:
 1525              	.LFB82:
 600:Drivers/GD32F1x0_standard_peripheral/Source/gd32f1x0_adc.c **** 
 601:Drivers/GD32F1x0_standard_peripheral/Source/gd32f1x0_adc.c **** /*!
 602:Drivers/GD32F1x0_standard_peripheral/Source/gd32f1x0_adc.c ****     \brief      clear the ADC interrupt bits
 603:Drivers/GD32F1x0_standard_peripheral/Source/gd32f1x0_adc.c ****     \param[in]  adc_interrupt: the adc interrupt bits
 604:Drivers/GD32F1x0_standard_peripheral/Source/gd32f1x0_adc.c ****       \arg        ADC_INT_FLAG_WDE: analog watchdog interrupt flag
 605:Drivers/GD32F1x0_standard_peripheral/Source/gd32f1x0_adc.c ****       \arg        ADC_INT_FLAG_EOC: end of group conversion interrupt flag
 606:Drivers/GD32F1x0_standard_peripheral/Source/gd32f1x0_adc.c ****       \arg        ADC_INT_FLAG_EOIC: end of inserted group conversion interrupt flag
 607:Drivers/GD32F1x0_standard_peripheral/Source/gd32f1x0_adc.c ****     \param[out] none
 608:Drivers/GD32F1x0_standard_peripheral/Source/gd32f1x0_adc.c ****     \retval     none
 609:Drivers/GD32F1x0_standard_peripheral/Source/gd32f1x0_adc.c **** */
 610:Drivers/GD32F1x0_standard_peripheral/Source/gd32f1x0_adc.c **** void adc_interrupt_flag_clear(uint32_t flag)
 611:Drivers/GD32F1x0_standard_peripheral/Source/gd32f1x0_adc.c **** {
 612:Drivers/GD32F1x0_standard_peripheral/Source/gd32f1x0_adc.c ****     ADC_STAT &= ~((uint32_t)flag);
 613:Drivers/GD32F1x0_standard_peripheral/Source/gd32f1x0_adc.c **** }
 614:Drivers/GD32F1x0_standard_peripheral/Source/gd32f1x0_adc.c **** 
 615:Drivers/GD32F1x0_standard_peripheral/Source/gd32f1x0_adc.c **** /*!
 616:Drivers/GD32F1x0_standard_peripheral/Source/gd32f1x0_adc.c ****     \brief      enable ADC interrupt 
 617:Drivers/GD32F1x0_standard_peripheral/Source/gd32f1x0_adc.c ****     \param[in]  adc_periph: ADCx, x=0,1,2
 618:Drivers/GD32F1x0_standard_peripheral/Source/gd32f1x0_adc.c ****                 only one among these parameters can be selected
 619:Drivers/GD32F1x0_standard_peripheral/Source/gd32f1x0_adc.c ****     \param[in]  interrupt: the adc interrupt
 620:Drivers/GD32F1x0_standard_peripheral/Source/gd32f1x0_adc.c ****                 one or more parameters can be selected
 621:Drivers/GD32F1x0_standard_peripheral/Source/gd32f1x0_adc.c ****       \arg        ADC_INT_WDE: analog watchdog interrupt
 622:Drivers/GD32F1x0_standard_peripheral/Source/gd32f1x0_adc.c ****       \arg        ADC_INT_EOC: end of group conversion interrupt
 623:Drivers/GD32F1x0_standard_peripheral/Source/gd32f1x0_adc.c ****       \arg        ADC_INT_EOIC: end of inserted group conversion interrupt
ARM GAS  /tmp/cczyuVXH.s 			page 40


 624:Drivers/GD32F1x0_standard_peripheral/Source/gd32f1x0_adc.c ****     \param[out] none
 625:Drivers/GD32F1x0_standard_peripheral/Source/gd32f1x0_adc.c ****     \retval     none
 626:Drivers/GD32F1x0_standard_peripheral/Source/gd32f1x0_adc.c **** */
 627:Drivers/GD32F1x0_standard_peripheral/Source/gd32f1x0_adc.c **** void adc_interrupt_enable(uint32_t interrupt)
 628:Drivers/GD32F1x0_standard_peripheral/Source/gd32f1x0_adc.c **** {
 1526              		.loc 1 628 1 is_stmt 1 view -0
 1527              		.cfi_startproc
 1528              		@ args = 0, pretend = 0, frame = 0
 1529              		@ frame_needed = 0, uses_anonymous_args = 0
 1530              		@ link register save eliminated.
 629:Drivers/GD32F1x0_standard_peripheral/Source/gd32f1x0_adc.c ****     if(RESET != (interrupt & ADC_INT_WDE)){
 1531              		.loc 1 629 5 view .LVU406
 1532              		.loc 1 629 7 is_stmt 0 view .LVU407
 1533 0000 C107     		lsls	r1, r0, #31
 630:Drivers/GD32F1x0_standard_peripheral/Source/gd32f1x0_adc.c ****         ADC_CTL0 |= (uint32_t) ADC_CTL0_WDEIE;
 1534              		.loc 1 630 9 is_stmt 1 view .LVU408
 1535              		.loc 1 630 18 is_stmt 0 view .LVU409
 1536 0002 41BF     		itttt	mi
 1537 0004 0C4A     		ldrmi	r2, .L179
 1538 0006 D2F80434 		ldrmi	r3, [r2, #1028]
 1539 000a 43F04003 		orrmi	r3, r3, #64
 1540 000e C2F80434 		strmi	r3, [r2, #1028]
 631:Drivers/GD32F1x0_standard_peripheral/Source/gd32f1x0_adc.c ****     }
 632:Drivers/GD32F1x0_standard_peripheral/Source/gd32f1x0_adc.c **** 
 633:Drivers/GD32F1x0_standard_peripheral/Source/gd32f1x0_adc.c ****     if(RESET != (interrupt & ADC_INT_EOC)){
 1541              		.loc 1 633 5 is_stmt 1 view .LVU410
 1542              		.loc 1 633 7 is_stmt 0 view .LVU411
 1543 0012 8207     		lsls	r2, r0, #30
 634:Drivers/GD32F1x0_standard_peripheral/Source/gd32f1x0_adc.c ****         ADC_CTL0 |= (uint32_t) ADC_CTL0_EOCIE;
 1544              		.loc 1 634 9 is_stmt 1 view .LVU412
 1545              		.loc 1 634 18 is_stmt 0 view .LVU413
 1546 0014 41BF     		itttt	mi
 1547 0016 084A     		ldrmi	r2, .L179
 1548 0018 D2F80434 		ldrmi	r3, [r2, #1028]
 1549 001c 43F02003 		orrmi	r3, r3, #32
 1550 0020 C2F80434 		strmi	r3, [r2, #1028]
 635:Drivers/GD32F1x0_standard_peripheral/Source/gd32f1x0_adc.c ****     }
 636:Drivers/GD32F1x0_standard_peripheral/Source/gd32f1x0_adc.c **** 
 637:Drivers/GD32F1x0_standard_peripheral/Source/gd32f1x0_adc.c ****     if(RESET != (interrupt & ADC_INT_EOIC)){
 1551              		.loc 1 637 5 is_stmt 1 view .LVU414
 1552              		.loc 1 637 7 is_stmt 0 view .LVU415
 1553 0024 4307     		lsls	r3, r0, #29
 638:Drivers/GD32F1x0_standard_peripheral/Source/gd32f1x0_adc.c ****         ADC_CTL0 |= (uint32_t) ADC_CTL0_EOICIE;
 1554              		.loc 1 638 9 is_stmt 1 view .LVU416
 1555              		.loc 1 638 18 is_stmt 0 view .LVU417
 1556 0026 41BF     		itttt	mi
 1557 0028 034A     		ldrmi	r2, .L179
 1558 002a D2F80434 		ldrmi	r3, [r2, #1028]
 1559 002e 43F08003 		orrmi	r3, r3, #128
 1560 0032 C2F80434 		strmi	r3, [r2, #1028]
 639:Drivers/GD32F1x0_standard_peripheral/Source/gd32f1x0_adc.c ****     }
 640:Drivers/GD32F1x0_standard_peripheral/Source/gd32f1x0_adc.c **** }
 1561              		.loc 1 640 1 view .LVU418
 1562 0036 7047     		bx	lr
 1563              	.L180:
 1564              		.align	2
 1565              	.L179:
ARM GAS  /tmp/cczyuVXH.s 			page 41


 1566 0038 00200140 		.word	1073815552
 1567              		.cfi_endproc
 1568              	.LFE82:
 1570              		.section	.text.adc_interrupt_disable,"ax",%progbits
 1571              		.align	1
 1572              		.global	adc_interrupt_disable
 1573              		.syntax unified
 1574              		.thumb
 1575              		.thumb_func
 1576              		.fpu softvfp
 1578              	adc_interrupt_disable:
 1579              	.LVL104:
 1580              	.LFB83:
 641:Drivers/GD32F1x0_standard_peripheral/Source/gd32f1x0_adc.c **** 
 642:Drivers/GD32F1x0_standard_peripheral/Source/gd32f1x0_adc.c **** /*!
 643:Drivers/GD32F1x0_standard_peripheral/Source/gd32f1x0_adc.c ****     \brief      disable ADC interrupt 
 644:Drivers/GD32F1x0_standard_peripheral/Source/gd32f1x0_adc.c ****     \param[in]  adc_periph: ADCx,x=0,1,2
 645:Drivers/GD32F1x0_standard_peripheral/Source/gd32f1x0_adc.c ****                 only one among these parameters can be selected
 646:Drivers/GD32F1x0_standard_peripheral/Source/gd32f1x0_adc.c ****     \param[in]  interrupt: the adc interrupt flag
 647:Drivers/GD32F1x0_standard_peripheral/Source/gd32f1x0_adc.c ****                 one or more parameters can be selected
 648:Drivers/GD32F1x0_standard_peripheral/Source/gd32f1x0_adc.c ****       \arg        ADC_INT_WDE: analog watchdog interrupt flag
 649:Drivers/GD32F1x0_standard_peripheral/Source/gd32f1x0_adc.c ****       \arg        ADC_INT_EOC: end of group conversion interrupt flag
 650:Drivers/GD32F1x0_standard_peripheral/Source/gd32f1x0_adc.c ****       \arg        ADC_INT_EOIC: end of inserted group conversion interrupt flag
 651:Drivers/GD32F1x0_standard_peripheral/Source/gd32f1x0_adc.c ****     \param[out] none
 652:Drivers/GD32F1x0_standard_peripheral/Source/gd32f1x0_adc.c ****     \retval     none
 653:Drivers/GD32F1x0_standard_peripheral/Source/gd32f1x0_adc.c **** */
 654:Drivers/GD32F1x0_standard_peripheral/Source/gd32f1x0_adc.c **** void adc_interrupt_disable(uint32_t interrupt)
 655:Drivers/GD32F1x0_standard_peripheral/Source/gd32f1x0_adc.c **** {  
 1581              		.loc 1 655 1 is_stmt 1 view -0
 1582              		.cfi_startproc
 1583              		@ args = 0, pretend = 0, frame = 0
 1584              		@ frame_needed = 0, uses_anonymous_args = 0
 1585              		@ link register save eliminated.
 656:Drivers/GD32F1x0_standard_peripheral/Source/gd32f1x0_adc.c ****     if(RESET != (interrupt & ADC_INT_WDE)){
 1586              		.loc 1 656 5 view .LVU420
 1587              		.loc 1 656 7 is_stmt 0 view .LVU421
 1588 0000 C107     		lsls	r1, r0, #31
 657:Drivers/GD32F1x0_standard_peripheral/Source/gd32f1x0_adc.c ****         ADC_CTL0 &= ~(uint32_t) ADC_CTL0_WDEIE;
 1589              		.loc 1 657 9 is_stmt 1 view .LVU422
 1590              		.loc 1 657 18 is_stmt 0 view .LVU423
 1591 0002 41BF     		itttt	mi
 1592 0004 0C4A     		ldrmi	r2, .L194
 1593 0006 D2F80434 		ldrmi	r3, [r2, #1028]
 1594 000a 23F04003 		bicmi	r3, r3, #64
 1595 000e C2F80434 		strmi	r3, [r2, #1028]
 658:Drivers/GD32F1x0_standard_peripheral/Source/gd32f1x0_adc.c ****     }  
 659:Drivers/GD32F1x0_standard_peripheral/Source/gd32f1x0_adc.c **** 
 660:Drivers/GD32F1x0_standard_peripheral/Source/gd32f1x0_adc.c ****     if(RESET != (interrupt & ADC_INT_EOC)){
 1596              		.loc 1 660 5 is_stmt 1 view .LVU424
 1597              		.loc 1 660 7 is_stmt 0 view .LVU425
 1598 0012 8207     		lsls	r2, r0, #30
 661:Drivers/GD32F1x0_standard_peripheral/Source/gd32f1x0_adc.c ****         ADC_CTL0 &= ~(uint32_t) ADC_CTL0_EOCIE;
 1599              		.loc 1 661 9 is_stmt 1 view .LVU426
 1600              		.loc 1 661 18 is_stmt 0 view .LVU427
 1601 0014 41BF     		itttt	mi
 1602 0016 084A     		ldrmi	r2, .L194
 1603 0018 D2F80434 		ldrmi	r3, [r2, #1028]
ARM GAS  /tmp/cczyuVXH.s 			page 42


 1604 001c 23F02003 		bicmi	r3, r3, #32
 1605 0020 C2F80434 		strmi	r3, [r2, #1028]
 662:Drivers/GD32F1x0_standard_peripheral/Source/gd32f1x0_adc.c ****     }  
 663:Drivers/GD32F1x0_standard_peripheral/Source/gd32f1x0_adc.c **** 
 664:Drivers/GD32F1x0_standard_peripheral/Source/gd32f1x0_adc.c ****     if(RESET != (interrupt & ADC_INT_EOIC)){
 1606              		.loc 1 664 5 is_stmt 1 view .LVU428
 1607              		.loc 1 664 7 is_stmt 0 view .LVU429
 1608 0024 4307     		lsls	r3, r0, #29
 665:Drivers/GD32F1x0_standard_peripheral/Source/gd32f1x0_adc.c ****         ADC_CTL0 &= ~(uint32_t) ADC_CTL0_EOICIE;
 1609              		.loc 1 665 9 is_stmt 1 view .LVU430
 1610              		.loc 1 665 18 is_stmt 0 view .LVU431
 1611 0026 41BF     		itttt	mi
 1612 0028 034A     		ldrmi	r2, .L194
 1613 002a D2F80434 		ldrmi	r3, [r2, #1028]
 1614 002e 23F08003 		bicmi	r3, r3, #128
 1615 0032 C2F80434 		strmi	r3, [r2, #1028]
 666:Drivers/GD32F1x0_standard_peripheral/Source/gd32f1x0_adc.c ****     }
 667:Drivers/GD32F1x0_standard_peripheral/Source/gd32f1x0_adc.c **** }
 1616              		.loc 1 667 1 view .LVU432
 1617 0036 7047     		bx	lr
 1618              	.L195:
 1619              		.align	2
 1620              	.L194:
 1621 0038 00200140 		.word	1073815552
 1622              		.cfi_endproc
 1623              	.LFE83:
 1625              		.section	.text.adc_watchdog_single_channel_enable,"ax",%progbits
 1626              		.align	1
 1627              		.global	adc_watchdog_single_channel_enable
 1628              		.syntax unified
 1629              		.thumb
 1630              		.thumb_func
 1631              		.fpu softvfp
 1633              	adc_watchdog_single_channel_enable:
 1634              	.LVL105:
 1635              	.LFB84:
 668:Drivers/GD32F1x0_standard_peripheral/Source/gd32f1x0_adc.c **** 
 669:Drivers/GD32F1x0_standard_peripheral/Source/gd32f1x0_adc.c **** /*!
 670:Drivers/GD32F1x0_standard_peripheral/Source/gd32f1x0_adc.c ****     \brief      ADC analog watchdog single channel config
 671:Drivers/GD32F1x0_standard_peripheral/Source/gd32f1x0_adc.c ****     \param[in]  channel: the selected ADC channel
 672:Drivers/GD32F1x0_standard_peripheral/Source/gd32f1x0_adc.c ****       \arg        ADC_CHANNEL_x: ADC Channelx(x=0..18)
 673:Drivers/GD32F1x0_standard_peripheral/Source/gd32f1x0_adc.c ****     \param[out] none
 674:Drivers/GD32F1x0_standard_peripheral/Source/gd32f1x0_adc.c ****     \retval     none
 675:Drivers/GD32F1x0_standard_peripheral/Source/gd32f1x0_adc.c **** */
 676:Drivers/GD32F1x0_standard_peripheral/Source/gd32f1x0_adc.c **** void adc_watchdog_single_channel_enable(uint8_t channel)
 677:Drivers/GD32F1x0_standard_peripheral/Source/gd32f1x0_adc.c **** {
 1636              		.loc 1 677 1 is_stmt 1 view -0
 1637              		.cfi_startproc
 1638              		@ args = 0, pretend = 0, frame = 0
 1639              		@ frame_needed = 0, uses_anonymous_args = 0
 1640              		@ link register save eliminated.
 678:Drivers/GD32F1x0_standard_peripheral/Source/gd32f1x0_adc.c ****     ADC_CTL0 &= (uint32_t)~(ADC_CTL0_RWDEN | ADC_CTL0_IWDEN | ADC_CTL0_WDSC | ADC_CTL0_WDCHSEL);
 1641              		.loc 1 678 5 view .LVU434
 1642              		.loc 1 678 14 is_stmt 0 view .LVU435
 1643 0000 0A4B     		ldr	r3, .L197
 1644 0002 0B4A     		ldr	r2, .L197+4
 1645 0004 D3F80414 		ldr	r1, [r3, #1028]
ARM GAS  /tmp/cczyuVXH.s 			page 43


 1646 0008 0A40     		ands	r2, r2, r1
 1647 000a C3F80424 		str	r2, [r3, #1028]
 679:Drivers/GD32F1x0_standard_peripheral/Source/gd32f1x0_adc.c **** 
 680:Drivers/GD32F1x0_standard_peripheral/Source/gd32f1x0_adc.c ****     ADC_CTL0 |= (uint32_t)channel;
 1648              		.loc 1 680 5 is_stmt 1 view .LVU436
 1649              		.loc 1 680 14 is_stmt 0 view .LVU437
 1650 000e D3F80424 		ldr	r2, [r3, #1028]
 1651 0012 1043     		orrs	r0, r0, r2
 1652              	.LVL106:
 1653              		.loc 1 680 14 view .LVU438
 1654 0014 C3F80404 		str	r0, [r3, #1028]
 681:Drivers/GD32F1x0_standard_peripheral/Source/gd32f1x0_adc.c ****     ADC_CTL0 |= (uint32_t)(ADC_CTL0_RWDEN | ADC_CTL0_IWDEN | ADC_CTL0_WDSC);
 1655              		.loc 1 681 5 is_stmt 1 view .LVU439
 1656              		.loc 1 681 14 is_stmt 0 view .LVU440
 1657 0018 D3F80424 		ldr	r2, [r3, #1028]
 1658 001c 42F44002 		orr	r2, r2, #12582912
 1659 0020 42F40072 		orr	r2, r2, #512
 1660 0024 C3F80424 		str	r2, [r3, #1028]
 682:Drivers/GD32F1x0_standard_peripheral/Source/gd32f1x0_adc.c **** }
 1661              		.loc 1 682 1 view .LVU441
 1662 0028 7047     		bx	lr
 1663              	.L198:
 1664 002a 00BF     		.align	2
 1665              	.L197:
 1666 002c 00200140 		.word	1073815552
 1667 0030 E0FD3FFF 		.word	-12583456
 1668              		.cfi_endproc
 1669              	.LFE84:
 1671              		.section	.text.adc_watchdog_group_channel_enable,"ax",%progbits
 1672              		.align	1
 1673              		.global	adc_watchdog_group_channel_enable
 1674              		.syntax unified
 1675              		.thumb
 1676              		.thumb_func
 1677              		.fpu softvfp
 1679              	adc_watchdog_group_channel_enable:
 1680              	.LVL107:
 1681              	.LFB85:
 683:Drivers/GD32F1x0_standard_peripheral/Source/gd32f1x0_adc.c **** 
 684:Drivers/GD32F1x0_standard_peripheral/Source/gd32f1x0_adc.c **** /*!
 685:Drivers/GD32F1x0_standard_peripheral/Source/gd32f1x0_adc.c ****     \brief      adc analog watchdog group channel config
 686:Drivers/GD32F1x0_standard_peripheral/Source/gd32f1x0_adc.c ****     \param[in]  adc_channel_group: the channel group use analog watchdog 
 687:Drivers/GD32F1x0_standard_peripheral/Source/gd32f1x0_adc.c ****       \arg        ADC_REGULAR_CHANNEL: regular channel group
 688:Drivers/GD32F1x0_standard_peripheral/Source/gd32f1x0_adc.c ****       \arg        ADC_INSERTED_CHANNEL: inserted channel group
 689:Drivers/GD32F1x0_standard_peripheral/Source/gd32f1x0_adc.c ****       \arg        ADC_REGULAR_INSERTED_CHANNEL: both regular and inserted group
 690:Drivers/GD32F1x0_standard_peripheral/Source/gd32f1x0_adc.c ****     \param[out] none
 691:Drivers/GD32F1x0_standard_peripheral/Source/gd32f1x0_adc.c ****     \retval     none
 692:Drivers/GD32F1x0_standard_peripheral/Source/gd32f1x0_adc.c **** */
 693:Drivers/GD32F1x0_standard_peripheral/Source/gd32f1x0_adc.c **** void adc_watchdog_group_channel_enable(uint8_t channel_group)
 694:Drivers/GD32F1x0_standard_peripheral/Source/gd32f1x0_adc.c **** {
 1682              		.loc 1 694 1 is_stmt 1 view -0
 1683              		.cfi_startproc
 1684              		@ args = 0, pretend = 0, frame = 0
 1685              		@ frame_needed = 0, uses_anonymous_args = 0
 1686              		@ link register save eliminated.
 695:Drivers/GD32F1x0_standard_peripheral/Source/gd32f1x0_adc.c ****     ADC_CTL0 &= (uint32_t)~(ADC_CTL0_RWDEN | ADC_CTL0_IWDEN | ADC_CTL0_WDSC);
 1687              		.loc 1 695 5 view .LVU443
ARM GAS  /tmp/cczyuVXH.s 			page 44


 1688              		.loc 1 695 14 is_stmt 0 view .LVU444
 1689 0000 0F4B     		ldr	r3, .L204
 696:Drivers/GD32F1x0_standard_peripheral/Source/gd32f1x0_adc.c ****     /* select the group */
 697:Drivers/GD32F1x0_standard_peripheral/Source/gd32f1x0_adc.c ****     switch(channel_group){
 1690              		.loc 1 697 5 view .LVU445
 1691 0002 0228     		cmp	r0, #2
 695:Drivers/GD32F1x0_standard_peripheral/Source/gd32f1x0_adc.c ****     ADC_CTL0 &= (uint32_t)~(ADC_CTL0_RWDEN | ADC_CTL0_IWDEN | ADC_CTL0_WDSC);
 1692              		.loc 1 695 14 view .LVU446
 1693 0004 D3F80424 		ldr	r2, [r3, #1028]
 1694 0008 22F44002 		bic	r2, r2, #12582912
 1695 000c 22F40072 		bic	r2, r2, #512
 1696 0010 C3F80424 		str	r2, [r3, #1028]
 1697              		.loc 1 697 5 is_stmt 1 view .LVU447
 1698 0014 0AD0     		beq	.L200
 1699 0016 0328     		cmp	r0, #3
 1700 0018 0DD0     		beq	.L201
 1701 001a 0128     		cmp	r0, #1
 1702 001c 05D1     		bne	.L199
 698:Drivers/GD32F1x0_standard_peripheral/Source/gd32f1x0_adc.c ****     case ADC_REGULAR_CHANNEL:
 699:Drivers/GD32F1x0_standard_peripheral/Source/gd32f1x0_adc.c ****         ADC_CTL0 |= (uint32_t) ADC_CTL0_RWDEN;
 1703              		.loc 1 699 9 view .LVU448
 1704              		.loc 1 699 18 is_stmt 0 view .LVU449
 1705 001e D3F80424 		ldr	r2, [r3, #1028]
 1706 0022 42F40002 		orr	r2, r2, #8388608
 1707              	.L203:
 700:Drivers/GD32F1x0_standard_peripheral/Source/gd32f1x0_adc.c ****         break;
 701:Drivers/GD32F1x0_standard_peripheral/Source/gd32f1x0_adc.c ****     case ADC_INSERTED_CHANNEL:
 702:Drivers/GD32F1x0_standard_peripheral/Source/gd32f1x0_adc.c ****         ADC_CTL0 |= (uint32_t) ADC_CTL0_IWDEN;
 703:Drivers/GD32F1x0_standard_peripheral/Source/gd32f1x0_adc.c ****         break;
 704:Drivers/GD32F1x0_standard_peripheral/Source/gd32f1x0_adc.c ****     case ADC_REGULAR_INSERTED_CHANNEL:
 705:Drivers/GD32F1x0_standard_peripheral/Source/gd32f1x0_adc.c ****         ADC_CTL0 |= (uint32_t)(ADC_CTL0_RWDEN | ADC_CTL0_IWDEN);
 1708              		.loc 1 705 18 view .LVU450
 1709 0026 C3F80424 		str	r2, [r3, #1028]
 706:Drivers/GD32F1x0_standard_peripheral/Source/gd32f1x0_adc.c ****         break;
 1710              		.loc 1 706 9 is_stmt 1 view .LVU451
 1711              	.L199:
 707:Drivers/GD32F1x0_standard_peripheral/Source/gd32f1x0_adc.c ****     default:
 708:Drivers/GD32F1x0_standard_peripheral/Source/gd32f1x0_adc.c ****         break;
 709:Drivers/GD32F1x0_standard_peripheral/Source/gd32f1x0_adc.c ****     }
 710:Drivers/GD32F1x0_standard_peripheral/Source/gd32f1x0_adc.c **** }
 1712              		.loc 1 710 1 is_stmt 0 view .LVU452
 1713 002a 7047     		bx	lr
 1714              	.L200:
 702:Drivers/GD32F1x0_standard_peripheral/Source/gd32f1x0_adc.c ****         break;
 1715              		.loc 1 702 9 is_stmt 1 view .LVU453
 702:Drivers/GD32F1x0_standard_peripheral/Source/gd32f1x0_adc.c ****         break;
 1716              		.loc 1 702 18 is_stmt 0 view .LVU454
 1717 002c D3F80424 		ldr	r2, [r3, #1028]
 1718 0030 42F48002 		orr	r2, r2, #4194304
 1719 0034 F7E7     		b	.L203
 1720              	.L201:
 705:Drivers/GD32F1x0_standard_peripheral/Source/gd32f1x0_adc.c ****         break;
 1721              		.loc 1 705 9 is_stmt 1 view .LVU455
 705:Drivers/GD32F1x0_standard_peripheral/Source/gd32f1x0_adc.c ****         break;
 1722              		.loc 1 705 18 is_stmt 0 view .LVU456
 1723 0036 D3F80424 		ldr	r2, [r3, #1028]
 1724 003a 42F44002 		orr	r2, r2, #12582912
ARM GAS  /tmp/cczyuVXH.s 			page 45


 1725 003e F2E7     		b	.L203
 1726              	.L205:
 1727              		.align	2
 1728              	.L204:
 1729 0040 00200140 		.word	1073815552
 1730              		.cfi_endproc
 1731              	.LFE85:
 1733              		.section	.text.adc_watchdog_disable,"ax",%progbits
 1734              		.align	1
 1735              		.global	adc_watchdog_disable
 1736              		.syntax unified
 1737              		.thumb
 1738              		.thumb_func
 1739              		.fpu softvfp
 1741              	adc_watchdog_disable:
 1742              	.LFB86:
 711:Drivers/GD32F1x0_standard_peripheral/Source/gd32f1x0_adc.c **** 
 712:Drivers/GD32F1x0_standard_peripheral/Source/gd32f1x0_adc.c **** 
 713:Drivers/GD32F1x0_standard_peripheral/Source/gd32f1x0_adc.c **** 
 714:Drivers/GD32F1x0_standard_peripheral/Source/gd32f1x0_adc.c **** /*!
 715:Drivers/GD32F1x0_standard_peripheral/Source/gd32f1x0_adc.c ****     \brief      ADC analog watchdog disable
 716:Drivers/GD32F1x0_standard_peripheral/Source/gd32f1x0_adc.c ****     \param[in]  none
 717:Drivers/GD32F1x0_standard_peripheral/Source/gd32f1x0_adc.c ****     \param[out] none
 718:Drivers/GD32F1x0_standard_peripheral/Source/gd32f1x0_adc.c ****     \retval     none
 719:Drivers/GD32F1x0_standard_peripheral/Source/gd32f1x0_adc.c **** */
 720:Drivers/GD32F1x0_standard_peripheral/Source/gd32f1x0_adc.c **** void adc_watchdog_disable(void)
 721:Drivers/GD32F1x0_standard_peripheral/Source/gd32f1x0_adc.c **** {
 1743              		.loc 1 721 1 is_stmt 1 view -0
 1744              		.cfi_startproc
 1745              		@ args = 0, pretend = 0, frame = 0
 1746              		@ frame_needed = 0, uses_anonymous_args = 0
 1747              		@ link register save eliminated.
 722:Drivers/GD32F1x0_standard_peripheral/Source/gd32f1x0_adc.c ****     ADC_CTL0 &= (uint32_t)~(ADC_CTL0_RWDEN | ADC_CTL0_IWDEN | ADC_CTL0_WDSC | ADC_CTL0_WDCHSEL);
 1748              		.loc 1 722 5 view .LVU458
 1749              		.loc 1 722 14 is_stmt 0 view .LVU459
 1750 0000 034A     		ldr	r2, .L207
 1751 0002 044B     		ldr	r3, .L207+4
 1752 0004 D2F80414 		ldr	r1, [r2, #1028]
 1753 0008 0B40     		ands	r3, r3, r1
 1754 000a C2F80434 		str	r3, [r2, #1028]
 723:Drivers/GD32F1x0_standard_peripheral/Source/gd32f1x0_adc.c **** }
 1755              		.loc 1 723 1 view .LVU460
 1756 000e 7047     		bx	lr
 1757              	.L208:
 1758              		.align	2
 1759              	.L207:
 1760 0010 00200140 		.word	1073815552
 1761 0014 E0FD3FFF 		.word	-12583456
 1762              		.cfi_endproc
 1763              	.LFE86:
 1765              		.section	.text.adc_watchdog_threshold_config,"ax",%progbits
 1766              		.align	1
 1767              		.global	adc_watchdog_threshold_config
 1768              		.syntax unified
 1769              		.thumb
 1770              		.thumb_func
 1771              		.fpu softvfp
ARM GAS  /tmp/cczyuVXH.s 			page 46


 1773              	adc_watchdog_threshold_config:
 1774              	.LVL108:
 1775              	.LFB87:
 724:Drivers/GD32F1x0_standard_peripheral/Source/gd32f1x0_adc.c **** 
 725:Drivers/GD32F1x0_standard_peripheral/Source/gd32f1x0_adc.c **** /*!
 726:Drivers/GD32F1x0_standard_peripheral/Source/gd32f1x0_adc.c ****     \brief      ADC analog watchdog threshold config
 727:Drivers/GD32F1x0_standard_peripheral/Source/gd32f1x0_adc.c ****     \param[in]  low_threshold: analog watchdog low threshold
 728:Drivers/GD32F1x0_standard_peripheral/Source/gd32f1x0_adc.c ****     \param[in]  high_threshold: analog watchdog high threshold
 729:Drivers/GD32F1x0_standard_peripheral/Source/gd32f1x0_adc.c ****     \param[out] none
 730:Drivers/GD32F1x0_standard_peripheral/Source/gd32f1x0_adc.c ****     \retval     none
 731:Drivers/GD32F1x0_standard_peripheral/Source/gd32f1x0_adc.c **** */
 732:Drivers/GD32F1x0_standard_peripheral/Source/gd32f1x0_adc.c **** void adc_watchdog_threshold_config(uint16_t low_threshold,uint16_t high_threshold)
 733:Drivers/GD32F1x0_standard_peripheral/Source/gd32f1x0_adc.c **** {
 1776              		.loc 1 733 1 is_stmt 1 view -0
 1777              		.cfi_startproc
 1778              		@ args = 0, pretend = 0, frame = 0
 1779              		@ frame_needed = 0, uses_anonymous_args = 0
 1780              		@ link register save eliminated.
 734:Drivers/GD32F1x0_standard_peripheral/Source/gd32f1x0_adc.c ****     ADC_WDLT = (uint32_t)low_threshold;
 1781              		.loc 1 734 5 view .LVU462
 1782              		.loc 1 734 14 is_stmt 0 view .LVU463
 1783 0000 024B     		ldr	r3, .L210
 1784 0002 C3F82804 		str	r0, [r3, #1064]
 735:Drivers/GD32F1x0_standard_peripheral/Source/gd32f1x0_adc.c ****     ADC_WDHT = (uint32_t)high_threshold;
 1785              		.loc 1 735 5 is_stmt 1 view .LVU464
 1786              		.loc 1 735 14 is_stmt 0 view .LVU465
 1787 0006 C3F82414 		str	r1, [r3, #1060]
 736:Drivers/GD32F1x0_standard_peripheral/Source/gd32f1x0_adc.c **** }
 1788              		.loc 1 736 1 view .LVU466
 1789 000a 7047     		bx	lr
 1790              	.L211:
 1791              		.align	2
 1792              	.L210:
 1793 000c 00200140 		.word	1073815552
 1794              		.cfi_endproc
 1795              	.LFE87:
 1797              		.text
 1798              	.Letext0:
 1799              		.file 2 "/usr/lib/gcc/arm-none-eabi/10.3.1/include/stdint.h"
 1800              		.file 3 "Drivers/CMSIS/Include/gd32f1x0.h"
 1801              		.file 4 "Drivers/GD32F1x0_standard_peripheral/Include/gd32f1x0_rcu.h"
ARM GAS  /tmp/cczyuVXH.s 			page 47

