ARM GAS  /tmp/ccahbfuw.s 			page 1


   1              		.cpu cortex-m3
   2              		.eabi_attribute 20, 1
   3              		.eabi_attribute 21, 1
   4              		.eabi_attribute 23, 3
   5              		.eabi_attribute 24, 1
   6              		.eabi_attribute 25, 1
   7              		.eabi_attribute 26, 1
   8              		.eabi_attribute 30, 4
   9              		.eabi_attribute 34, 1
  10              		.eabi_attribute 18, 4
  11              		.file	"gd32f1x0_i2c.c"
  12              		.text
  13              	.Ltext0:
  14              		.cfi_sections	.debug_frame
  15              		.section	.text.i2c_deinit,"ax",%progbits
  16              		.align	1
  17              		.global	i2c_deinit
  18              		.arch armv7-m
  19              		.syntax unified
  20              		.thumb
  21              		.thumb_func
  22              		.fpu softvfp
  24              	i2c_deinit:
  25              	.LVL0:
  26              	.LFB56:
  27              		.file 1 "Drivers/GD32F1x0_standard_peripheral/Source/gd32f1x0_i2c.c"
   1:Drivers/GD32F1x0_standard_peripheral/Source/gd32f1x0_i2c.c **** /*!
   2:Drivers/GD32F1x0_standard_peripheral/Source/gd32f1x0_i2c.c ****     \file  gd32f1x0_i2c.c
   3:Drivers/GD32F1x0_standard_peripheral/Source/gd32f1x0_i2c.c ****     \brief I2C driver
   4:Drivers/GD32F1x0_standard_peripheral/Source/gd32f1x0_i2c.c **** */
   5:Drivers/GD32F1x0_standard_peripheral/Source/gd32f1x0_i2c.c **** 
   6:Drivers/GD32F1x0_standard_peripheral/Source/gd32f1x0_i2c.c **** /*
   7:Drivers/GD32F1x0_standard_peripheral/Source/gd32f1x0_i2c.c ****     Copyright (C) 2017 GigaDevice
   8:Drivers/GD32F1x0_standard_peripheral/Source/gd32f1x0_i2c.c **** 
   9:Drivers/GD32F1x0_standard_peripheral/Source/gd32f1x0_i2c.c ****     2014-12-26, V1.0.0, platform GD32F1x0(x=3,5)
  10:Drivers/GD32F1x0_standard_peripheral/Source/gd32f1x0_i2c.c ****     2016-01-15, V2.0.0, platform GD32F1x0(x=3,5,7,9)
  11:Drivers/GD32F1x0_standard_peripheral/Source/gd32f1x0_i2c.c ****     2016-04-30, V3.0.0, firmware update for GD32F1x0(x=3,5,7,9)
  12:Drivers/GD32F1x0_standard_peripheral/Source/gd32f1x0_i2c.c ****     2017-06-19, V3.1.0, firmware update for GD32F1x0(x=3,5,7,9)
  13:Drivers/GD32F1x0_standard_peripheral/Source/gd32f1x0_i2c.c **** */
  14:Drivers/GD32F1x0_standard_peripheral/Source/gd32f1x0_i2c.c **** 
  15:Drivers/GD32F1x0_standard_peripheral/Source/gd32f1x0_i2c.c **** #include "gd32f1x0_i2c.h"
  16:Drivers/GD32F1x0_standard_peripheral/Source/gd32f1x0_i2c.c **** 
  17:Drivers/GD32F1x0_standard_peripheral/Source/gd32f1x0_i2c.c **** #define I2CCLK_MAX                0x3fU              /*!< i2cclk max value */
  18:Drivers/GD32F1x0_standard_peripheral/Source/gd32f1x0_i2c.c **** #define I2C_FLAG_MASK             0x0000FFFFU        /*!< i2c flag mask */
  19:Drivers/GD32F1x0_standard_peripheral/Source/gd32f1x0_i2c.c **** 
  20:Drivers/GD32F1x0_standard_peripheral/Source/gd32f1x0_i2c.c **** /*!
  21:Drivers/GD32F1x0_standard_peripheral/Source/gd32f1x0_i2c.c ****     \brief      reset I2C
  22:Drivers/GD32F1x0_standard_peripheral/Source/gd32f1x0_i2c.c ****     \param[in]  i2c_periph: I2Cx(x=0,1,2)
  23:Drivers/GD32F1x0_standard_peripheral/Source/gd32f1x0_i2c.c ****     \param[out] none
  24:Drivers/GD32F1x0_standard_peripheral/Source/gd32f1x0_i2c.c ****     \retval     none
  25:Drivers/GD32F1x0_standard_peripheral/Source/gd32f1x0_i2c.c **** */
  26:Drivers/GD32F1x0_standard_peripheral/Source/gd32f1x0_i2c.c **** void i2c_deinit(uint32_t i2c_periph)
  27:Drivers/GD32F1x0_standard_peripheral/Source/gd32f1x0_i2c.c **** {
  28              		.loc 1 27 1 view -0
  29              		.cfi_startproc
  30              		@ args = 0, pretend = 0, frame = 0
  31              		@ frame_needed = 0, uses_anonymous_args = 0
ARM GAS  /tmp/ccahbfuw.s 			page 2


  28:Drivers/GD32F1x0_standard_peripheral/Source/gd32f1x0_i2c.c ****     switch(i2c_periph){
  32              		.loc 1 28 5 view .LVU1
  27:Drivers/GD32F1x0_standard_peripheral/Source/gd32f1x0_i2c.c ****     switch(i2c_periph){
  33              		.loc 1 27 1 is_stmt 0 view .LVU2
  34 0000 08B5     		push	{r3, lr}
  35              	.LCFI0:
  36              		.cfi_def_cfa_offset 8
  37              		.cfi_offset 3, -8
  38              		.cfi_offset 14, -4
  39              		.loc 1 28 5 view .LVU3
  40 0002 0C4B     		ldr	r3, .L7
  41 0004 9842     		cmp	r0, r3
  42 0006 04D0     		beq	.L2
  43 0008 03F58063 		add	r3, r3, #1024
  44 000c 9842     		cmp	r0, r3
  45 000e 0AD0     		beq	.L3
  29:Drivers/GD32F1x0_standard_peripheral/Source/gd32f1x0_i2c.c ****     case I2C0:
  30:Drivers/GD32F1x0_standard_peripheral/Source/gd32f1x0_i2c.c ****         /* reset I2C0 */
  31:Drivers/GD32F1x0_standard_peripheral/Source/gd32f1x0_i2c.c ****         rcu_periph_reset_enable(RCU_I2C0RST);
  32:Drivers/GD32F1x0_standard_peripheral/Source/gd32f1x0_i2c.c ****         rcu_periph_reset_disable(RCU_I2C0RST);
  33:Drivers/GD32F1x0_standard_peripheral/Source/gd32f1x0_i2c.c ****         break;
  34:Drivers/GD32F1x0_standard_peripheral/Source/gd32f1x0_i2c.c ****     case I2C1:
  35:Drivers/GD32F1x0_standard_peripheral/Source/gd32f1x0_i2c.c ****         /* reset I2C1 */
  36:Drivers/GD32F1x0_standard_peripheral/Source/gd32f1x0_i2c.c ****         rcu_periph_reset_enable(RCU_I2C1RST);
  37:Drivers/GD32F1x0_standard_peripheral/Source/gd32f1x0_i2c.c ****         rcu_periph_reset_disable(RCU_I2C1RST);
  38:Drivers/GD32F1x0_standard_peripheral/Source/gd32f1x0_i2c.c ****         break;
  39:Drivers/GD32F1x0_standard_peripheral/Source/gd32f1x0_i2c.c **** #ifdef GD32F170_190
  40:Drivers/GD32F1x0_standard_peripheral/Source/gd32f1x0_i2c.c ****     case I2C2:
  41:Drivers/GD32F1x0_standard_peripheral/Source/gd32f1x0_i2c.c ****         /* reset I2C2 */
  42:Drivers/GD32F1x0_standard_peripheral/Source/gd32f1x0_i2c.c ****         rcu_periph_reset_enable(RCU_I2C2RST);
  43:Drivers/GD32F1x0_standard_peripheral/Source/gd32f1x0_i2c.c ****         rcu_periph_reset_disable(RCU_I2C2RST);
  44:Drivers/GD32F1x0_standard_peripheral/Source/gd32f1x0_i2c.c ****         break;
  45:Drivers/GD32F1x0_standard_peripheral/Source/gd32f1x0_i2c.c **** #endif /* GD32F170_190 */
  46:Drivers/GD32F1x0_standard_peripheral/Source/gd32f1x0_i2c.c ****     default:
  47:Drivers/GD32F1x0_standard_peripheral/Source/gd32f1x0_i2c.c ****         break;
  48:Drivers/GD32F1x0_standard_peripheral/Source/gd32f1x0_i2c.c ****     }
  49:Drivers/GD32F1x0_standard_peripheral/Source/gd32f1x0_i2c.c **** }
  46              		.loc 1 49 1 view .LVU4
  47 0010 08BD     		pop	{r3, pc}
  48              	.L2:
  31:Drivers/GD32F1x0_standard_peripheral/Source/gd32f1x0_i2c.c ****         rcu_periph_reset_disable(RCU_I2C0RST);
  49              		.loc 1 31 9 is_stmt 1 view .LVU5
  50 0012 40F21540 		movw	r0, #1045
  51              	.LVL1:
  31:Drivers/GD32F1x0_standard_peripheral/Source/gd32f1x0_i2c.c ****         rcu_periph_reset_disable(RCU_I2C0RST);
  52              		.loc 1 31 9 is_stmt 0 view .LVU6
  53 0016 FFF7FEFF 		bl	rcu_periph_reset_enable
  54              	.LVL2:
  32:Drivers/GD32F1x0_standard_peripheral/Source/gd32f1x0_i2c.c ****         break;
  55              		.loc 1 32 9 is_stmt 1 view .LVU7
  56 001a 40F21540 		movw	r0, #1045
  57              	.L6:
  58              		.loc 1 49 1 is_stmt 0 view .LVU8
  59 001e BDE80840 		pop	{r3, lr}
  60              	.LCFI1:
  61              		.cfi_remember_state
  62              		.cfi_restore 14
ARM GAS  /tmp/ccahbfuw.s 			page 3


  63              		.cfi_restore 3
  64              		.cfi_def_cfa_offset 0
  37:Drivers/GD32F1x0_standard_peripheral/Source/gd32f1x0_i2c.c ****         break;
  65              		.loc 1 37 9 view .LVU9
  66 0022 FFF7FEBF 		b	rcu_periph_reset_disable
  67              	.LVL3:
  68              	.L3:
  69              	.LCFI2:
  70              		.cfi_restore_state
  36:Drivers/GD32F1x0_standard_peripheral/Source/gd32f1x0_i2c.c ****         rcu_periph_reset_disable(RCU_I2C1RST);
  71              		.loc 1 36 9 is_stmt 1 view .LVU10
  72 0026 40F21640 		movw	r0, #1046
  73              	.LVL4:
  36:Drivers/GD32F1x0_standard_peripheral/Source/gd32f1x0_i2c.c ****         rcu_periph_reset_disable(RCU_I2C1RST);
  74              		.loc 1 36 9 is_stmt 0 view .LVU11
  75 002a FFF7FEFF 		bl	rcu_periph_reset_enable
  76              	.LVL5:
  37:Drivers/GD32F1x0_standard_peripheral/Source/gd32f1x0_i2c.c ****         break;
  77              		.loc 1 37 9 is_stmt 1 view .LVU12
  78 002e 40F21640 		movw	r0, #1046
  79 0032 F4E7     		b	.L6
  80              	.L8:
  81              		.align	2
  82              	.L7:
  83 0034 00540040 		.word	1073763328
  84              		.cfi_endproc
  85              	.LFE56:
  87              		.section	.text.i2c_clock_config,"ax",%progbits
  88              		.align	1
  89              		.global	i2c_clock_config
  90              		.syntax unified
  91              		.thumb
  92              		.thumb_func
  93              		.fpu softvfp
  95              	i2c_clock_config:
  96              	.LVL6:
  97              	.LFB57:
  50:Drivers/GD32F1x0_standard_peripheral/Source/gd32f1x0_i2c.c **** 
  51:Drivers/GD32F1x0_standard_peripheral/Source/gd32f1x0_i2c.c **** /*!
  52:Drivers/GD32F1x0_standard_peripheral/Source/gd32f1x0_i2c.c ****     \brief      configure I2C clock
  53:Drivers/GD32F1x0_standard_peripheral/Source/gd32f1x0_i2c.c ****     \param[in]  i2c_periph: I2Cx(x=0,1,2)
  54:Drivers/GD32F1x0_standard_peripheral/Source/gd32f1x0_i2c.c ****     \param[in]  clkspeed: I2C clock speed, supports standard mode (up to 100 kHz), fast mode (up to
  55:Drivers/GD32F1x0_standard_peripheral/Source/gd32f1x0_i2c.c ****                           and fast mode plus (up to 1MHz)
  56:Drivers/GD32F1x0_standard_peripheral/Source/gd32f1x0_i2c.c ****     \param[in]  dutycyc: duty cycle in fast mode or fast mode plus
  57:Drivers/GD32F1x0_standard_peripheral/Source/gd32f1x0_i2c.c ****       \arg        I2C_DTCY_2: T_low/T_high=2 
  58:Drivers/GD32F1x0_standard_peripheral/Source/gd32f1x0_i2c.c ****       \arg        I2C_DTCY_16_9: T_low/T_high=16/9
  59:Drivers/GD32F1x0_standard_peripheral/Source/gd32f1x0_i2c.c ****     \param[out] none
  60:Drivers/GD32F1x0_standard_peripheral/Source/gd32f1x0_i2c.c ****     \retval     none
  61:Drivers/GD32F1x0_standard_peripheral/Source/gd32f1x0_i2c.c **** */
  62:Drivers/GD32F1x0_standard_peripheral/Source/gd32f1x0_i2c.c **** void i2c_clock_config(uint32_t i2c_periph, uint32_t clkspeed, uint32_t dutycyc)
  63:Drivers/GD32F1x0_standard_peripheral/Source/gd32f1x0_i2c.c **** {
  98              		.loc 1 63 1 view -0
  99              		.cfi_startproc
 100              		@ args = 0, pretend = 0, frame = 0
 101              		@ frame_needed = 0, uses_anonymous_args = 0
  64:Drivers/GD32F1x0_standard_peripheral/Source/gd32f1x0_i2c.c ****     uint32_t pclk1,clkc,freq,risetime;
 102              		.loc 1 64 5 view .LVU14
ARM GAS  /tmp/ccahbfuw.s 			page 4


  65:Drivers/GD32F1x0_standard_peripheral/Source/gd32f1x0_i2c.c ****     uint32_t temp;
 103              		.loc 1 65 5 view .LVU15
  66:Drivers/GD32F1x0_standard_peripheral/Source/gd32f1x0_i2c.c ****     
  67:Drivers/GD32F1x0_standard_peripheral/Source/gd32f1x0_i2c.c ****     pclk1 = rcu_clock_freq_get(CK_APB1);
 104              		.loc 1 67 5 view .LVU16
  63:Drivers/GD32F1x0_standard_peripheral/Source/gd32f1x0_i2c.c ****     uint32_t pclk1,clkc,freq,risetime;
 105              		.loc 1 63 1 is_stmt 0 view .LVU17
 106 0000 F8B5     		push	{r3, r4, r5, r6, r7, lr}
 107              	.LCFI3:
 108              		.cfi_def_cfa_offset 24
 109              		.cfi_offset 3, -24
 110              		.cfi_offset 4, -20
 111              		.cfi_offset 5, -16
 112              		.cfi_offset 6, -12
 113              		.cfi_offset 7, -8
 114              		.cfi_offset 14, -4
  63:Drivers/GD32F1x0_standard_peripheral/Source/gd32f1x0_i2c.c ****     uint32_t pclk1,clkc,freq,risetime;
 115              		.loc 1 63 1 view .LVU18
 116 0002 0546     		mov	r5, r0
 117              		.loc 1 67 13 view .LVU19
 118 0004 0220     		movs	r0, #2
 119              	.LVL7:
  63:Drivers/GD32F1x0_standard_peripheral/Source/gd32f1x0_i2c.c ****     uint32_t pclk1,clkc,freq,risetime;
 120              		.loc 1 63 1 view .LVU20
 121 0006 0C46     		mov	r4, r1
 122 0008 1746     		mov	r7, r2
 123              		.loc 1 67 13 view .LVU21
 124 000a FFF7FEFF 		bl	rcu_clock_freq_get
 125              	.LVL8:
  68:Drivers/GD32F1x0_standard_peripheral/Source/gd32f1x0_i2c.c ****     /* I2C peripheral clock frequency */
  69:Drivers/GD32F1x0_standard_peripheral/Source/gd32f1x0_i2c.c ****     freq = (uint32_t)(pclk1/1000000U);
 126              		.loc 1 69 5 is_stmt 1 view .LVU22
 127              		.loc 1 69 10 is_stmt 0 view .LVU23
 128 000e 2549     		ldr	r1, .L21
  70:Drivers/GD32F1x0_standard_peripheral/Source/gd32f1x0_i2c.c ****     if(freq >= I2CCLK_MAX){
  71:Drivers/GD32F1x0_standard_peripheral/Source/gd32f1x0_i2c.c ****         freq = I2CCLK_MAX;
 129              		.loc 1 71 14 view .LVU24
 130 0010 254A     		ldr	r2, .L21+4
  69:Drivers/GD32F1x0_standard_peripheral/Source/gd32f1x0_i2c.c ****     if(freq >= I2CCLK_MAX){
 131              		.loc 1 69 10 view .LVU25
 132 0012 B0FBF1F1 		udiv	r1, r0, r1
 133              	.LVL9:
  70:Drivers/GD32F1x0_standard_peripheral/Source/gd32f1x0_i2c.c ****     if(freq >= I2CCLK_MAX){
 134              		.loc 1 70 5 is_stmt 1 view .LVU26
 135              		.loc 1 71 14 is_stmt 0 view .LVU27
 136 0016 9042     		cmp	r0, r2
 137 0018 94BF     		ite	ls
 138 001a 0B46     		movls	r3, r1
 139 001c 3F23     		movhi	r3, #63
 140              	.LVL10:
  72:Drivers/GD32F1x0_standard_peripheral/Source/gd32f1x0_i2c.c ****     }
  73:Drivers/GD32F1x0_standard_peripheral/Source/gd32f1x0_i2c.c ****     temp = I2C_CTL1(i2c_periph);
 141              		.loc 1 73 5 is_stmt 1 view .LVU28
 142              		.loc 1 73 10 is_stmt 0 view .LVU29
 143 001e 6E68     		ldr	r6, [r5, #4]
 144              	.LVL11:
  74:Drivers/GD32F1x0_standard_peripheral/Source/gd32f1x0_i2c.c ****     temp &= ~I2C_CTL1_I2CCLK;
ARM GAS  /tmp/ccahbfuw.s 			page 5


 145              		.loc 1 74 5 is_stmt 1 view .LVU30
  75:Drivers/GD32F1x0_standard_peripheral/Source/gd32f1x0_i2c.c ****     temp |= freq;
  76:Drivers/GD32F1x0_standard_peripheral/Source/gd32f1x0_i2c.c ****     
  77:Drivers/GD32F1x0_standard_peripheral/Source/gd32f1x0_i2c.c ****     I2C_CTL1(i2c_periph) = temp;
  78:Drivers/GD32F1x0_standard_peripheral/Source/gd32f1x0_i2c.c ****     
  79:Drivers/GD32F1x0_standard_peripheral/Source/gd32f1x0_i2c.c ****     if(100000U >= clkspeed){
 146              		.loc 1 79 7 is_stmt 0 view .LVU31
 147 0020 224A     		ldr	r2, .L21+8
  74:Drivers/GD32F1x0_standard_peripheral/Source/gd32f1x0_i2c.c ****     temp &= ~I2C_CTL1_I2CCLK;
 148              		.loc 1 74 10 view .LVU32
 149 0022 26F03F06 		bic	r6, r6, #63
 150              	.LVL12:
  75:Drivers/GD32F1x0_standard_peripheral/Source/gd32f1x0_i2c.c ****     temp |= freq;
 151              		.loc 1 75 5 is_stmt 1 view .LVU33
  75:Drivers/GD32F1x0_standard_peripheral/Source/gd32f1x0_i2c.c ****     temp |= freq;
 152              		.loc 1 75 10 is_stmt 0 view .LVU34
 153 0026 1E43     		orrs	r6, r6, r3
 154              	.LVL13:
  77:Drivers/GD32F1x0_standard_peripheral/Source/gd32f1x0_i2c.c ****     
 155              		.loc 1 77 5 is_stmt 1 view .LVU35
 156              		.loc 1 79 7 is_stmt 0 view .LVU36
 157 0028 9442     		cmp	r4, r2
  77:Drivers/GD32F1x0_standard_peripheral/Source/gd32f1x0_i2c.c ****     
 158              		.loc 1 77 26 view .LVU37
 159 002a 6E60     		str	r6, [r5, #4]
 160              		.loc 1 79 5 is_stmt 1 view .LVU38
 161              		.loc 1 79 7 is_stmt 0 view .LVU39
 162 002c 12D8     		bhi	.L11
  80:Drivers/GD32F1x0_standard_peripheral/Source/gd32f1x0_i2c.c ****         /* the maximum SCL rise time is 1000ns in standard mode */
  81:Drivers/GD32F1x0_standard_peripheral/Source/gd32f1x0_i2c.c ****         risetime = (uint32_t)((pclk1/1000000U)+1U);
 163              		.loc 1 81 9 is_stmt 1 view .LVU40
 164              		.loc 1 81 18 is_stmt 0 view .LVU41
 165 002e 0131     		adds	r1, r1, #1
 166              	.LVL14:
  82:Drivers/GD32F1x0_standard_peripheral/Source/gd32f1x0_i2c.c ****         if(risetime >= I2CCLK_MAX){
 167              		.loc 1 82 9 is_stmt 1 view .LVU42
 168              		.loc 1 82 11 is_stmt 0 view .LVU43
 169 0030 3E29     		cmp	r1, #62
  83:Drivers/GD32F1x0_standard_peripheral/Source/gd32f1x0_i2c.c ****             I2C_RT(i2c_periph) = I2CCLK_MAX;
 170              		.loc 1 83 13 is_stmt 1 view .LVU44
  84:Drivers/GD32F1x0_standard_peripheral/Source/gd32f1x0_i2c.c ****         }else{
  85:Drivers/GD32F1x0_standard_peripheral/Source/gd32f1x0_i2c.c ****             I2C_RT(i2c_periph) = risetime;
  86:Drivers/GD32F1x0_standard_peripheral/Source/gd32f1x0_i2c.c ****         }
  87:Drivers/GD32F1x0_standard_peripheral/Source/gd32f1x0_i2c.c ****         clkc = (uint32_t)(pclk1/(clkspeed*2U)); 
 171              		.loc 1 87 42 is_stmt 0 view .LVU45
 172 0032 4FEA4404 		lsl	r4, r4, #1
 173              	.LVL15:
 174              		.loc 1 87 14 view .LVU46
 175 0036 B0FBF4F4 		udiv	r4, r0, r4
  83:Drivers/GD32F1x0_standard_peripheral/Source/gd32f1x0_i2c.c ****             I2C_RT(i2c_periph) = I2CCLK_MAX;
 176              		.loc 1 83 32 view .LVU47
 177 003a 8ABF     		itet	hi
 178 003c 3F23     		movhi	r3, #63
 179              	.LVL16:
  85:Drivers/GD32F1x0_standard_peripheral/Source/gd32f1x0_i2c.c ****         }
 180              		.loc 1 85 32 view .LVU48
 181 003e 2962     		strls	r1, [r5, #32]
ARM GAS  /tmp/ccahbfuw.s 			page 6


  83:Drivers/GD32F1x0_standard_peripheral/Source/gd32f1x0_i2c.c ****             I2C_RT(i2c_periph) = I2CCLK_MAX;
 182              		.loc 1 83 32 view .LVU49
 183 0040 2B62     		strhi	r3, [r5, #32]
  85:Drivers/GD32F1x0_standard_peripheral/Source/gd32f1x0_i2c.c ****         }
 184              		.loc 1 85 13 is_stmt 1 view .LVU50
 185              		.loc 1 87 9 view .LVU51
 186              	.LVL17:
  88:Drivers/GD32F1x0_standard_peripheral/Source/gd32f1x0_i2c.c ****         if(clkc < 0x04U){
 187              		.loc 1 88 9 view .LVU52
  89:Drivers/GD32F1x0_standard_peripheral/Source/gd32f1x0_i2c.c ****             /* the CLKC in standard mode minmum value is 4 */
  90:Drivers/GD32F1x0_standard_peripheral/Source/gd32f1x0_i2c.c ****             clkc = 0x04U;
  91:Drivers/GD32F1x0_standard_peripheral/Source/gd32f1x0_i2c.c ****         }
  92:Drivers/GD32F1x0_standard_peripheral/Source/gd32f1x0_i2c.c ****         I2C_CKCFG(i2c_periph) |= (I2C_CKCFG_CLKC & clkc);
 188              		.loc 1 92 9 view .LVU53
 189              		.loc 1 92 50 is_stmt 0 view .LVU54
 190 0042 042C     		cmp	r4, #4
 191 0044 38BF     		it	cc
 192 0046 0424     		movcc	r4, #4
 193              	.LVL18:
 194              		.loc 1 92 31 view .LVU55
 195 0048 E869     		ldr	r0, [r5, #28]
 196              	.LVL19:
 197              		.loc 1 92 50 view .LVU56
 198 004a C4F30B04 		ubfx	r4, r4, #0, #12
 199              	.LVL20:
 200              	.L20:
  93:Drivers/GD32F1x0_standard_peripheral/Source/gd32f1x0_i2c.c **** 
  94:Drivers/GD32F1x0_standard_peripheral/Source/gd32f1x0_i2c.c ****     }else if(400000U >= clkspeed){
  95:Drivers/GD32F1x0_standard_peripheral/Source/gd32f1x0_i2c.c ****         /* the maximum SCL rise time is 300ns in fast mode */
  96:Drivers/GD32F1x0_standard_peripheral/Source/gd32f1x0_i2c.c ****         I2C_RT(i2c_periph) = (uint32_t)(((freq*(uint32_t)300U)/(uint32_t)1000U)+(uint32_t)1U);
  97:Drivers/GD32F1x0_standard_peripheral/Source/gd32f1x0_i2c.c ****         if(I2C_DTCY_2 == dutycyc){
  98:Drivers/GD32F1x0_standard_peripheral/Source/gd32f1x0_i2c.c ****             /* I2C duty cycle is 2 */
  99:Drivers/GD32F1x0_standard_peripheral/Source/gd32f1x0_i2c.c ****             clkc = (uint32_t)(pclk1/(clkspeed*3U));
 100:Drivers/GD32F1x0_standard_peripheral/Source/gd32f1x0_i2c.c ****             I2C_CKCFG(i2c_periph) &= ~I2C_CKCFG_DTCY;
 101:Drivers/GD32F1x0_standard_peripheral/Source/gd32f1x0_i2c.c ****         }else{
 102:Drivers/GD32F1x0_standard_peripheral/Source/gd32f1x0_i2c.c ****             /* I2C duty cycle is 16/9 */
 103:Drivers/GD32F1x0_standard_peripheral/Source/gd32f1x0_i2c.c ****             clkc = (uint32_t)(pclk1/(clkspeed*25U));
 104:Drivers/GD32F1x0_standard_peripheral/Source/gd32f1x0_i2c.c ****             I2C_CKCFG(i2c_periph) |= I2C_CKCFG_DTCY;
 105:Drivers/GD32F1x0_standard_peripheral/Source/gd32f1x0_i2c.c ****         }
 106:Drivers/GD32F1x0_standard_peripheral/Source/gd32f1x0_i2c.c ****         if(0U == (clkc & I2C_CKCFG_CLKC)){
 107:Drivers/GD32F1x0_standard_peripheral/Source/gd32f1x0_i2c.c ****             /* the CLKC in fast mode minmum value is 1 */
 108:Drivers/GD32F1x0_standard_peripheral/Source/gd32f1x0_i2c.c ****             clkc |= 0x0001U;  
 109:Drivers/GD32F1x0_standard_peripheral/Source/gd32f1x0_i2c.c ****         }
 110:Drivers/GD32F1x0_standard_peripheral/Source/gd32f1x0_i2c.c ****         I2C_CKCFG(i2c_periph) |= I2C_CKCFG_FAST;
 111:Drivers/GD32F1x0_standard_peripheral/Source/gd32f1x0_i2c.c ****         I2C_CKCFG(i2c_periph) |= clkc;
 201              		.loc 1 111 31 view .LVU57
 202 004e 0443     		orrs	r4, r4, r0
 203 0050 EC61     		str	r4, [r5, #28]
 112:Drivers/GD32F1x0_standard_peripheral/Source/gd32f1x0_i2c.c ****     }else{
 113:Drivers/GD32F1x0_standard_peripheral/Source/gd32f1x0_i2c.c ****         /* illegal parameters */
 114:Drivers/GD32F1x0_standard_peripheral/Source/gd32f1x0_i2c.c ****     }
 204              		.loc 1 114 5 is_stmt 1 view .LVU58
 205              	.L9:
 115:Drivers/GD32F1x0_standard_peripheral/Source/gd32f1x0_i2c.c **** }
 206              		.loc 1 115 1 is_stmt 0 view .LVU59
 207 0052 F8BD     		pop	{r3, r4, r5, r6, r7, pc}
 208              	.LVL21:
ARM GAS  /tmp/ccahbfuw.s 			page 7


 209              	.L11:
  94:Drivers/GD32F1x0_standard_peripheral/Source/gd32f1x0_i2c.c ****         /* the maximum SCL rise time is 300ns in fast mode */
 210              		.loc 1 94 11 is_stmt 1 view .LVU60
  94:Drivers/GD32F1x0_standard_peripheral/Source/gd32f1x0_i2c.c ****         /* the maximum SCL rise time is 300ns in fast mode */
 211              		.loc 1 94 13 is_stmt 0 view .LVU61
 212 0054 164A     		ldr	r2, .L21+12
 213 0056 9442     		cmp	r4, r2
 214 0058 FBD8     		bhi	.L9
  96:Drivers/GD32F1x0_standard_peripheral/Source/gd32f1x0_i2c.c ****         if(I2C_DTCY_2 == dutycyc){
 215              		.loc 1 96 9 is_stmt 1 view .LVU62
  96:Drivers/GD32F1x0_standard_peripheral/Source/gd32f1x0_i2c.c ****         if(I2C_DTCY_2 == dutycyc){
 216              		.loc 1 96 47 is_stmt 0 view .LVU63
 217 005a 4FF49672 		mov	r2, #300
 218 005e 5343     		muls	r3, r2, r3
 219              	.LVL22:
  96:Drivers/GD32F1x0_standard_peripheral/Source/gd32f1x0_i2c.c ****         if(I2C_DTCY_2 == dutycyc){
 220              		.loc 1 96 63 view .LVU64
 221 0060 4FF47A72 		mov	r2, #1000
 222 0064 B3FBF2F3 		udiv	r3, r3, r2
  96:Drivers/GD32F1x0_standard_peripheral/Source/gd32f1x0_i2c.c ****         if(I2C_DTCY_2 == dutycyc){
 223              		.loc 1 96 30 view .LVU65
 224 0068 0133     		adds	r3, r3, #1
  96:Drivers/GD32F1x0_standard_peripheral/Source/gd32f1x0_i2c.c ****         if(I2C_DTCY_2 == dutycyc){
 225              		.loc 1 96 28 view .LVU66
 226 006a 2B62     		str	r3, [r5, #32]
  97:Drivers/GD32F1x0_standard_peripheral/Source/gd32f1x0_i2c.c ****             /* I2C duty cycle is 2 */
 227              		.loc 1 97 9 is_stmt 1 view .LVU67
  97:Drivers/GD32F1x0_standard_peripheral/Source/gd32f1x0_i2c.c ****             /* I2C duty cycle is 2 */
 228              		.loc 1 97 11 is_stmt 0 view .LVU68
 229 006c 97B9     		cbnz	r7, .L15
  99:Drivers/GD32F1x0_standard_peripheral/Source/gd32f1x0_i2c.c ****             I2C_CKCFG(i2c_periph) &= ~I2C_CKCFG_DTCY;
 230              		.loc 1 99 13 is_stmt 1 view .LVU69
  99:Drivers/GD32F1x0_standard_peripheral/Source/gd32f1x0_i2c.c ****             I2C_CKCFG(i2c_periph) &= ~I2C_CKCFG_DTCY;
 231              		.loc 1 99 46 is_stmt 0 view .LVU70
 232 006e 04EB4404 		add	r4, r4, r4, lsl #1
 233              	.LVL23:
  99:Drivers/GD32F1x0_standard_peripheral/Source/gd32f1x0_i2c.c ****             I2C_CKCFG(i2c_periph) &= ~I2C_CKCFG_DTCY;
 234              		.loc 1 99 18 view .LVU71
 235 0072 B0FBF4F4 		udiv	r4, r0, r4
 236              	.LVL24:
 100:Drivers/GD32F1x0_standard_peripheral/Source/gd32f1x0_i2c.c ****         }else{
 237              		.loc 1 100 13 is_stmt 1 view .LVU72
 100:Drivers/GD32F1x0_standard_peripheral/Source/gd32f1x0_i2c.c ****         }else{
 238              		.loc 1 100 35 is_stmt 0 view .LVU73
 239 0076 EB69     		ldr	r3, [r5, #28]
 240 0078 23F48043 		bic	r3, r3, #16384
 241              	.LVL25:
 242              	.L19:
 104:Drivers/GD32F1x0_standard_peripheral/Source/gd32f1x0_i2c.c ****         }
 243              		.loc 1 104 35 view .LVU74
 244 007c EB61     		str	r3, [r5, #28]
 106:Drivers/GD32F1x0_standard_peripheral/Source/gd32f1x0_i2c.c ****             /* the CLKC in fast mode minmum value is 1 */
 245              		.loc 1 106 9 is_stmt 1 view .LVU75
 106:Drivers/GD32F1x0_standard_peripheral/Source/gd32f1x0_i2c.c ****             /* the CLKC in fast mode minmum value is 1 */
 246              		.loc 1 106 24 is_stmt 0 view .LVU76
 247 007e C4F30B03 		ubfx	r3, r4, #0, #12
 106:Drivers/GD32F1x0_standard_peripheral/Source/gd32f1x0_i2c.c ****             /* the CLKC in fast mode minmum value is 1 */
ARM GAS  /tmp/ccahbfuw.s 			page 8


 248              		.loc 1 106 11 view .LVU77
 249 0082 0BB9     		cbnz	r3, .L17
 108:Drivers/GD32F1x0_standard_peripheral/Source/gd32f1x0_i2c.c ****         }
 250              		.loc 1 108 13 is_stmt 1 view .LVU78
 108:Drivers/GD32F1x0_standard_peripheral/Source/gd32f1x0_i2c.c ****         }
 251              		.loc 1 108 18 is_stmt 0 view .LVU79
 252 0084 44F00104 		orr	r4, r4, #1
 253              	.LVL26:
 254              	.L17:
 110:Drivers/GD32F1x0_standard_peripheral/Source/gd32f1x0_i2c.c ****         I2C_CKCFG(i2c_periph) |= clkc;
 255              		.loc 1 110 9 is_stmt 1 view .LVU80
 110:Drivers/GD32F1x0_standard_peripheral/Source/gd32f1x0_i2c.c ****         I2C_CKCFG(i2c_periph) |= clkc;
 256              		.loc 1 110 31 is_stmt 0 view .LVU81
 257 0088 EB69     		ldr	r3, [r5, #28]
 258 008a 43F40043 		orr	r3, r3, #32768
 259 008e EB61     		str	r3, [r5, #28]
 111:Drivers/GD32F1x0_standard_peripheral/Source/gd32f1x0_i2c.c ****     }else{
 260              		.loc 1 111 9 is_stmt 1 view .LVU82
 111:Drivers/GD32F1x0_standard_peripheral/Source/gd32f1x0_i2c.c ****     }else{
 261              		.loc 1 111 31 is_stmt 0 view .LVU83
 262 0090 E869     		ldr	r0, [r5, #28]
 263              	.LVL27:
 111:Drivers/GD32F1x0_standard_peripheral/Source/gd32f1x0_i2c.c ****     }else{
 264              		.loc 1 111 31 view .LVU84
 265 0092 DCE7     		b	.L20
 266              	.LVL28:
 267              	.L15:
 103:Drivers/GD32F1x0_standard_peripheral/Source/gd32f1x0_i2c.c ****             I2C_CKCFG(i2c_periph) |= I2C_CKCFG_DTCY;
 268              		.loc 1 103 13 is_stmt 1 view .LVU85
 103:Drivers/GD32F1x0_standard_peripheral/Source/gd32f1x0_i2c.c ****             I2C_CKCFG(i2c_periph) |= I2C_CKCFG_DTCY;
 269              		.loc 1 103 46 is_stmt 0 view .LVU86
 270 0094 1921     		movs	r1, #25
 271              	.LVL29:
 103:Drivers/GD32F1x0_standard_peripheral/Source/gd32f1x0_i2c.c ****             I2C_CKCFG(i2c_periph) |= I2C_CKCFG_DTCY;
 272              		.loc 1 103 46 view .LVU87
 273 0096 4C43     		muls	r4, r1, r4
 274              	.LVL30:
 104:Drivers/GD32F1x0_standard_peripheral/Source/gd32f1x0_i2c.c ****         }
 275              		.loc 1 104 35 view .LVU88
 276 0098 EB69     		ldr	r3, [r5, #28]
 103:Drivers/GD32F1x0_standard_peripheral/Source/gd32f1x0_i2c.c ****             I2C_CKCFG(i2c_periph) |= I2C_CKCFG_DTCY;
 277              		.loc 1 103 18 view .LVU89
 278 009a B0FBF4F4 		udiv	r4, r0, r4
 279              	.LVL31:
 104:Drivers/GD32F1x0_standard_peripheral/Source/gd32f1x0_i2c.c ****         }
 280              		.loc 1 104 13 is_stmt 1 view .LVU90
 104:Drivers/GD32F1x0_standard_peripheral/Source/gd32f1x0_i2c.c ****         }
 281              		.loc 1 104 35 is_stmt 0 view .LVU91
 282 009e 43F48043 		orr	r3, r3, #16384
 283 00a2 EBE7     		b	.L19
 284              	.L22:
 285              		.align	2
 286              	.L21:
 287 00a4 40420F00 		.word	1000000
 288 00a8 BF4DC103 		.word	62999999
 289 00ac A0860100 		.word	100000
 290 00b0 801A0600 		.word	400000
ARM GAS  /tmp/ccahbfuw.s 			page 9


 291              		.cfi_endproc
 292              	.LFE57:
 294              		.section	.text.i2c_mode_addr_config,"ax",%progbits
 295              		.align	1
 296              		.global	i2c_mode_addr_config
 297              		.syntax unified
 298              		.thumb
 299              		.thumb_func
 300              		.fpu softvfp
 302              	i2c_mode_addr_config:
 303              	.LVL32:
 304              	.LFB58:
 116:Drivers/GD32F1x0_standard_peripheral/Source/gd32f1x0_i2c.c **** 
 117:Drivers/GD32F1x0_standard_peripheral/Source/gd32f1x0_i2c.c **** /*!
 118:Drivers/GD32F1x0_standard_peripheral/Source/gd32f1x0_i2c.c ****     \brief      configure I2C address 
 119:Drivers/GD32F1x0_standard_peripheral/Source/gd32f1x0_i2c.c ****     \param[in]  i2c_periph: I2Cx(x=0,1,2)
 120:Drivers/GD32F1x0_standard_peripheral/Source/gd32f1x0_i2c.c ****     \param[in]  mode:
 121:Drivers/GD32F1x0_standard_peripheral/Source/gd32f1x0_i2c.c ****       \arg        I2C_I2CMODE_ENABLE: I2C mode
 122:Drivers/GD32F1x0_standard_peripheral/Source/gd32f1x0_i2c.c ****       \arg        I2C_SMBUSMODE_ENABLE: SMBus mode
 123:Drivers/GD32F1x0_standard_peripheral/Source/gd32f1x0_i2c.c ****     \param[in]  addformat: 7bits or 10bits
 124:Drivers/GD32F1x0_standard_peripheral/Source/gd32f1x0_i2c.c ****       \arg        I2C_ADDFORMAT_7BITS: 7bits
 125:Drivers/GD32F1x0_standard_peripheral/Source/gd32f1x0_i2c.c ****       \arg        I2C_ADDFORMAT_10BITS: 10bits
 126:Drivers/GD32F1x0_standard_peripheral/Source/gd32f1x0_i2c.c ****     \param[in]  addr: I2C address
 127:Drivers/GD32F1x0_standard_peripheral/Source/gd32f1x0_i2c.c ****     \param[out] none
 128:Drivers/GD32F1x0_standard_peripheral/Source/gd32f1x0_i2c.c ****     \retval     none
 129:Drivers/GD32F1x0_standard_peripheral/Source/gd32f1x0_i2c.c **** */
 130:Drivers/GD32F1x0_standard_peripheral/Source/gd32f1x0_i2c.c **** void i2c_mode_addr_config(uint32_t i2c_periph, uint32_t mode, uint32_t addformat, uint32_t addr)
 131:Drivers/GD32F1x0_standard_peripheral/Source/gd32f1x0_i2c.c **** {
 305              		.loc 1 131 1 is_stmt 1 view -0
 306              		.cfi_startproc
 307              		@ args = 0, pretend = 0, frame = 0
 308              		@ frame_needed = 0, uses_anonymous_args = 0
 132:Drivers/GD32F1x0_standard_peripheral/Source/gd32f1x0_i2c.c ****     /* SMBus/I2C mode selected */
 133:Drivers/GD32F1x0_standard_peripheral/Source/gd32f1x0_i2c.c ****     uint32_t ctl = 0U;
 309              		.loc 1 133 5 view .LVU93
 134:Drivers/GD32F1x0_standard_peripheral/Source/gd32f1x0_i2c.c ****     ctl = I2C_CTL0(i2c_periph);
 310              		.loc 1 134 5 view .LVU94
 131:Drivers/GD32F1x0_standard_peripheral/Source/gd32f1x0_i2c.c ****     /* SMBus/I2C mode selected */
 311              		.loc 1 131 1 is_stmt 0 view .LVU95
 312 0000 10B5     		push	{r4, lr}
 313              	.LCFI4:
 314              		.cfi_def_cfa_offset 8
 315              		.cfi_offset 4, -8
 316              		.cfi_offset 14, -4
 317              		.loc 1 134 9 view .LVU96
 318 0002 0468     		ldr	r4, [r0]
 319              	.LVL33:
 135:Drivers/GD32F1x0_standard_peripheral/Source/gd32f1x0_i2c.c ****     ctl &= ~(I2C_CTL0_SMBEN); 
 320              		.loc 1 135 5 is_stmt 1 view .LVU97
 136:Drivers/GD32F1x0_standard_peripheral/Source/gd32f1x0_i2c.c ****     ctl |= mode;
 137:Drivers/GD32F1x0_standard_peripheral/Source/gd32f1x0_i2c.c ****     I2C_CTL0(i2c_periph) = ctl;
 138:Drivers/GD32F1x0_standard_peripheral/Source/gd32f1x0_i2c.c ****     /* configure address */
 139:Drivers/GD32F1x0_standard_peripheral/Source/gd32f1x0_i2c.c ****     I2C_SADDR0(i2c_periph) = (addformat | addr);
 321              		.loc 1 139 41 is_stmt 0 view .LVU98
 322 0004 1A43     		orrs	r2, r2, r3
 323              	.LVL34:
 135:Drivers/GD32F1x0_standard_peripheral/Source/gd32f1x0_i2c.c ****     ctl &= ~(I2C_CTL0_SMBEN); 
ARM GAS  /tmp/ccahbfuw.s 			page 10


 324              		.loc 1 135 9 view .LVU99
 325 0006 24F00204 		bic	r4, r4, #2
 326              	.LVL35:
 136:Drivers/GD32F1x0_standard_peripheral/Source/gd32f1x0_i2c.c ****     ctl |= mode;
 327              		.loc 1 136 5 is_stmt 1 view .LVU100
 136:Drivers/GD32F1x0_standard_peripheral/Source/gd32f1x0_i2c.c ****     ctl |= mode;
 328              		.loc 1 136 9 is_stmt 0 view .LVU101
 329 000a 0C43     		orrs	r4, r4, r1
 330              	.LVL36:
 137:Drivers/GD32F1x0_standard_peripheral/Source/gd32f1x0_i2c.c ****     /* configure address */
 331              		.loc 1 137 5 is_stmt 1 view .LVU102
 137:Drivers/GD32F1x0_standard_peripheral/Source/gd32f1x0_i2c.c ****     /* configure address */
 332              		.loc 1 137 26 is_stmt 0 view .LVU103
 333 000c 0460     		str	r4, [r0]
 334              		.loc 1 139 5 is_stmt 1 view .LVU104
 335              		.loc 1 139 28 is_stmt 0 view .LVU105
 336 000e 8260     		str	r2, [r0, #8]
 140:Drivers/GD32F1x0_standard_peripheral/Source/gd32f1x0_i2c.c **** }
 337              		.loc 1 140 1 view .LVU106
 338 0010 10BD     		pop	{r4, pc}
 339              		.loc 1 140 1 view .LVU107
 340              		.cfi_endproc
 341              	.LFE58:
 343              		.section	.text.i2c_smbus_type_config,"ax",%progbits
 344              		.align	1
 345              		.global	i2c_smbus_type_config
 346              		.syntax unified
 347              		.thumb
 348              		.thumb_func
 349              		.fpu softvfp
 351              	i2c_smbus_type_config:
 352              	.LVL37:
 353              	.LFB59:
 141:Drivers/GD32F1x0_standard_peripheral/Source/gd32f1x0_i2c.c **** 
 142:Drivers/GD32F1x0_standard_peripheral/Source/gd32f1x0_i2c.c **** /*!
 143:Drivers/GD32F1x0_standard_peripheral/Source/gd32f1x0_i2c.c ****     \brief      SMBus type selection
 144:Drivers/GD32F1x0_standard_peripheral/Source/gd32f1x0_i2c.c ****     \param[in]  i2c_periph: I2Cx(x=0,1,2)
 145:Drivers/GD32F1x0_standard_peripheral/Source/gd32f1x0_i2c.c ****     \param[in]  ack:
 146:Drivers/GD32F1x0_standard_peripheral/Source/gd32f1x0_i2c.c ****       \arg        I2C_SMBUS_DEVICE: device
 147:Drivers/GD32F1x0_standard_peripheral/Source/gd32f1x0_i2c.c ****       \arg        I2C_SMBUS_HOST: host
 148:Drivers/GD32F1x0_standard_peripheral/Source/gd32f1x0_i2c.c ****     \param[out] none
 149:Drivers/GD32F1x0_standard_peripheral/Source/gd32f1x0_i2c.c ****     \retval     none
 150:Drivers/GD32F1x0_standard_peripheral/Source/gd32f1x0_i2c.c **** */
 151:Drivers/GD32F1x0_standard_peripheral/Source/gd32f1x0_i2c.c **** void i2c_smbus_type_config(uint32_t i2c_periph, uint32_t type)
 152:Drivers/GD32F1x0_standard_peripheral/Source/gd32f1x0_i2c.c **** {
 354              		.loc 1 152 1 is_stmt 1 view -0
 355              		.cfi_startproc
 356              		@ args = 0, pretend = 0, frame = 0
 357              		@ frame_needed = 0, uses_anonymous_args = 0
 358              		@ link register save eliminated.
 153:Drivers/GD32F1x0_standard_peripheral/Source/gd32f1x0_i2c.c ****     if(I2C_SMBUS_HOST == type){
 359              		.loc 1 153 5 view .LVU109
 154:Drivers/GD32F1x0_standard_peripheral/Source/gd32f1x0_i2c.c ****         I2C_CTL0(i2c_periph) |= I2C_CTL0_SMBSEL;
 360              		.loc 1 154 30 is_stmt 0 view .LVU110
 361 0000 0368     		ldr	r3, [r0]
 153:Drivers/GD32F1x0_standard_peripheral/Source/gd32f1x0_i2c.c ****     if(I2C_SMBUS_HOST == type){
 362              		.loc 1 153 7 view .LVU111
ARM GAS  /tmp/ccahbfuw.s 			page 11


 363 0002 0829     		cmp	r1, #8
 364              		.loc 1 154 9 is_stmt 1 view .LVU112
 365              		.loc 1 154 30 is_stmt 0 view .LVU113
 366 0004 0CBF     		ite	eq
 367 0006 43F00803 		orreq	r3, r3, #8
 155:Drivers/GD32F1x0_standard_peripheral/Source/gd32f1x0_i2c.c ****     }else{
 156:Drivers/GD32F1x0_standard_peripheral/Source/gd32f1x0_i2c.c ****         I2C_CTL0(i2c_periph) &= ~(I2C_CTL0_SMBSEL);
 368              		.loc 1 156 9 is_stmt 1 view .LVU114
 369              		.loc 1 156 30 is_stmt 0 view .LVU115
 370 000a 23F00803 		bicne	r3, r3, #8
 371 000e 0360     		str	r3, [r0]
 157:Drivers/GD32F1x0_standard_peripheral/Source/gd32f1x0_i2c.c ****     }
 158:Drivers/GD32F1x0_standard_peripheral/Source/gd32f1x0_i2c.c **** }
 372              		.loc 1 158 1 view .LVU116
 373 0010 7047     		bx	lr
 374              		.cfi_endproc
 375              	.LFE59:
 377              		.section	.text.i2c_ack_config,"ax",%progbits
 378              		.align	1
 379              		.global	i2c_ack_config
 380              		.syntax unified
 381              		.thumb
 382              		.thumb_func
 383              		.fpu softvfp
 385              	i2c_ack_config:
 386              	.LVL38:
 387              	.LFB60:
 159:Drivers/GD32F1x0_standard_peripheral/Source/gd32f1x0_i2c.c **** 
 160:Drivers/GD32F1x0_standard_peripheral/Source/gd32f1x0_i2c.c **** /*!
 161:Drivers/GD32F1x0_standard_peripheral/Source/gd32f1x0_i2c.c ****     \brief      whether or not to send an ACK
 162:Drivers/GD32F1x0_standard_peripheral/Source/gd32f1x0_i2c.c ****     \param[in]  i2c_periph: I2Cx(x=0,1,2)
 163:Drivers/GD32F1x0_standard_peripheral/Source/gd32f1x0_i2c.c ****     \param[in]  ack:
 164:Drivers/GD32F1x0_standard_peripheral/Source/gd32f1x0_i2c.c ****       \arg        I2C_ACK_ENABLE: ACK will be sent
 165:Drivers/GD32F1x0_standard_peripheral/Source/gd32f1x0_i2c.c ****       \arg        I2C_ACK_DISABLE: ACK will not be sent
 166:Drivers/GD32F1x0_standard_peripheral/Source/gd32f1x0_i2c.c ****     \param[out] none
 167:Drivers/GD32F1x0_standard_peripheral/Source/gd32f1x0_i2c.c ****     \retval     none
 168:Drivers/GD32F1x0_standard_peripheral/Source/gd32f1x0_i2c.c **** */
 169:Drivers/GD32F1x0_standard_peripheral/Source/gd32f1x0_i2c.c **** void i2c_ack_config(uint32_t i2c_periph, uint32_t ack)
 170:Drivers/GD32F1x0_standard_peripheral/Source/gd32f1x0_i2c.c **** {
 388              		.loc 1 170 1 is_stmt 1 view -0
 389              		.cfi_startproc
 390              		@ args = 0, pretend = 0, frame = 0
 391              		@ frame_needed = 0, uses_anonymous_args = 0
 392              		@ link register save eliminated.
 171:Drivers/GD32F1x0_standard_peripheral/Source/gd32f1x0_i2c.c ****     if(I2C_ACK_ENABLE == ack){
 393              		.loc 1 171 5 view .LVU118
 172:Drivers/GD32F1x0_standard_peripheral/Source/gd32f1x0_i2c.c ****         I2C_CTL0(i2c_periph) |= I2C_CTL0_ACKEN;
 394              		.loc 1 172 30 is_stmt 0 view .LVU119
 395 0000 0368     		ldr	r3, [r0]
 171:Drivers/GD32F1x0_standard_peripheral/Source/gd32f1x0_i2c.c ****     if(I2C_ACK_ENABLE == ack){
 396              		.loc 1 171 7 view .LVU120
 397 0002 0129     		cmp	r1, #1
 398              		.loc 1 172 9 is_stmt 1 view .LVU121
 399              		.loc 1 172 30 is_stmt 0 view .LVU122
 400 0004 0CBF     		ite	eq
 401 0006 43F48063 		orreq	r3, r3, #1024
 173:Drivers/GD32F1x0_standard_peripheral/Source/gd32f1x0_i2c.c ****     }else{
ARM GAS  /tmp/ccahbfuw.s 			page 12


 174:Drivers/GD32F1x0_standard_peripheral/Source/gd32f1x0_i2c.c ****         I2C_CTL0(i2c_periph) &= ~(I2C_CTL0_ACKEN);
 402              		.loc 1 174 9 is_stmt 1 view .LVU123
 403              		.loc 1 174 30 is_stmt 0 view .LVU124
 404 000a 23F48063 		bicne	r3, r3, #1024
 405 000e 0360     		str	r3, [r0]
 175:Drivers/GD32F1x0_standard_peripheral/Source/gd32f1x0_i2c.c ****     }
 176:Drivers/GD32F1x0_standard_peripheral/Source/gd32f1x0_i2c.c **** }
 406              		.loc 1 176 1 view .LVU125
 407 0010 7047     		bx	lr
 408              		.cfi_endproc
 409              	.LFE60:
 411              		.section	.text.i2c_ackpos_config,"ax",%progbits
 412              		.align	1
 413              		.global	i2c_ackpos_config
 414              		.syntax unified
 415              		.thumb
 416              		.thumb_func
 417              		.fpu softvfp
 419              	i2c_ackpos_config:
 420              	.LVL39:
 421              	.LFB61:
 177:Drivers/GD32F1x0_standard_peripheral/Source/gd32f1x0_i2c.c **** 
 178:Drivers/GD32F1x0_standard_peripheral/Source/gd32f1x0_i2c.c **** /*!
 179:Drivers/GD32F1x0_standard_peripheral/Source/gd32f1x0_i2c.c ****     \brief      I2C POAP position configure
 180:Drivers/GD32F1x0_standard_peripheral/Source/gd32f1x0_i2c.c ****     \param[in]  i2c_periph: I2Cx(x=0,1,2)
 181:Drivers/GD32F1x0_standard_peripheral/Source/gd32f1x0_i2c.c ****     \param[in]  pos:
 182:Drivers/GD32F1x0_standard_peripheral/Source/gd32f1x0_i2c.c ****       \arg        I2C_ACKPOS_CURRENT: whether to send ACK or not for the current
 183:Drivers/GD32F1x0_standard_peripheral/Source/gd32f1x0_i2c.c ****       \arg        I2C_ACKPOS_NEXT: whether to send ACK or not for the next byte
 184:Drivers/GD32F1x0_standard_peripheral/Source/gd32f1x0_i2c.c ****     \param[out] none
 185:Drivers/GD32F1x0_standard_peripheral/Source/gd32f1x0_i2c.c ****     \retval     none
 186:Drivers/GD32F1x0_standard_peripheral/Source/gd32f1x0_i2c.c **** */
 187:Drivers/GD32F1x0_standard_peripheral/Source/gd32f1x0_i2c.c **** void i2c_ackpos_config(uint32_t i2c_periph, uint32_t pos)
 188:Drivers/GD32F1x0_standard_peripheral/Source/gd32f1x0_i2c.c **** {
 422              		.loc 1 188 1 is_stmt 1 view -0
 423              		.cfi_startproc
 424              		@ args = 0, pretend = 0, frame = 0
 425              		@ frame_needed = 0, uses_anonymous_args = 0
 426              		@ link register save eliminated.
 189:Drivers/GD32F1x0_standard_peripheral/Source/gd32f1x0_i2c.c ****     /* configure I2C POAP position */
 190:Drivers/GD32F1x0_standard_peripheral/Source/gd32f1x0_i2c.c ****     if(I2C_ACKPOS_NEXT == pos){
 427              		.loc 1 190 5 view .LVU127
 191:Drivers/GD32F1x0_standard_peripheral/Source/gd32f1x0_i2c.c ****         I2C_CTL0(i2c_periph) |= I2C_CTL0_POAP;
 428              		.loc 1 191 30 is_stmt 0 view .LVU128
 429 0000 0368     		ldr	r3, [r0]
 190:Drivers/GD32F1x0_standard_peripheral/Source/gd32f1x0_i2c.c ****         I2C_CTL0(i2c_periph) |= I2C_CTL0_POAP;
 430              		.loc 1 190 7 view .LVU129
 431 0002 19B9     		cbnz	r1, .L33
 432              		.loc 1 191 9 is_stmt 1 view .LVU130
 433              		.loc 1 191 30 is_stmt 0 view .LVU131
 434 0004 43F40063 		orr	r3, r3, #2048
 435              	.L35:
 192:Drivers/GD32F1x0_standard_peripheral/Source/gd32f1x0_i2c.c ****     }else{
 193:Drivers/GD32F1x0_standard_peripheral/Source/gd32f1x0_i2c.c ****         I2C_CTL0(i2c_periph) &= ~(I2C_CTL0_POAP);
 436              		.loc 1 193 30 view .LVU132
 437 0008 0360     		str	r3, [r0]
 194:Drivers/GD32F1x0_standard_peripheral/Source/gd32f1x0_i2c.c ****     }
 195:Drivers/GD32F1x0_standard_peripheral/Source/gd32f1x0_i2c.c **** }
ARM GAS  /tmp/ccahbfuw.s 			page 13


 438              		.loc 1 195 1 view .LVU133
 439 000a 7047     		bx	lr
 440              	.L33:
 193:Drivers/GD32F1x0_standard_peripheral/Source/gd32f1x0_i2c.c ****     }
 441              		.loc 1 193 9 is_stmt 1 view .LVU134
 193:Drivers/GD32F1x0_standard_peripheral/Source/gd32f1x0_i2c.c ****     }
 442              		.loc 1 193 30 is_stmt 0 view .LVU135
 443 000c 23F40063 		bic	r3, r3, #2048
 444 0010 FAE7     		b	.L35
 445              		.cfi_endproc
 446              	.LFE61:
 448              		.section	.text.i2c_master_addressing,"ax",%progbits
 449              		.align	1
 450              		.global	i2c_master_addressing
 451              		.syntax unified
 452              		.thumb
 453              		.thumb_func
 454              		.fpu softvfp
 456              	i2c_master_addressing:
 457              	.LVL40:
 458              	.LFB62:
 196:Drivers/GD32F1x0_standard_peripheral/Source/gd32f1x0_i2c.c **** 
 197:Drivers/GD32F1x0_standard_peripheral/Source/gd32f1x0_i2c.c **** /*!
 198:Drivers/GD32F1x0_standard_peripheral/Source/gd32f1x0_i2c.c ****     \brief      master send slave address
 199:Drivers/GD32F1x0_standard_peripheral/Source/gd32f1x0_i2c.c ****     \param[in]  i2c_periph: I2Cx(x=0,1,2)
 200:Drivers/GD32F1x0_standard_peripheral/Source/gd32f1x0_i2c.c ****     \param[in]  addr: slave address  
 201:Drivers/GD32F1x0_standard_peripheral/Source/gd32f1x0_i2c.c ****     \param[in]  trandirection: transmitter or receiver
 202:Drivers/GD32F1x0_standard_peripheral/Source/gd32f1x0_i2c.c ****       \arg        I2C_TRANSMITTER: transmitter  
 203:Drivers/GD32F1x0_standard_peripheral/Source/gd32f1x0_i2c.c ****       \arg        I2C_RECEIVER:    receiver  
 204:Drivers/GD32F1x0_standard_peripheral/Source/gd32f1x0_i2c.c ****     \param[out] none
 205:Drivers/GD32F1x0_standard_peripheral/Source/gd32f1x0_i2c.c ****     \retval     none
 206:Drivers/GD32F1x0_standard_peripheral/Source/gd32f1x0_i2c.c **** */
 207:Drivers/GD32F1x0_standard_peripheral/Source/gd32f1x0_i2c.c **** void i2c_master_addressing(uint32_t i2c_periph, uint32_t addr, uint32_t trandirection)
 208:Drivers/GD32F1x0_standard_peripheral/Source/gd32f1x0_i2c.c **** {
 459              		.loc 1 208 1 is_stmt 1 view -0
 460              		.cfi_startproc
 461              		@ args = 0, pretend = 0, frame = 0
 462              		@ frame_needed = 0, uses_anonymous_args = 0
 463              		@ link register save eliminated.
 209:Drivers/GD32F1x0_standard_peripheral/Source/gd32f1x0_i2c.c ****     if(I2C_TRANSMITTER == trandirection){
 464              		.loc 1 209 5 view .LVU137
 465              		.loc 1 209 7 is_stmt 0 view .LVU138
 466 0000 0232     		adds	r2, r2, #2
 467              	.LVL41:
 210:Drivers/GD32F1x0_standard_peripheral/Source/gd32f1x0_i2c.c ****         addr = addr & I2C_TRANSMITTER;
 468              		.loc 1 210 9 is_stmt 1 view .LVU139
 469              		.loc 1 210 14 is_stmt 0 view .LVU140
 470 0002 0CBF     		ite	eq
 471 0004 21F00101 		biceq	r1, r1, #1
 472              	.LVL42:
 211:Drivers/GD32F1x0_standard_peripheral/Source/gd32f1x0_i2c.c ****     }else{
 212:Drivers/GD32F1x0_standard_peripheral/Source/gd32f1x0_i2c.c ****         addr = addr | I2C_RECEIVER;
 473              		.loc 1 212 9 is_stmt 1 view .LVU141
 474              		.loc 1 212 14 is_stmt 0 view .LVU142
 475 0008 41F00101 		orrne	r1, r1, #1
 476              	.LVL43:
 213:Drivers/GD32F1x0_standard_peripheral/Source/gd32f1x0_i2c.c ****     }
ARM GAS  /tmp/ccahbfuw.s 			page 14


 214:Drivers/GD32F1x0_standard_peripheral/Source/gd32f1x0_i2c.c ****     I2C_DATA(i2c_periph) = addr;
 477              		.loc 1 214 5 is_stmt 1 view .LVU143
 478              		.loc 1 214 26 is_stmt 0 view .LVU144
 479 000c 0161     		str	r1, [r0, #16]
 215:Drivers/GD32F1x0_standard_peripheral/Source/gd32f1x0_i2c.c **** }
 480              		.loc 1 215 1 view .LVU145
 481 000e 7047     		bx	lr
 482              		.cfi_endproc
 483              	.LFE62:
 485              		.section	.text.i2c_dualaddr_enable,"ax",%progbits
 486              		.align	1
 487              		.global	i2c_dualaddr_enable
 488              		.syntax unified
 489              		.thumb
 490              		.thumb_func
 491              		.fpu softvfp
 493              	i2c_dualaddr_enable:
 494              	.LVL44:
 495              	.LFB63:
 216:Drivers/GD32F1x0_standard_peripheral/Source/gd32f1x0_i2c.c **** 
 217:Drivers/GD32F1x0_standard_peripheral/Source/gd32f1x0_i2c.c **** /*!
 218:Drivers/GD32F1x0_standard_peripheral/Source/gd32f1x0_i2c.c ****     \brief      dual-address mode switch
 219:Drivers/GD32F1x0_standard_peripheral/Source/gd32f1x0_i2c.c ****     \param[in]  i2c_periph: I2Cx(x=0,1,2)
 220:Drivers/GD32F1x0_standard_peripheral/Source/gd32f1x0_i2c.c ****     \param[in]  dualaddr:
 221:Drivers/GD32F1x0_standard_peripheral/Source/gd32f1x0_i2c.c ****       \arg        I2C_DUADEN_DISABLE: disable dual-address mode  
 222:Drivers/GD32F1x0_standard_peripheral/Source/gd32f1x0_i2c.c ****       \arg        I2C_DUADEN_ENABLE: enable dual-address mode
 223:Drivers/GD32F1x0_standard_peripheral/Source/gd32f1x0_i2c.c ****     \param[out] none
 224:Drivers/GD32F1x0_standard_peripheral/Source/gd32f1x0_i2c.c ****     \retval     none
 225:Drivers/GD32F1x0_standard_peripheral/Source/gd32f1x0_i2c.c **** */
 226:Drivers/GD32F1x0_standard_peripheral/Source/gd32f1x0_i2c.c **** void i2c_dualaddr_enable(uint32_t i2c_periph, uint32_t dualaddr)
 227:Drivers/GD32F1x0_standard_peripheral/Source/gd32f1x0_i2c.c **** {
 496              		.loc 1 227 1 is_stmt 1 view -0
 497              		.cfi_startproc
 498              		@ args = 0, pretend = 0, frame = 0
 499              		@ frame_needed = 0, uses_anonymous_args = 0
 500              		@ link register save eliminated.
 228:Drivers/GD32F1x0_standard_peripheral/Source/gd32f1x0_i2c.c ****     if(I2C_DUADEN_ENABLE == dualaddr){
 501              		.loc 1 228 5 view .LVU147
 229:Drivers/GD32F1x0_standard_peripheral/Source/gd32f1x0_i2c.c ****         I2C_SADDR1(i2c_periph) |= I2C_SADDR1_DUADEN;
 502              		.loc 1 229 32 is_stmt 0 view .LVU148
 503 0000 C368     		ldr	r3, [r0, #12]
 228:Drivers/GD32F1x0_standard_peripheral/Source/gd32f1x0_i2c.c ****     if(I2C_DUADEN_ENABLE == dualaddr){
 504              		.loc 1 228 7 view .LVU149
 505 0002 0129     		cmp	r1, #1
 506              		.loc 1 229 9 is_stmt 1 view .LVU150
 507              		.loc 1 229 32 is_stmt 0 view .LVU151
 508 0004 0CBF     		ite	eq
 509 0006 43F00103 		orreq	r3, r3, #1
 230:Drivers/GD32F1x0_standard_peripheral/Source/gd32f1x0_i2c.c ****     }else{
 231:Drivers/GD32F1x0_standard_peripheral/Source/gd32f1x0_i2c.c ****         I2C_SADDR1(i2c_periph) &= ~(I2C_SADDR1_DUADEN);
 510              		.loc 1 231 9 is_stmt 1 view .LVU152
 511              		.loc 1 231 32 is_stmt 0 view .LVU153
 512 000a 23F00103 		bicne	r3, r3, #1
 513 000e C360     		str	r3, [r0, #12]
 232:Drivers/GD32F1x0_standard_peripheral/Source/gd32f1x0_i2c.c ****     }
 233:Drivers/GD32F1x0_standard_peripheral/Source/gd32f1x0_i2c.c **** }
 514              		.loc 1 233 1 view .LVU154
ARM GAS  /tmp/ccahbfuw.s 			page 15


 515 0010 7047     		bx	lr
 516              		.cfi_endproc
 517              	.LFE63:
 519              		.section	.text.i2c_enable,"ax",%progbits
 520              		.align	1
 521              		.global	i2c_enable
 522              		.syntax unified
 523              		.thumb
 524              		.thumb_func
 525              		.fpu softvfp
 527              	i2c_enable:
 528              	.LVL45:
 529              	.LFB64:
 234:Drivers/GD32F1x0_standard_peripheral/Source/gd32f1x0_i2c.c **** 
 235:Drivers/GD32F1x0_standard_peripheral/Source/gd32f1x0_i2c.c **** /*!
 236:Drivers/GD32F1x0_standard_peripheral/Source/gd32f1x0_i2c.c ****     \brief      enable I2C
 237:Drivers/GD32F1x0_standard_peripheral/Source/gd32f1x0_i2c.c ****     \param[in]  i2c_periph: I2Cx(x=0,1,2)
 238:Drivers/GD32F1x0_standard_peripheral/Source/gd32f1x0_i2c.c ****     \param[out] none
 239:Drivers/GD32F1x0_standard_peripheral/Source/gd32f1x0_i2c.c ****     \retval     none
 240:Drivers/GD32F1x0_standard_peripheral/Source/gd32f1x0_i2c.c **** */
 241:Drivers/GD32F1x0_standard_peripheral/Source/gd32f1x0_i2c.c **** void i2c_enable(uint32_t i2c_periph)
 242:Drivers/GD32F1x0_standard_peripheral/Source/gd32f1x0_i2c.c **** {
 530              		.loc 1 242 1 is_stmt 1 view -0
 531              		.cfi_startproc
 532              		@ args = 0, pretend = 0, frame = 0
 533              		@ frame_needed = 0, uses_anonymous_args = 0
 534              		@ link register save eliminated.
 243:Drivers/GD32F1x0_standard_peripheral/Source/gd32f1x0_i2c.c ****     I2C_CTL0(i2c_periph) |= I2C_CTL0_I2CEN;
 535              		.loc 1 243 5 view .LVU156
 536              		.loc 1 243 26 is_stmt 0 view .LVU157
 537 0000 0368     		ldr	r3, [r0]
 538 0002 43F00103 		orr	r3, r3, #1
 539 0006 0360     		str	r3, [r0]
 244:Drivers/GD32F1x0_standard_peripheral/Source/gd32f1x0_i2c.c **** }
 540              		.loc 1 244 1 view .LVU158
 541 0008 7047     		bx	lr
 542              		.cfi_endproc
 543              	.LFE64:
 545              		.section	.text.i2c_disable,"ax",%progbits
 546              		.align	1
 547              		.global	i2c_disable
 548              		.syntax unified
 549              		.thumb
 550              		.thumb_func
 551              		.fpu softvfp
 553              	i2c_disable:
 554              	.LVL46:
 555              	.LFB65:
 245:Drivers/GD32F1x0_standard_peripheral/Source/gd32f1x0_i2c.c **** 
 246:Drivers/GD32F1x0_standard_peripheral/Source/gd32f1x0_i2c.c **** /*!
 247:Drivers/GD32F1x0_standard_peripheral/Source/gd32f1x0_i2c.c ****     \brief      disable I2C
 248:Drivers/GD32F1x0_standard_peripheral/Source/gd32f1x0_i2c.c ****     \param[in]  i2c_periph: I2Cx(x=0,1,2) 
 249:Drivers/GD32F1x0_standard_peripheral/Source/gd32f1x0_i2c.c ****     \param[out] none
 250:Drivers/GD32F1x0_standard_peripheral/Source/gd32f1x0_i2c.c ****     \retval     none
 251:Drivers/GD32F1x0_standard_peripheral/Source/gd32f1x0_i2c.c **** */
 252:Drivers/GD32F1x0_standard_peripheral/Source/gd32f1x0_i2c.c **** void i2c_disable(uint32_t i2c_periph)
 253:Drivers/GD32F1x0_standard_peripheral/Source/gd32f1x0_i2c.c **** {
ARM GAS  /tmp/ccahbfuw.s 			page 16


 556              		.loc 1 253 1 is_stmt 1 view -0
 557              		.cfi_startproc
 558              		@ args = 0, pretend = 0, frame = 0
 559              		@ frame_needed = 0, uses_anonymous_args = 0
 560              		@ link register save eliminated.
 254:Drivers/GD32F1x0_standard_peripheral/Source/gd32f1x0_i2c.c ****     I2C_CTL0(i2c_periph) &= ~(I2C_CTL0_I2CEN);
 561              		.loc 1 254 5 view .LVU160
 562              		.loc 1 254 26 is_stmt 0 view .LVU161
 563 0000 0368     		ldr	r3, [r0]
 564 0002 23F00103 		bic	r3, r3, #1
 565 0006 0360     		str	r3, [r0]
 255:Drivers/GD32F1x0_standard_peripheral/Source/gd32f1x0_i2c.c **** }
 566              		.loc 1 255 1 view .LVU162
 567 0008 7047     		bx	lr
 568              		.cfi_endproc
 569              	.LFE65:
 571              		.section	.text.i2c_start_on_bus,"ax",%progbits
 572              		.align	1
 573              		.global	i2c_start_on_bus
 574              		.syntax unified
 575              		.thumb
 576              		.thumb_func
 577              		.fpu softvfp
 579              	i2c_start_on_bus:
 580              	.LVL47:
 581              	.LFB66:
 256:Drivers/GD32F1x0_standard_peripheral/Source/gd32f1x0_i2c.c **** 
 257:Drivers/GD32F1x0_standard_peripheral/Source/gd32f1x0_i2c.c **** /*!
 258:Drivers/GD32F1x0_standard_peripheral/Source/gd32f1x0_i2c.c ****     \brief      generate a START condition on I2C bus
 259:Drivers/GD32F1x0_standard_peripheral/Source/gd32f1x0_i2c.c ****     \param[in]  i2c_periph: I2Cx(x=0,1,2)
 260:Drivers/GD32F1x0_standard_peripheral/Source/gd32f1x0_i2c.c ****     \param[out] none
 261:Drivers/GD32F1x0_standard_peripheral/Source/gd32f1x0_i2c.c ****     \retval     none
 262:Drivers/GD32F1x0_standard_peripheral/Source/gd32f1x0_i2c.c **** */
 263:Drivers/GD32F1x0_standard_peripheral/Source/gd32f1x0_i2c.c **** void i2c_start_on_bus(uint32_t i2c_periph)
 264:Drivers/GD32F1x0_standard_peripheral/Source/gd32f1x0_i2c.c **** {
 582              		.loc 1 264 1 is_stmt 1 view -0
 583              		.cfi_startproc
 584              		@ args = 0, pretend = 0, frame = 0
 585              		@ frame_needed = 0, uses_anonymous_args = 0
 586              		@ link register save eliminated.
 265:Drivers/GD32F1x0_standard_peripheral/Source/gd32f1x0_i2c.c ****     I2C_CTL0(i2c_periph) |= I2C_CTL0_START;
 587              		.loc 1 265 5 view .LVU164
 588              		.loc 1 265 26 is_stmt 0 view .LVU165
 589 0000 0368     		ldr	r3, [r0]
 590 0002 43F48073 		orr	r3, r3, #256
 591 0006 0360     		str	r3, [r0]
 266:Drivers/GD32F1x0_standard_peripheral/Source/gd32f1x0_i2c.c **** }
 592              		.loc 1 266 1 view .LVU166
 593 0008 7047     		bx	lr
 594              		.cfi_endproc
 595              	.LFE66:
 597              		.section	.text.i2c_stop_on_bus,"ax",%progbits
 598              		.align	1
 599              		.global	i2c_stop_on_bus
 600              		.syntax unified
 601              		.thumb
 602              		.thumb_func
ARM GAS  /tmp/ccahbfuw.s 			page 17


 603              		.fpu softvfp
 605              	i2c_stop_on_bus:
 606              	.LVL48:
 607              	.LFB67:
 267:Drivers/GD32F1x0_standard_peripheral/Source/gd32f1x0_i2c.c **** 
 268:Drivers/GD32F1x0_standard_peripheral/Source/gd32f1x0_i2c.c **** /*!
 269:Drivers/GD32F1x0_standard_peripheral/Source/gd32f1x0_i2c.c ****     \brief      generate a STOP condition on I2C bus
 270:Drivers/GD32F1x0_standard_peripheral/Source/gd32f1x0_i2c.c ****     \param[in]  i2c_periph: I2Cx(x=0,1,2)
 271:Drivers/GD32F1x0_standard_peripheral/Source/gd32f1x0_i2c.c ****     \param[out] none
 272:Drivers/GD32F1x0_standard_peripheral/Source/gd32f1x0_i2c.c ****     \retval     none
 273:Drivers/GD32F1x0_standard_peripheral/Source/gd32f1x0_i2c.c **** */
 274:Drivers/GD32F1x0_standard_peripheral/Source/gd32f1x0_i2c.c **** void i2c_stop_on_bus(uint32_t i2c_periph)
 275:Drivers/GD32F1x0_standard_peripheral/Source/gd32f1x0_i2c.c **** {
 608              		.loc 1 275 1 is_stmt 1 view -0
 609              		.cfi_startproc
 610              		@ args = 0, pretend = 0, frame = 0
 611              		@ frame_needed = 0, uses_anonymous_args = 0
 612              		@ link register save eliminated.
 276:Drivers/GD32F1x0_standard_peripheral/Source/gd32f1x0_i2c.c ****     I2C_CTL0(i2c_periph) |= I2C_CTL0_STOP;
 613              		.loc 1 276 5 view .LVU168
 614              		.loc 1 276 26 is_stmt 0 view .LVU169
 615 0000 0368     		ldr	r3, [r0]
 616 0002 43F40073 		orr	r3, r3, #512
 617 0006 0360     		str	r3, [r0]
 277:Drivers/GD32F1x0_standard_peripheral/Source/gd32f1x0_i2c.c **** }
 618              		.loc 1 277 1 view .LVU170
 619 0008 7047     		bx	lr
 620              		.cfi_endproc
 621              	.LFE67:
 623              		.section	.text.i2c_data_transmit,"ax",%progbits
 624              		.align	1
 625              		.global	i2c_data_transmit
 626              		.syntax unified
 627              		.thumb
 628              		.thumb_func
 629              		.fpu softvfp
 631              	i2c_data_transmit:
 632              	.LVL49:
 633              	.LFB68:
 278:Drivers/GD32F1x0_standard_peripheral/Source/gd32f1x0_i2c.c **** 
 279:Drivers/GD32F1x0_standard_peripheral/Source/gd32f1x0_i2c.c **** /*!
 280:Drivers/GD32F1x0_standard_peripheral/Source/gd32f1x0_i2c.c ****     \brief      I2C transmit data function
 281:Drivers/GD32F1x0_standard_peripheral/Source/gd32f1x0_i2c.c ****     \param[in]  i2c_periph: I2Cx(x=0,1,2)
 282:Drivers/GD32F1x0_standard_peripheral/Source/gd32f1x0_i2c.c ****     \param[in]  data: data of transmission 
 283:Drivers/GD32F1x0_standard_peripheral/Source/gd32f1x0_i2c.c ****     \param[out] none
 284:Drivers/GD32F1x0_standard_peripheral/Source/gd32f1x0_i2c.c ****     \retval     none
 285:Drivers/GD32F1x0_standard_peripheral/Source/gd32f1x0_i2c.c **** */
 286:Drivers/GD32F1x0_standard_peripheral/Source/gd32f1x0_i2c.c **** void i2c_data_transmit(uint32_t i2c_periph, uint8_t data)
 287:Drivers/GD32F1x0_standard_peripheral/Source/gd32f1x0_i2c.c **** {
 634              		.loc 1 287 1 is_stmt 1 view -0
 635              		.cfi_startproc
 636              		@ args = 0, pretend = 0, frame = 0
 637              		@ frame_needed = 0, uses_anonymous_args = 0
 638              		@ link register save eliminated.
 288:Drivers/GD32F1x0_standard_peripheral/Source/gd32f1x0_i2c.c ****     I2C_DATA(i2c_periph) = DATA_TRANS(data);
 639              		.loc 1 288 5 view .LVU172
 640              		.loc 1 288 26 is_stmt 0 view .LVU173
ARM GAS  /tmp/ccahbfuw.s 			page 18


 641 0000 0161     		str	r1, [r0, #16]
 289:Drivers/GD32F1x0_standard_peripheral/Source/gd32f1x0_i2c.c **** }
 642              		.loc 1 289 1 view .LVU174
 643 0002 7047     		bx	lr
 644              		.cfi_endproc
 645              	.LFE68:
 647              		.section	.text.i2c_data_receive,"ax",%progbits
 648              		.align	1
 649              		.global	i2c_data_receive
 650              		.syntax unified
 651              		.thumb
 652              		.thumb_func
 653              		.fpu softvfp
 655              	i2c_data_receive:
 656              	.LVL50:
 657              	.LFB69:
 290:Drivers/GD32F1x0_standard_peripheral/Source/gd32f1x0_i2c.c **** 
 291:Drivers/GD32F1x0_standard_peripheral/Source/gd32f1x0_i2c.c **** /*!
 292:Drivers/GD32F1x0_standard_peripheral/Source/gd32f1x0_i2c.c ****     \brief      I2C receive data function
 293:Drivers/GD32F1x0_standard_peripheral/Source/gd32f1x0_i2c.c ****     \param[in]  i2c_periph: I2Cx(x=0,1,2)
 294:Drivers/GD32F1x0_standard_peripheral/Source/gd32f1x0_i2c.c ****     \param[out] none
 295:Drivers/GD32F1x0_standard_peripheral/Source/gd32f1x0_i2c.c ****     \retval     data of received
 296:Drivers/GD32F1x0_standard_peripheral/Source/gd32f1x0_i2c.c **** */
 297:Drivers/GD32F1x0_standard_peripheral/Source/gd32f1x0_i2c.c **** uint8_t i2c_data_receive(uint32_t i2c_periph)
 298:Drivers/GD32F1x0_standard_peripheral/Source/gd32f1x0_i2c.c **** {
 658              		.loc 1 298 1 is_stmt 1 view -0
 659              		.cfi_startproc
 660              		@ args = 0, pretend = 0, frame = 0
 661              		@ frame_needed = 0, uses_anonymous_args = 0
 662              		@ link register save eliminated.
 299:Drivers/GD32F1x0_standard_peripheral/Source/gd32f1x0_i2c.c ****     return (uint8_t)DATA_RECV(I2C_DATA(i2c_periph));
 663              		.loc 1 299 5 view .LVU176
 664              		.loc 1 299 21 is_stmt 0 view .LVU177
 665 0000 0069     		ldr	r0, [r0, #16]
 666              	.LVL51:
 300:Drivers/GD32F1x0_standard_peripheral/Source/gd32f1x0_i2c.c **** }
 667              		.loc 1 300 1 view .LVU178
 668 0002 C0B2     		uxtb	r0, r0
 669 0004 7047     		bx	lr
 670              		.cfi_endproc
 671              	.LFE69:
 673              		.section	.text.i2c_dma_enable,"ax",%progbits
 674              		.align	1
 675              		.global	i2c_dma_enable
 676              		.syntax unified
 677              		.thumb
 678              		.thumb_func
 679              		.fpu softvfp
 681              	i2c_dma_enable:
 682              	.LVL52:
 683              	.LFB70:
 301:Drivers/GD32F1x0_standard_peripheral/Source/gd32f1x0_i2c.c **** 
 302:Drivers/GD32F1x0_standard_peripheral/Source/gd32f1x0_i2c.c **** /*!
 303:Drivers/GD32F1x0_standard_peripheral/Source/gd32f1x0_i2c.c ****     \brief      enable I2C DMA mode 
 304:Drivers/GD32F1x0_standard_peripheral/Source/gd32f1x0_i2c.c ****     \param[in]  i2c_periph: I2Cx(x=0,1,2)
 305:Drivers/GD32F1x0_standard_peripheral/Source/gd32f1x0_i2c.c ****     \param[in]  dmastate: 
 306:Drivers/GD32F1x0_standard_peripheral/Source/gd32f1x0_i2c.c ****       \arg        I2C_DMA_ON: DMA mode enable
ARM GAS  /tmp/ccahbfuw.s 			page 19


 307:Drivers/GD32F1x0_standard_peripheral/Source/gd32f1x0_i2c.c ****       \arg        I2C_DMA_OFF: DMA mode disable
 308:Drivers/GD32F1x0_standard_peripheral/Source/gd32f1x0_i2c.c ****     \param[out] none
 309:Drivers/GD32F1x0_standard_peripheral/Source/gd32f1x0_i2c.c ****     \retval     none
 310:Drivers/GD32F1x0_standard_peripheral/Source/gd32f1x0_i2c.c **** */
 311:Drivers/GD32F1x0_standard_peripheral/Source/gd32f1x0_i2c.c **** void i2c_dma_enable(uint32_t i2c_periph, uint32_t dmastate)
 312:Drivers/GD32F1x0_standard_peripheral/Source/gd32f1x0_i2c.c **** {
 684              		.loc 1 312 1 is_stmt 1 view -0
 685              		.cfi_startproc
 686              		@ args = 0, pretend = 0, frame = 0
 687              		@ frame_needed = 0, uses_anonymous_args = 0
 688              		@ link register save eliminated.
 313:Drivers/GD32F1x0_standard_peripheral/Source/gd32f1x0_i2c.c ****     /* configure I2C DMA function */
 314:Drivers/GD32F1x0_standard_peripheral/Source/gd32f1x0_i2c.c ****     uint32_t ctl = 0U;
 689              		.loc 1 314 5 view .LVU180
 315:Drivers/GD32F1x0_standard_peripheral/Source/gd32f1x0_i2c.c ****     ctl = I2C_CTL1(i2c_periph);
 690              		.loc 1 315 5 view .LVU181
 691              		.loc 1 315 9 is_stmt 0 view .LVU182
 692 0000 4368     		ldr	r3, [r0, #4]
 693              	.LVL53:
 316:Drivers/GD32F1x0_standard_peripheral/Source/gd32f1x0_i2c.c ****     ctl &= ~(I2C_CTL1_DMAON);
 694              		.loc 1 316 5 is_stmt 1 view .LVU183
 695              		.loc 1 316 9 is_stmt 0 view .LVU184
 696 0002 23F40063 		bic	r3, r3, #2048
 697              	.LVL54:
 317:Drivers/GD32F1x0_standard_peripheral/Source/gd32f1x0_i2c.c ****     ctl |= dmastate;
 698              		.loc 1 317 5 is_stmt 1 view .LVU185
 699              		.loc 1 317 9 is_stmt 0 view .LVU186
 700 0006 0B43     		orrs	r3, r3, r1
 701              	.LVL55:
 318:Drivers/GD32F1x0_standard_peripheral/Source/gd32f1x0_i2c.c ****     I2C_CTL1(i2c_periph) = ctl;
 702              		.loc 1 318 5 is_stmt 1 view .LVU187
 703              		.loc 1 318 26 is_stmt 0 view .LVU188
 704 0008 4360     		str	r3, [r0, #4]
 319:Drivers/GD32F1x0_standard_peripheral/Source/gd32f1x0_i2c.c **** }
 705              		.loc 1 319 1 view .LVU189
 706 000a 7047     		bx	lr
 707              		.cfi_endproc
 708              	.LFE70:
 710              		.section	.text.i2c_dma_last_transfer_enable,"ax",%progbits
 711              		.align	1
 712              		.global	i2c_dma_last_transfer_enable
 713              		.syntax unified
 714              		.thumb
 715              		.thumb_func
 716              		.fpu softvfp
 718              	i2c_dma_last_transfer_enable:
 719              	.LVL56:
 720              	.LFB71:
 320:Drivers/GD32F1x0_standard_peripheral/Source/gd32f1x0_i2c.c **** 
 321:Drivers/GD32F1x0_standard_peripheral/Source/gd32f1x0_i2c.c **** /*!
 322:Drivers/GD32F1x0_standard_peripheral/Source/gd32f1x0_i2c.c ****     \brief      flag indicating DMA last transfer
 323:Drivers/GD32F1x0_standard_peripheral/Source/gd32f1x0_i2c.c ****     \param[in]  i2c_periph: I2Cx(x=0,1,2)
 324:Drivers/GD32F1x0_standard_peripheral/Source/gd32f1x0_i2c.c ****     \param[in]  dmalast: 
 325:Drivers/GD32F1x0_standard_peripheral/Source/gd32f1x0_i2c.c ****       \arg        I2C_DMALST_ON: next DMA EOT is the last transfer
 326:Drivers/GD32F1x0_standard_peripheral/Source/gd32f1x0_i2c.c ****       \arg        I2C_DMALST_OFF: next DMA EOT is not the last transfer
 327:Drivers/GD32F1x0_standard_peripheral/Source/gd32f1x0_i2c.c ****     \param[out] none
 328:Drivers/GD32F1x0_standard_peripheral/Source/gd32f1x0_i2c.c ****     \retval     none
ARM GAS  /tmp/ccahbfuw.s 			page 20


 329:Drivers/GD32F1x0_standard_peripheral/Source/gd32f1x0_i2c.c **** */
 330:Drivers/GD32F1x0_standard_peripheral/Source/gd32f1x0_i2c.c **** void i2c_dma_last_transfer_enable(uint32_t i2c_periph, uint32_t dmalast)
 331:Drivers/GD32F1x0_standard_peripheral/Source/gd32f1x0_i2c.c **** {
 721              		.loc 1 331 1 is_stmt 1 view -0
 722              		.cfi_startproc
 723              		@ args = 0, pretend = 0, frame = 0
 724              		@ frame_needed = 0, uses_anonymous_args = 0
 725              		@ link register save eliminated.
 332:Drivers/GD32F1x0_standard_peripheral/Source/gd32f1x0_i2c.c ****     /* configure DMA last transfer */
 333:Drivers/GD32F1x0_standard_peripheral/Source/gd32f1x0_i2c.c ****     uint32_t ctl = 0U;
 726              		.loc 1 333 5 view .LVU191
 334:Drivers/GD32F1x0_standard_peripheral/Source/gd32f1x0_i2c.c ****     ctl = I2C_CTL1(i2c_periph);
 727              		.loc 1 334 5 view .LVU192
 728              		.loc 1 334 9 is_stmt 0 view .LVU193
 729 0000 4368     		ldr	r3, [r0, #4]
 730              	.LVL57:
 335:Drivers/GD32F1x0_standard_peripheral/Source/gd32f1x0_i2c.c ****     ctl &= ~(I2C_CTL1_DMALST); 
 731              		.loc 1 335 5 is_stmt 1 view .LVU194
 732              		.loc 1 335 9 is_stmt 0 view .LVU195
 733 0002 23F48053 		bic	r3, r3, #4096
 734              	.LVL58:
 336:Drivers/GD32F1x0_standard_peripheral/Source/gd32f1x0_i2c.c ****     ctl |= dmalast;
 735              		.loc 1 336 5 is_stmt 1 view .LVU196
 736              		.loc 1 336 9 is_stmt 0 view .LVU197
 737 0006 0B43     		orrs	r3, r3, r1
 738              	.LVL59:
 337:Drivers/GD32F1x0_standard_peripheral/Source/gd32f1x0_i2c.c ****     I2C_CTL1(i2c_periph) = ctl;
 739              		.loc 1 337 5 is_stmt 1 view .LVU198
 740              		.loc 1 337 26 is_stmt 0 view .LVU199
 741 0008 4360     		str	r3, [r0, #4]
 338:Drivers/GD32F1x0_standard_peripheral/Source/gd32f1x0_i2c.c **** }
 742              		.loc 1 338 1 view .LVU200
 743 000a 7047     		bx	lr
 744              		.cfi_endproc
 745              	.LFE71:
 747              		.section	.text.i2c_stretch_scl_low_config,"ax",%progbits
 748              		.align	1
 749              		.global	i2c_stretch_scl_low_config
 750              		.syntax unified
 751              		.thumb
 752              		.thumb_func
 753              		.fpu softvfp
 755              	i2c_stretch_scl_low_config:
 756              	.LVL60:
 757              	.LFB72:
 339:Drivers/GD32F1x0_standard_peripheral/Source/gd32f1x0_i2c.c **** 
 340:Drivers/GD32F1x0_standard_peripheral/Source/gd32f1x0_i2c.c **** /*!
 341:Drivers/GD32F1x0_standard_peripheral/Source/gd32f1x0_i2c.c ****     \brief      whether to stretch SCL low when data is not ready in slave mode 
 342:Drivers/GD32F1x0_standard_peripheral/Source/gd32f1x0_i2c.c ****     \param[in]  i2c_periph: I2Cx(x=0,1,2)
 343:Drivers/GD32F1x0_standard_peripheral/Source/gd32f1x0_i2c.c ****     \param[in]  stretchpara:
 344:Drivers/GD32F1x0_standard_peripheral/Source/gd32f1x0_i2c.c ****       \arg        I2C_SCLSTRETCH_ENABLE: SCL stretching is enabled
 345:Drivers/GD32F1x0_standard_peripheral/Source/gd32f1x0_i2c.c ****       \arg        I2C_SCLSTRETCH_DISABLE: SCL stretching is disabled
 346:Drivers/GD32F1x0_standard_peripheral/Source/gd32f1x0_i2c.c ****     \param[out] none
 347:Drivers/GD32F1x0_standard_peripheral/Source/gd32f1x0_i2c.c ****     \retval     none
 348:Drivers/GD32F1x0_standard_peripheral/Source/gd32f1x0_i2c.c **** */
 349:Drivers/GD32F1x0_standard_peripheral/Source/gd32f1x0_i2c.c **** void i2c_stretch_scl_low_config(uint32_t i2c_periph, uint32_t stretchpara)
 350:Drivers/GD32F1x0_standard_peripheral/Source/gd32f1x0_i2c.c **** {
ARM GAS  /tmp/ccahbfuw.s 			page 21


 758              		.loc 1 350 1 is_stmt 1 view -0
 759              		.cfi_startproc
 760              		@ args = 0, pretend = 0, frame = 0
 761              		@ frame_needed = 0, uses_anonymous_args = 0
 762              		@ link register save eliminated.
 351:Drivers/GD32F1x0_standard_peripheral/Source/gd32f1x0_i2c.c ****     /* configure I2C SCL strerching enable or disable */
 352:Drivers/GD32F1x0_standard_peripheral/Source/gd32f1x0_i2c.c ****     uint32_t ctl = 0U;
 763              		.loc 1 352 5 view .LVU202
 353:Drivers/GD32F1x0_standard_peripheral/Source/gd32f1x0_i2c.c ****     ctl = I2C_CTL0(i2c_periph);
 764              		.loc 1 353 5 view .LVU203
 765              		.loc 1 353 9 is_stmt 0 view .LVU204
 766 0000 0368     		ldr	r3, [r0]
 767              	.LVL61:
 354:Drivers/GD32F1x0_standard_peripheral/Source/gd32f1x0_i2c.c ****     ctl &= ~(I2C_CTL0_DISSTRC); 
 768              		.loc 1 354 5 is_stmt 1 view .LVU205
 769              		.loc 1 354 9 is_stmt 0 view .LVU206
 770 0002 23F08003 		bic	r3, r3, #128
 771              	.LVL62:
 355:Drivers/GD32F1x0_standard_peripheral/Source/gd32f1x0_i2c.c ****     ctl |= stretchpara;
 772              		.loc 1 355 5 is_stmt 1 view .LVU207
 773              		.loc 1 355 9 is_stmt 0 view .LVU208
 774 0006 0B43     		orrs	r3, r3, r1
 775              	.LVL63:
 356:Drivers/GD32F1x0_standard_peripheral/Source/gd32f1x0_i2c.c ****     I2C_CTL0(i2c_periph) = ctl;
 776              		.loc 1 356 5 is_stmt 1 view .LVU209
 777              		.loc 1 356 26 is_stmt 0 view .LVU210
 778 0008 0360     		str	r3, [r0]
 357:Drivers/GD32F1x0_standard_peripheral/Source/gd32f1x0_i2c.c **** }
 779              		.loc 1 357 1 view .LVU211
 780 000a 7047     		bx	lr
 781              		.cfi_endproc
 782              	.LFE72:
 784              		.section	.text.i2c_slave_response_to_gcall_config,"ax",%progbits
 785              		.align	1
 786              		.global	i2c_slave_response_to_gcall_config
 787              		.syntax unified
 788              		.thumb
 789              		.thumb_func
 790              		.fpu softvfp
 792              	i2c_slave_response_to_gcall_config:
 793              	.LVL64:
 794              	.LFB73:
 358:Drivers/GD32F1x0_standard_peripheral/Source/gd32f1x0_i2c.c **** 
 359:Drivers/GD32F1x0_standard_peripheral/Source/gd32f1x0_i2c.c **** /*!
 360:Drivers/GD32F1x0_standard_peripheral/Source/gd32f1x0_i2c.c ****     \brief      whether or not to response to a general call 
 361:Drivers/GD32F1x0_standard_peripheral/Source/gd32f1x0_i2c.c ****     \param[in]  i2c_periph: I2Cx(x=0,1,2)
 362:Drivers/GD32F1x0_standard_peripheral/Source/gd32f1x0_i2c.c ****     \param[in]  gcallpara:
 363:Drivers/GD32F1x0_standard_peripheral/Source/gd32f1x0_i2c.c ****       \arg        I2C_GCEN_ENABLE: slave will response to a general call
 364:Drivers/GD32F1x0_standard_peripheral/Source/gd32f1x0_i2c.c ****       \arg        I2C_GCEN_DISABLE: slave will not response to a general call
 365:Drivers/GD32F1x0_standard_peripheral/Source/gd32f1x0_i2c.c ****     \param[out] none
 366:Drivers/GD32F1x0_standard_peripheral/Source/gd32f1x0_i2c.c ****     \retval     none
 367:Drivers/GD32F1x0_standard_peripheral/Source/gd32f1x0_i2c.c **** */
 368:Drivers/GD32F1x0_standard_peripheral/Source/gd32f1x0_i2c.c **** void i2c_slave_response_to_gcall_config(uint32_t i2c_periph, uint32_t gcallpara)
 369:Drivers/GD32F1x0_standard_peripheral/Source/gd32f1x0_i2c.c **** {
 795              		.loc 1 369 1 is_stmt 1 view -0
 796              		.cfi_startproc
 797              		@ args = 0, pretend = 0, frame = 0
ARM GAS  /tmp/ccahbfuw.s 			page 22


 798              		@ frame_needed = 0, uses_anonymous_args = 0
 799              		@ link register save eliminated.
 370:Drivers/GD32F1x0_standard_peripheral/Source/gd32f1x0_i2c.c ****     /* configure slave response to a general call enable or disable */
 371:Drivers/GD32F1x0_standard_peripheral/Source/gd32f1x0_i2c.c ****     uint32_t ctl = 0U;
 800              		.loc 1 371 5 view .LVU213
 372:Drivers/GD32F1x0_standard_peripheral/Source/gd32f1x0_i2c.c ****     ctl = I2C_CTL0(i2c_periph);
 801              		.loc 1 372 5 view .LVU214
 802              		.loc 1 372 9 is_stmt 0 view .LVU215
 803 0000 0368     		ldr	r3, [r0]
 804              	.LVL65:
 373:Drivers/GD32F1x0_standard_peripheral/Source/gd32f1x0_i2c.c ****     ctl &= ~(I2C_CTL0_GCEN);
 805              		.loc 1 373 5 is_stmt 1 view .LVU216
 806              		.loc 1 373 9 is_stmt 0 view .LVU217
 807 0002 23F04003 		bic	r3, r3, #64
 808              	.LVL66:
 374:Drivers/GD32F1x0_standard_peripheral/Source/gd32f1x0_i2c.c ****     ctl |= gcallpara;
 809              		.loc 1 374 5 is_stmt 1 view .LVU218
 810              		.loc 1 374 9 is_stmt 0 view .LVU219
 811 0006 0B43     		orrs	r3, r3, r1
 812              	.LVL67:
 375:Drivers/GD32F1x0_standard_peripheral/Source/gd32f1x0_i2c.c ****     I2C_CTL0(i2c_periph) = ctl;
 813              		.loc 1 375 5 is_stmt 1 view .LVU220
 814              		.loc 1 375 26 is_stmt 0 view .LVU221
 815 0008 0360     		str	r3, [r0]
 376:Drivers/GD32F1x0_standard_peripheral/Source/gd32f1x0_i2c.c **** }
 816              		.loc 1 376 1 view .LVU222
 817 000a 7047     		bx	lr
 818              		.cfi_endproc
 819              	.LFE73:
 821              		.section	.text.i2c_software_reset_config,"ax",%progbits
 822              		.align	1
 823              		.global	i2c_software_reset_config
 824              		.syntax unified
 825              		.thumb
 826              		.thumb_func
 827              		.fpu softvfp
 829              	i2c_software_reset_config:
 830              	.LVL68:
 831              	.LFB74:
 377:Drivers/GD32F1x0_standard_peripheral/Source/gd32f1x0_i2c.c **** 
 378:Drivers/GD32F1x0_standard_peripheral/Source/gd32f1x0_i2c.c **** /*!
 379:Drivers/GD32F1x0_standard_peripheral/Source/gd32f1x0_i2c.c ****     \brief      software reset I2C 
 380:Drivers/GD32F1x0_standard_peripheral/Source/gd32f1x0_i2c.c ****     \param[in]  i2c_periph: I2Cx(x=0,1,2)
 381:Drivers/GD32F1x0_standard_peripheral/Source/gd32f1x0_i2c.c ****     \param[in]  sreset:
 382:Drivers/GD32F1x0_standard_peripheral/Source/gd32f1x0_i2c.c ****       \arg        I2C_SRESET_SET: I2C is under reset
 383:Drivers/GD32F1x0_standard_peripheral/Source/gd32f1x0_i2c.c ****       \arg        I2C_SRESET_RESET: I2C is not under reset
 384:Drivers/GD32F1x0_standard_peripheral/Source/gd32f1x0_i2c.c ****     \param[out] none
 385:Drivers/GD32F1x0_standard_peripheral/Source/gd32f1x0_i2c.c ****     \retval     none
 386:Drivers/GD32F1x0_standard_peripheral/Source/gd32f1x0_i2c.c **** */
 387:Drivers/GD32F1x0_standard_peripheral/Source/gd32f1x0_i2c.c **** void i2c_software_reset_config(uint32_t i2c_periph, uint32_t sreset)
 388:Drivers/GD32F1x0_standard_peripheral/Source/gd32f1x0_i2c.c **** {
 832              		.loc 1 388 1 is_stmt 1 view -0
 833              		.cfi_startproc
 834              		@ args = 0, pretend = 0, frame = 0
 835              		@ frame_needed = 0, uses_anonymous_args = 0
 836              		@ link register save eliminated.
 389:Drivers/GD32F1x0_standard_peripheral/Source/gd32f1x0_i2c.c ****     /* modify CTL0 and configure software reset I2C state */
ARM GAS  /tmp/ccahbfuw.s 			page 23


 390:Drivers/GD32F1x0_standard_peripheral/Source/gd32f1x0_i2c.c ****     uint32_t ctl = 0U;
 837              		.loc 1 390 5 view .LVU224
 391:Drivers/GD32F1x0_standard_peripheral/Source/gd32f1x0_i2c.c ****     ctl = I2C_CTL0(i2c_periph);
 838              		.loc 1 391 5 view .LVU225
 839              		.loc 1 391 9 is_stmt 0 view .LVU226
 840 0000 0368     		ldr	r3, [r0]
 841              	.LVL69:
 392:Drivers/GD32F1x0_standard_peripheral/Source/gd32f1x0_i2c.c ****     ctl &= ~(I2C_CTL0_SRESET);
 842              		.loc 1 392 5 is_stmt 1 view .LVU227
 843              		.loc 1 392 9 is_stmt 0 view .LVU228
 844 0002 23F40043 		bic	r3, r3, #32768
 845              	.LVL70:
 393:Drivers/GD32F1x0_standard_peripheral/Source/gd32f1x0_i2c.c ****     ctl |= sreset;
 846              		.loc 1 393 5 is_stmt 1 view .LVU229
 847              		.loc 1 393 9 is_stmt 0 view .LVU230
 848 0006 0B43     		orrs	r3, r3, r1
 849              	.LVL71:
 394:Drivers/GD32F1x0_standard_peripheral/Source/gd32f1x0_i2c.c ****     I2C_CTL0(i2c_periph) = ctl;
 850              		.loc 1 394 5 is_stmt 1 view .LVU231
 851              		.loc 1 394 26 is_stmt 0 view .LVU232
 852 0008 0360     		str	r3, [r0]
 395:Drivers/GD32F1x0_standard_peripheral/Source/gd32f1x0_i2c.c **** }
 853              		.loc 1 395 1 view .LVU233
 854 000a 7047     		bx	lr
 855              		.cfi_endproc
 856              	.LFE74:
 858              		.section	.text.i2c_flag_get,"ax",%progbits
 859              		.align	1
 860              		.global	i2c_flag_get
 861              		.syntax unified
 862              		.thumb
 863              		.thumb_func
 864              		.fpu softvfp
 866              	i2c_flag_get:
 867              	.LVL72:
 868              	.LFB75:
 396:Drivers/GD32F1x0_standard_peripheral/Source/gd32f1x0_i2c.c **** 
 397:Drivers/GD32F1x0_standard_peripheral/Source/gd32f1x0_i2c.c **** /*!
 398:Drivers/GD32F1x0_standard_peripheral/Source/gd32f1x0_i2c.c ****     \brief      check I2C flag is set or not
 399:Drivers/GD32F1x0_standard_peripheral/Source/gd32f1x0_i2c.c ****     \param[in]  i2c_periph: I2Cx(x=0,1,2)
 400:Drivers/GD32F1x0_standard_peripheral/Source/gd32f1x0_i2c.c ****     \param[in]  flag:
 401:Drivers/GD32F1x0_standard_peripheral/Source/gd32f1x0_i2c.c ****       \arg        I2C_FLAG_SBSEND: start condition send out 
 402:Drivers/GD32F1x0_standard_peripheral/Source/gd32f1x0_i2c.c ****       \arg        I2C_FLAG_ADDSEND: address is sent in master mode or received and matches in slave
 403:Drivers/GD32F1x0_standard_peripheral/Source/gd32f1x0_i2c.c ****       \arg        I2C_FLAG_BTC: byte transmission finishes
 404:Drivers/GD32F1x0_standard_peripheral/Source/gd32f1x0_i2c.c ****       \arg        I2C_FLAG_ADD10SEND: header of 10-bit address is sent in master mode
 405:Drivers/GD32F1x0_standard_peripheral/Source/gd32f1x0_i2c.c ****       \arg        I2C_FLAG_STPDET: stop condition detected in slave mode
 406:Drivers/GD32F1x0_standard_peripheral/Source/gd32f1x0_i2c.c ****       \arg        I2C_FLAG_RBNE: I2C_DATA is not Empty during receiving
 407:Drivers/GD32F1x0_standard_peripheral/Source/gd32f1x0_i2c.c ****       \arg        I2C_FLAG_TBE: I2C_DATA is empty during transmitting
 408:Drivers/GD32F1x0_standard_peripheral/Source/gd32f1x0_i2c.c ****       \arg        I2C_FLAG_BERR: a bus error occurs indication a unexpected start or stop condition
 409:Drivers/GD32F1x0_standard_peripheral/Source/gd32f1x0_i2c.c ****       \arg        I2C_FLAG_LOSTARB: arbitration lost in master mode
 410:Drivers/GD32F1x0_standard_peripheral/Source/gd32f1x0_i2c.c ****       \arg        I2C_FLAG_AERR: acknowledge error
 411:Drivers/GD32F1x0_standard_peripheral/Source/gd32f1x0_i2c.c ****       \arg        I2C_FLAG_OUERR: overrun or underrun situation occurs in slave mode
 412:Drivers/GD32F1x0_standard_peripheral/Source/gd32f1x0_i2c.c ****       \arg        I2C_FLAG_PECERR: PEC error when receiving data
 413:Drivers/GD32F1x0_standard_peripheral/Source/gd32f1x0_i2c.c ****       \arg        I2C_FLAG_SMBTO: timeout signal in SMBus mode
 414:Drivers/GD32F1x0_standard_peripheral/Source/gd32f1x0_i2c.c ****       \arg        I2C_FLAG_SMBALT: SMBus alert status
 415:Drivers/GD32F1x0_standard_peripheral/Source/gd32f1x0_i2c.c ****       \arg        I2C_FLAG_MASTER: a flag indicating whether I2C block is in master or slave mode
 416:Drivers/GD32F1x0_standard_peripheral/Source/gd32f1x0_i2c.c ****       \arg        I2C_FLAG_I2CBSY: busy flag
ARM GAS  /tmp/ccahbfuw.s 			page 24


 417:Drivers/GD32F1x0_standard_peripheral/Source/gd32f1x0_i2c.c ****       \arg        I2C_FLAG_TRS: whether the I2C is a transmitter or a receiver
 418:Drivers/GD32F1x0_standard_peripheral/Source/gd32f1x0_i2c.c ****       \arg        I2C_FLAG_RXGC: general call address (00h) received
 419:Drivers/GD32F1x0_standard_peripheral/Source/gd32f1x0_i2c.c ****       \arg        I2C_FLAG_DEFSMB: default address of SMBus device
 420:Drivers/GD32F1x0_standard_peripheral/Source/gd32f1x0_i2c.c ****       \arg        I2C_FLAG_HSTSMB: SMBus host header detected in slave mode
 421:Drivers/GD32F1x0_standard_peripheral/Source/gd32f1x0_i2c.c ****       \arg        I2C_FLAG_DUMODF: dual flag in slave mode indicating which address is matched in d
 422:Drivers/GD32F1x0_standard_peripheral/Source/gd32f1x0_i2c.c ****     \param[out] none
 423:Drivers/GD32F1x0_standard_peripheral/Source/gd32f1x0_i2c.c ****     \retval     FlagStatus: SET or RESET
 424:Drivers/GD32F1x0_standard_peripheral/Source/gd32f1x0_i2c.c **** */
 425:Drivers/GD32F1x0_standard_peripheral/Source/gd32f1x0_i2c.c **** FlagStatus i2c_flag_get(uint32_t i2c_periph, uint32_t flag)
 426:Drivers/GD32F1x0_standard_peripheral/Source/gd32f1x0_i2c.c **** {
 869              		.loc 1 426 1 is_stmt 1 view -0
 870              		.cfi_startproc
 871              		@ args = 0, pretend = 0, frame = 0
 872              		@ frame_needed = 0, uses_anonymous_args = 0
 873              		@ link register save eliminated.
 427:Drivers/GD32F1x0_standard_peripheral/Source/gd32f1x0_i2c.c ****     uint32_t reg = 0U;
 874              		.loc 1 427 5 view .LVU235
 428:Drivers/GD32F1x0_standard_peripheral/Source/gd32f1x0_i2c.c ****     FlagStatus reval = RESET;
 875              		.loc 1 428 5 view .LVU236
 429:Drivers/GD32F1x0_standard_peripheral/Source/gd32f1x0_i2c.c ****     /* get the flag in which register */
 430:Drivers/GD32F1x0_standard_peripheral/Source/gd32f1x0_i2c.c ****     reg = (BIT(31) & flag);
 876              		.loc 1 430 5 view .LVU237
 431:Drivers/GD32F1x0_standard_peripheral/Source/gd32f1x0_i2c.c ****     if((BIT(31) == reg)){
 877              		.loc 1 431 5 view .LVU238
 878              		.loc 1 431 7 is_stmt 0 view .LVU239
 879 0000 0029     		cmp	r1, #0
 432:Drivers/GD32F1x0_standard_peripheral/Source/gd32f1x0_i2c.c ****         if((I2C_STAT1(i2c_periph)&(flag & I2C_FLAG_MASK))){
 880              		.loc 1 432 9 is_stmt 1 view .LVU240
 881              		.loc 1 432 34 is_stmt 0 view .LVU241
 882 0002 B4BF     		ite	lt
 883 0004 8069     		ldrlt	r0, [r0, #24]
 884              	.LVL73:
 433:Drivers/GD32F1x0_standard_peripheral/Source/gd32f1x0_i2c.c ****             reval = SET;
 434:Drivers/GD32F1x0_standard_peripheral/Source/gd32f1x0_i2c.c ****         }else{
 435:Drivers/GD32F1x0_standard_peripheral/Source/gd32f1x0_i2c.c ****             reval = RESET;
 436:Drivers/GD32F1x0_standard_peripheral/Source/gd32f1x0_i2c.c ****         }
 437:Drivers/GD32F1x0_standard_peripheral/Source/gd32f1x0_i2c.c ****     }else{
 438:Drivers/GD32F1x0_standard_peripheral/Source/gd32f1x0_i2c.c ****         if((I2C_STAT0(i2c_periph)&(flag & I2C_FLAG_MASK))){
 885              		.loc 1 438 9 is_stmt 1 view .LVU242
 886              		.loc 1 438 34 is_stmt 0 view .LVU243
 887 0006 4069     		ldrge	r0, [r0, #20]
 888 0008 0840     		ands	r0, r0, r1
 889 000a 80B2     		uxth	r0, r0
 435:Drivers/GD32F1x0_standard_peripheral/Source/gd32f1x0_i2c.c ****         }
 890              		.loc 1 435 19 view .LVU244
 891 000c 0038     		subs	r0, r0, #0
 892 000e 18BF     		it	ne
 893 0010 0120     		movne	r0, #1
 894              	.LVL74:
 439:Drivers/GD32F1x0_standard_peripheral/Source/gd32f1x0_i2c.c ****             reval = SET;
 440:Drivers/GD32F1x0_standard_peripheral/Source/gd32f1x0_i2c.c ****         }else{
 441:Drivers/GD32F1x0_standard_peripheral/Source/gd32f1x0_i2c.c ****             reval = RESET;
 442:Drivers/GD32F1x0_standard_peripheral/Source/gd32f1x0_i2c.c ****         }
 443:Drivers/GD32F1x0_standard_peripheral/Source/gd32f1x0_i2c.c ****     }
 444:Drivers/GD32F1x0_standard_peripheral/Source/gd32f1x0_i2c.c ****     /* return the flag status */
 445:Drivers/GD32F1x0_standard_peripheral/Source/gd32f1x0_i2c.c ****     return reval;
 895              		.loc 1 445 5 is_stmt 1 view .LVU245
ARM GAS  /tmp/ccahbfuw.s 			page 25


 446:Drivers/GD32F1x0_standard_peripheral/Source/gd32f1x0_i2c.c **** }
 896              		.loc 1 446 1 is_stmt 0 view .LVU246
 897 0012 7047     		bx	lr
 898              		.cfi_endproc
 899              	.LFE75:
 901              		.section	.text.i2c_flag_clear,"ax",%progbits
 902              		.align	1
 903              		.global	i2c_flag_clear
 904              		.syntax unified
 905              		.thumb
 906              		.thumb_func
 907              		.fpu softvfp
 909              	i2c_flag_clear:
 910              	.LVL75:
 911              	.LFB76:
 447:Drivers/GD32F1x0_standard_peripheral/Source/gd32f1x0_i2c.c **** 
 448:Drivers/GD32F1x0_standard_peripheral/Source/gd32f1x0_i2c.c **** /*!
 449:Drivers/GD32F1x0_standard_peripheral/Source/gd32f1x0_i2c.c ****     \brief      clear I2C flag
 450:Drivers/GD32F1x0_standard_peripheral/Source/gd32f1x0_i2c.c ****     \param[in]  i2c_periph: I2Cx(x=0,1,2)
 451:Drivers/GD32F1x0_standard_peripheral/Source/gd32f1x0_i2c.c ****     \param[in]  flag: flag type
 452:Drivers/GD32F1x0_standard_peripheral/Source/gd32f1x0_i2c.c ****       \arg       I2C_FLAG_SMBALT: SMBus Alert status
 453:Drivers/GD32F1x0_standard_peripheral/Source/gd32f1x0_i2c.c ****       \arg       I2C_FLAG_SMBTO: timeout signal in SMBus mode
 454:Drivers/GD32F1x0_standard_peripheral/Source/gd32f1x0_i2c.c ****       \arg       I2C_FLAG_PECERR: PEC error when receiving data
 455:Drivers/GD32F1x0_standard_peripheral/Source/gd32f1x0_i2c.c ****       \arg       I2C_FLAG_OUERR: over-run or under-run situation occurs in slave mode    
 456:Drivers/GD32F1x0_standard_peripheral/Source/gd32f1x0_i2c.c ****       \arg       I2C_FLAG_AERR: acknowledge error
 457:Drivers/GD32F1x0_standard_peripheral/Source/gd32f1x0_i2c.c ****       \arg       I2C_FLAG_LOSTARB: arbitration lost in master mode   
 458:Drivers/GD32F1x0_standard_peripheral/Source/gd32f1x0_i2c.c ****       \arg       I2C_FLAG_BERR: a bus error   
 459:Drivers/GD32F1x0_standard_peripheral/Source/gd32f1x0_i2c.c ****       \arg       I2C_FLAG_ADDSEND: cleared by reading I2C_STAT0 and reading I2C_STAT1
 460:Drivers/GD32F1x0_standard_peripheral/Source/gd32f1x0_i2c.c ****     \param[out] none
 461:Drivers/GD32F1x0_standard_peripheral/Source/gd32f1x0_i2c.c ****     \retval     none
 462:Drivers/GD32F1x0_standard_peripheral/Source/gd32f1x0_i2c.c **** */
 463:Drivers/GD32F1x0_standard_peripheral/Source/gd32f1x0_i2c.c **** void i2c_flag_clear(uint32_t i2c_periph, uint32_t flag)
 464:Drivers/GD32F1x0_standard_peripheral/Source/gd32f1x0_i2c.c **** {
 912              		.loc 1 464 1 is_stmt 1 view -0
 913              		.cfi_startproc
 914              		@ args = 0, pretend = 0, frame = 0
 915              		@ frame_needed = 0, uses_anonymous_args = 0
 916              		@ link register save eliminated.
 465:Drivers/GD32F1x0_standard_peripheral/Source/gd32f1x0_i2c.c ****     if(I2C_FLAG_ADDSEND == flag){
 917              		.loc 1 465 5 view .LVU248
 466:Drivers/GD32F1x0_standard_peripheral/Source/gd32f1x0_i2c.c ****         /* read I2C_STAT0 and then read I2C_STAT1 to clear ADDSEND */
 467:Drivers/GD32F1x0_standard_peripheral/Source/gd32f1x0_i2c.c ****         I2C_STAT0(i2c_periph);
 918              		.loc 1 467 9 is_stmt 0 view .LVU249
 919 0000 4369     		ldr	r3, [r0, #20]
 465:Drivers/GD32F1x0_standard_peripheral/Source/gd32f1x0_i2c.c ****     if(I2C_FLAG_ADDSEND == flag){
 920              		.loc 1 465 7 view .LVU250
 921 0002 0229     		cmp	r1, #2
 922              		.loc 1 467 9 is_stmt 1 view .LVU251
 468:Drivers/GD32F1x0_standard_peripheral/Source/gd32f1x0_i2c.c ****         I2C_STAT1(i2c_periph);
 923              		.loc 1 468 9 view .LVU252
 469:Drivers/GD32F1x0_standard_peripheral/Source/gd32f1x0_i2c.c ****     }else{
 470:Drivers/GD32F1x0_standard_peripheral/Source/gd32f1x0_i2c.c ****         I2C_STAT0(i2c_periph) &= ~(flag);
 924              		.loc 1 470 31 is_stmt 0 view .LVU253
 925 0004 16BF     		itet	ne
 926 0006 23EA0101 		bicne	r1, r3, r1
 927              	.LVL76:
 468:Drivers/GD32F1x0_standard_peripheral/Source/gd32f1x0_i2c.c ****         I2C_STAT1(i2c_periph);
ARM GAS  /tmp/ccahbfuw.s 			page 26


 928              		.loc 1 468 9 view .LVU254
 929 000a 8369     		ldreq	r3, [r0, #24]
 930              		.loc 1 470 9 is_stmt 1 view .LVU255
 931              		.loc 1 470 31 is_stmt 0 view .LVU256
 932 000c 4161     		strne	r1, [r0, #20]
 471:Drivers/GD32F1x0_standard_peripheral/Source/gd32f1x0_i2c.c ****     }
 472:Drivers/GD32F1x0_standard_peripheral/Source/gd32f1x0_i2c.c **** }
 933              		.loc 1 472 1 view .LVU257
 934 000e 7047     		bx	lr
 935              		.cfi_endproc
 936              	.LFE76:
 938              		.section	.text.i2c_interrupt_enable,"ax",%progbits
 939              		.align	1
 940              		.global	i2c_interrupt_enable
 941              		.syntax unified
 942              		.thumb
 943              		.thumb_func
 944              		.fpu softvfp
 946              	i2c_interrupt_enable:
 947              	.LVL77:
 948              	.LFB77:
 473:Drivers/GD32F1x0_standard_peripheral/Source/gd32f1x0_i2c.c **** 
 474:Drivers/GD32F1x0_standard_peripheral/Source/gd32f1x0_i2c.c **** /*!
 475:Drivers/GD32F1x0_standard_peripheral/Source/gd32f1x0_i2c.c ****     \brief      enable I2C interrupt
 476:Drivers/GD32F1x0_standard_peripheral/Source/gd32f1x0_i2c.c ****     \param[in]  i2c_periph: I2Cx(x=0,1,2)
 477:Drivers/GD32F1x0_standard_peripheral/Source/gd32f1x0_i2c.c ****     \param[in]  inttype: interrupt type 
 478:Drivers/GD32F1x0_standard_peripheral/Source/gd32f1x0_i2c.c ****       \arg        I2C_INT_ERR: error interrupt enable 
 479:Drivers/GD32F1x0_standard_peripheral/Source/gd32f1x0_i2c.c ****       \arg        I2C_INT_EV: event interrupt enable 
 480:Drivers/GD32F1x0_standard_peripheral/Source/gd32f1x0_i2c.c ****       \arg        I2C_INT_BUF: buffer interrupt enable   
 481:Drivers/GD32F1x0_standard_peripheral/Source/gd32f1x0_i2c.c ****     \param[out] none
 482:Drivers/GD32F1x0_standard_peripheral/Source/gd32f1x0_i2c.c ****     \retval     none
 483:Drivers/GD32F1x0_standard_peripheral/Source/gd32f1x0_i2c.c **** */
 484:Drivers/GD32F1x0_standard_peripheral/Source/gd32f1x0_i2c.c **** void i2c_interrupt_enable(uint32_t i2c_periph, uint32_t inttype)
 485:Drivers/GD32F1x0_standard_peripheral/Source/gd32f1x0_i2c.c **** {
 949              		.loc 1 485 1 is_stmt 1 view -0
 950              		.cfi_startproc
 951              		@ args = 0, pretend = 0, frame = 0
 952              		@ frame_needed = 0, uses_anonymous_args = 0
 953              		@ link register save eliminated.
 486:Drivers/GD32F1x0_standard_peripheral/Source/gd32f1x0_i2c.c ****     I2C_CTL1(i2c_periph) |= (inttype);
 954              		.loc 1 486 5 view .LVU259
 955              		.loc 1 486 26 is_stmt 0 view .LVU260
 956 0000 4368     		ldr	r3, [r0, #4]
 957 0002 0B43     		orrs	r3, r3, r1
 958 0004 4360     		str	r3, [r0, #4]
 487:Drivers/GD32F1x0_standard_peripheral/Source/gd32f1x0_i2c.c **** }
 959              		.loc 1 487 1 view .LVU261
 960 0006 7047     		bx	lr
 961              		.cfi_endproc
 962              	.LFE77:
 964              		.section	.text.i2c_interrupt_disable,"ax",%progbits
 965              		.align	1
 966              		.global	i2c_interrupt_disable
 967              		.syntax unified
 968              		.thumb
 969              		.thumb_func
 970              		.fpu softvfp
ARM GAS  /tmp/ccahbfuw.s 			page 27


 972              	i2c_interrupt_disable:
 973              	.LVL78:
 974              	.LFB78:
 488:Drivers/GD32F1x0_standard_peripheral/Source/gd32f1x0_i2c.c **** 
 489:Drivers/GD32F1x0_standard_peripheral/Source/gd32f1x0_i2c.c **** /*!
 490:Drivers/GD32F1x0_standard_peripheral/Source/gd32f1x0_i2c.c ****     \brief      disable I2C interrupt
 491:Drivers/GD32F1x0_standard_peripheral/Source/gd32f1x0_i2c.c ****     \param[in]  i2c_periph: I2Cx(x=0,1,2)
 492:Drivers/GD32F1x0_standard_peripheral/Source/gd32f1x0_i2c.c ****     \param[in]  inttype: interrupt type 
 493:Drivers/GD32F1x0_standard_peripheral/Source/gd32f1x0_i2c.c ****       \arg        I2C_INT_ERR: error interrupt enable 
 494:Drivers/GD32F1x0_standard_peripheral/Source/gd32f1x0_i2c.c ****       \arg        I2C_INT_EV: event interrupt enable 
 495:Drivers/GD32F1x0_standard_peripheral/Source/gd32f1x0_i2c.c ****       \arg        I2C_INT_BUF: buffer interrupt enable  
 496:Drivers/GD32F1x0_standard_peripheral/Source/gd32f1x0_i2c.c ****     \param[out] none
 497:Drivers/GD32F1x0_standard_peripheral/Source/gd32f1x0_i2c.c ****     \retval     none
 498:Drivers/GD32F1x0_standard_peripheral/Source/gd32f1x0_i2c.c **** */
 499:Drivers/GD32F1x0_standard_peripheral/Source/gd32f1x0_i2c.c **** void i2c_interrupt_disable(uint32_t i2c_periph, uint32_t inttype)
 500:Drivers/GD32F1x0_standard_peripheral/Source/gd32f1x0_i2c.c **** {
 975              		.loc 1 500 1 is_stmt 1 view -0
 976              		.cfi_startproc
 977              		@ args = 0, pretend = 0, frame = 0
 978              		@ frame_needed = 0, uses_anonymous_args = 0
 979              		@ link register save eliminated.
 501:Drivers/GD32F1x0_standard_peripheral/Source/gd32f1x0_i2c.c ****     I2C_CTL1(i2c_periph) &= ~(inttype);
 980              		.loc 1 501 5 view .LVU263
 981              		.loc 1 501 26 is_stmt 0 view .LVU264
 982 0000 4368     		ldr	r3, [r0, #4]
 983 0002 23EA0103 		bic	r3, r3, r1
 984 0006 4360     		str	r3, [r0, #4]
 502:Drivers/GD32F1x0_standard_peripheral/Source/gd32f1x0_i2c.c **** }
 985              		.loc 1 502 1 view .LVU265
 986 0008 7047     		bx	lr
 987              		.cfi_endproc
 988              	.LFE78:
 990              		.section	.text.i2c_interrupt_flag_get,"ax",%progbits
 991              		.align	1
 992              		.global	i2c_interrupt_flag_get
 993              		.syntax unified
 994              		.thumb
 995              		.thumb_func
 996              		.fpu softvfp
 998              	i2c_interrupt_flag_get:
 999              	.LVL79:
 1000              	.LFB79:
 503:Drivers/GD32F1x0_standard_peripheral/Source/gd32f1x0_i2c.c **** 
 504:Drivers/GD32F1x0_standard_peripheral/Source/gd32f1x0_i2c.c **** /*!
 505:Drivers/GD32F1x0_standard_peripheral/Source/gd32f1x0_i2c.c ****     \brief      check I2C interrupt flag
 506:Drivers/GD32F1x0_standard_peripheral/Source/gd32f1x0_i2c.c ****     \param[in]  i2c_periph: I2Cx(x=0,1,2)
 507:Drivers/GD32F1x0_standard_peripheral/Source/gd32f1x0_i2c.c ****     \param[in]  int_flag: interrupt flag 
 508:Drivers/GD32F1x0_standard_peripheral/Source/gd32f1x0_i2c.c ****       \arg        I2C_INT_FLAG_SBSEND: start condition sent out in master mode interrupt flag
 509:Drivers/GD32F1x0_standard_peripheral/Source/gd32f1x0_i2c.c ****       \arg        I2C_INT_FLAG_ADDSEND: address is sent in master mode or received and matches in s
 510:Drivers/GD32F1x0_standard_peripheral/Source/gd32f1x0_i2c.c ****       \arg        I2C_INT_FLAG_BTC: byte transmission finishes
 511:Drivers/GD32F1x0_standard_peripheral/Source/gd32f1x0_i2c.c ****       \arg        I2C_INT_FLAG_ADD10SEND: header of 10-bit address is sent in master mode interrupt
 512:Drivers/GD32F1x0_standard_peripheral/Source/gd32f1x0_i2c.c ****       \arg        I2C_INT_FLAG_STPDET: etop condition detected in slave mode interrupt flag
 513:Drivers/GD32F1x0_standard_peripheral/Source/gd32f1x0_i2c.c ****       \arg        I2C_INT_FLAG_RBNE: I2C_DATA is not Empty during receiving interrupt flag
 514:Drivers/GD32F1x0_standard_peripheral/Source/gd32f1x0_i2c.c ****       \arg        I2C_INT_FLAG_TBE: I2C_DATA is empty during transmitting interrupt flag
 515:Drivers/GD32F1x0_standard_peripheral/Source/gd32f1x0_i2c.c ****       \arg        I2C_INT_FLAG_BERR: a bus error occurs indication a unexpected start or stop condi
 516:Drivers/GD32F1x0_standard_peripheral/Source/gd32f1x0_i2c.c ****       \arg        I2C_INT_FLAG_LOSTARB: arbitration lost in master mode interrupt flag
 517:Drivers/GD32F1x0_standard_peripheral/Source/gd32f1x0_i2c.c ****       \arg        I2C_INT_FLAG_AERR: acknowledge error interrupt flag
ARM GAS  /tmp/ccahbfuw.s 			page 28


 518:Drivers/GD32F1x0_standard_peripheral/Source/gd32f1x0_i2c.c ****       \arg        I2C_INT_FLAG_OUERR: over-run or under-run situation occurs in slave mode interrup
 519:Drivers/GD32F1x0_standard_peripheral/Source/gd32f1x0_i2c.c ****       \arg        I2C_INT_FLAG_PECERR: PEC error when receiving data interrupt flag
 520:Drivers/GD32F1x0_standard_peripheral/Source/gd32f1x0_i2c.c ****       \arg        I2C_INT_FLAG_SMBTO: timeout signal in SMBus mode interrupt flag
 521:Drivers/GD32F1x0_standard_peripheral/Source/gd32f1x0_i2c.c ****       \arg        I2C_INT_FLAG_SMBALT: SMBus Alert status interrupt flag
 522:Drivers/GD32F1x0_standard_peripheral/Source/gd32f1x0_i2c.c ****     \param[out] none
 523:Drivers/GD32F1x0_standard_peripheral/Source/gd32f1x0_i2c.c ****     \retval     none
 524:Drivers/GD32F1x0_standard_peripheral/Source/gd32f1x0_i2c.c **** */
 525:Drivers/GD32F1x0_standard_peripheral/Source/gd32f1x0_i2c.c **** FlagStatus i2c_interrupt_flag_get(uint32_t i2c_periph, uint32_t intflag)
 526:Drivers/GD32F1x0_standard_peripheral/Source/gd32f1x0_i2c.c **** {
 1001              		.loc 1 526 1 is_stmt 1 view -0
 1002              		.cfi_startproc
 1003              		@ args = 0, pretend = 0, frame = 0
 1004              		@ frame_needed = 0, uses_anonymous_args = 0
 527:Drivers/GD32F1x0_standard_peripheral/Source/gd32f1x0_i2c.c ****     uint32_t evie, errie, bufie;
 1005              		.loc 1 527 5 view .LVU267
 528:Drivers/GD32F1x0_standard_peripheral/Source/gd32f1x0_i2c.c **** 
 529:Drivers/GD32F1x0_standard_peripheral/Source/gd32f1x0_i2c.c ****     evie = I2C_CTL1(i2c_periph)&I2C_CTL1_EVIE;
 1006              		.loc 1 529 5 view .LVU268
 526:Drivers/GD32F1x0_standard_peripheral/Source/gd32f1x0_i2c.c ****     uint32_t evie, errie, bufie;
 1007              		.loc 1 526 1 is_stmt 0 view .LVU269
 1008 0000 0246     		mov	r2, r0
 1009 0002 10B5     		push	{r4, lr}
 1010              	.LCFI5:
 1011              		.cfi_def_cfa_offset 8
 1012              		.cfi_offset 4, -8
 1013              		.cfi_offset 14, -4
 530:Drivers/GD32F1x0_standard_peripheral/Source/gd32f1x0_i2c.c ****     errie = I2C_CTL1(i2c_periph)&I2C_CTL1_ERRIE;
 531:Drivers/GD32F1x0_standard_peripheral/Source/gd32f1x0_i2c.c ****     /* check I2C event interrupt enable bit */
 532:Drivers/GD32F1x0_standard_peripheral/Source/gd32f1x0_i2c.c ****     if((intflag&0x00ffU) && evie){
 1014              		.loc 1 532 16 view .LVU270
 1015 0004 CCB2     		uxtb	r4, r1
 529:Drivers/GD32F1x0_standard_peripheral/Source/gd32f1x0_i2c.c ****     errie = I2C_CTL1(i2c_periph)&I2C_CTL1_ERRIE;
 1016              		.loc 1 529 12 view .LVU271
 1017 0006 4068     		ldr	r0, [r0, #4]
 1018              	.LVL80:
 530:Drivers/GD32F1x0_standard_peripheral/Source/gd32f1x0_i2c.c ****     errie = I2C_CTL1(i2c_periph)&I2C_CTL1_ERRIE;
 1019              		.loc 1 530 5 is_stmt 1 view .LVU272
 530:Drivers/GD32F1x0_standard_peripheral/Source/gd32f1x0_i2c.c ****     errie = I2C_CTL1(i2c_periph)&I2C_CTL1_ERRIE;
 1020              		.loc 1 530 13 is_stmt 0 view .LVU273
 1021 0008 5368     		ldr	r3, [r2, #4]
 1022              	.LVL81:
 1023              		.loc 1 532 5 is_stmt 1 view .LVU274
 1024              		.loc 1 532 7 is_stmt 0 view .LVU275
 1025 000a 74B1     		cbz	r4, .L64
 1026              		.loc 1 532 26 discriminator 1 view .LVU276
 1027 000c 8405     		lsls	r4, r0, #22
 1028 000e 0CD5     		bpl	.L64
 533:Drivers/GD32F1x0_standard_peripheral/Source/gd32f1x0_i2c.c ****         if(intflag&0x001fU){
 1029              		.loc 1 533 9 is_stmt 1 view .LVU277
 1030              		.loc 1 533 11 is_stmt 0 view .LVU278
 1031 0010 CB06     		lsls	r3, r1, #27
 1032              	.LVL82:
 1033              		.loc 1 533 11 view .LVU279
 1034 0012 05D0     		beq	.L65
 1035              	.LVL83:
 1036              	.L76:
 534:Drivers/GD32F1x0_standard_peripheral/Source/gd32f1x0_i2c.c ****             /* check I2C event flags except TBE and RBNE */
ARM GAS  /tmp/ccahbfuw.s 			page 29


 535:Drivers/GD32F1x0_standard_peripheral/Source/gd32f1x0_i2c.c ****             if(intflag & I2C_STAT0(i2c_periph)){
 536:Drivers/GD32F1x0_standard_peripheral/Source/gd32f1x0_i2c.c ****                 return SET;
 537:Drivers/GD32F1x0_standard_peripheral/Source/gd32f1x0_i2c.c ****             }else{
 538:Drivers/GD32F1x0_standard_peripheral/Source/gd32f1x0_i2c.c ****                 return RESET;
 539:Drivers/GD32F1x0_standard_peripheral/Source/gd32f1x0_i2c.c ****             }
 540:Drivers/GD32F1x0_standard_peripheral/Source/gd32f1x0_i2c.c ****         }else{
 541:Drivers/GD32F1x0_standard_peripheral/Source/gd32f1x0_i2c.c ****             /* check I2C event flags TBE and RBNE */
 542:Drivers/GD32F1x0_standard_peripheral/Source/gd32f1x0_i2c.c ****             bufie = I2C_CTL1(i2c_periph)&I2C_CTL1_BUFIE;
 543:Drivers/GD32F1x0_standard_peripheral/Source/gd32f1x0_i2c.c ****             if(bufie){
 544:Drivers/GD32F1x0_standard_peripheral/Source/gd32f1x0_i2c.c ****                 if(intflag & I2C_STAT0(i2c_periph)){
 545:Drivers/GD32F1x0_standard_peripheral/Source/gd32f1x0_i2c.c ****                     return SET;
 546:Drivers/GD32F1x0_standard_peripheral/Source/gd32f1x0_i2c.c ****                 }else{
 547:Drivers/GD32F1x0_standard_peripheral/Source/gd32f1x0_i2c.c ****                     return RESET;
 548:Drivers/GD32F1x0_standard_peripheral/Source/gd32f1x0_i2c.c ****                 }
 549:Drivers/GD32F1x0_standard_peripheral/Source/gd32f1x0_i2c.c ****             }else{
 550:Drivers/GD32F1x0_standard_peripheral/Source/gd32f1x0_i2c.c ****                 return RESET;
 551:Drivers/GD32F1x0_standard_peripheral/Source/gd32f1x0_i2c.c ****             }
 552:Drivers/GD32F1x0_standard_peripheral/Source/gd32f1x0_i2c.c ****         }
 553:Drivers/GD32F1x0_standard_peripheral/Source/gd32f1x0_i2c.c ****     /* check I2C error interrupt enable bit */
 554:Drivers/GD32F1x0_standard_peripheral/Source/gd32f1x0_i2c.c ****     }else if((intflag&0xff00U) && errie){
 555:Drivers/GD32F1x0_standard_peripheral/Source/gd32f1x0_i2c.c ****         /* check I2C error flags */
 556:Drivers/GD32F1x0_standard_peripheral/Source/gd32f1x0_i2c.c ****         if(intflag & I2C_STAT0(i2c_periph)){
 1037              		.loc 1 556 9 is_stmt 1 view .LVU280
 1038              		.loc 1 556 22 is_stmt 0 view .LVU281
 1039 0014 5369     		ldr	r3, [r2, #20]
 1040              		.loc 1 556 11 view .LVU282
 1041 0016 0B42     		tst	r3, r1
 536:Drivers/GD32F1x0_standard_peripheral/Source/gd32f1x0_i2c.c ****             }else{
 1042              		.loc 1 536 24 view .LVU283
 1043 0018 14BF     		ite	ne
 1044 001a 0120     		movne	r0, #1
 1045 001c 0020     		moveq	r0, #0
 1046 001e 03E0     		b	.L66
 1047              	.LVL84:
 1048              	.L65:
 542:Drivers/GD32F1x0_standard_peripheral/Source/gd32f1x0_i2c.c ****             if(bufie){
 1049              		.loc 1 542 13 is_stmt 1 view .LVU284
 542:Drivers/GD32F1x0_standard_peripheral/Source/gd32f1x0_i2c.c ****             if(bufie){
 1050              		.loc 1 542 21 is_stmt 0 view .LVU285
 1051 0020 5068     		ldr	r0, [r2, #4]
 1052              	.LVL85:
 543:Drivers/GD32F1x0_standard_peripheral/Source/gd32f1x0_i2c.c ****                 if(intflag & I2C_STAT0(i2c_periph)){
 1053              		.loc 1 543 13 is_stmt 1 view .LVU286
 543:Drivers/GD32F1x0_standard_peripheral/Source/gd32f1x0_i2c.c ****                 if(intflag & I2C_STAT0(i2c_periph)){
 1054              		.loc 1 543 15 is_stmt 0 view .LVU287
 1055 0022 10F48060 		ands	r0, r0, #1024
 1056              	.LVL86:
 1057              	.L78:
 554:Drivers/GD32F1x0_standard_peripheral/Source/gd32f1x0_i2c.c ****         /* check I2C error flags */
 1058              		.loc 1 554 32 discriminator 1 view .LVU288
 1059 0026 F5D1     		bne	.L76
 1060              	.L66:
 557:Drivers/GD32F1x0_standard_peripheral/Source/gd32f1x0_i2c.c ****             return SET;
 558:Drivers/GD32F1x0_standard_peripheral/Source/gd32f1x0_i2c.c ****         }else{
 559:Drivers/GD32F1x0_standard_peripheral/Source/gd32f1x0_i2c.c ****             return RESET;
 560:Drivers/GD32F1x0_standard_peripheral/Source/gd32f1x0_i2c.c ****         }
 561:Drivers/GD32F1x0_standard_peripheral/Source/gd32f1x0_i2c.c ****     }else{
ARM GAS  /tmp/ccahbfuw.s 			page 30


 562:Drivers/GD32F1x0_standard_peripheral/Source/gd32f1x0_i2c.c ****         return RESET;
 563:Drivers/GD32F1x0_standard_peripheral/Source/gd32f1x0_i2c.c ****     }
 564:Drivers/GD32F1x0_standard_peripheral/Source/gd32f1x0_i2c.c **** }
 1061              		.loc 1 564 1 view .LVU289
 1062 0028 10BD     		pop	{r4, pc}
 1063              	.LVL87:
 1064              	.L64:
 554:Drivers/GD32F1x0_standard_peripheral/Source/gd32f1x0_i2c.c ****         /* check I2C error flags */
 1065              		.loc 1 554 11 is_stmt 1 view .LVU290
 554:Drivers/GD32F1x0_standard_peripheral/Source/gd32f1x0_i2c.c ****         /* check I2C error flags */
 1066              		.loc 1 554 13 is_stmt 0 view .LVU291
 1067 002a 11F47F40 		ands	r0, r1, #65280
 1068              	.LVL88:
 554:Drivers/GD32F1x0_standard_peripheral/Source/gd32f1x0_i2c.c ****         /* check I2C error flags */
 1069              		.loc 1 554 13 view .LVU292
 1070 002e FBD0     		beq	.L66
 554:Drivers/GD32F1x0_standard_peripheral/Source/gd32f1x0_i2c.c ****         /* check I2C error flags */
 1071              		.loc 1 554 32 discriminator 1 view .LVU293
 1072 0030 13F48070 		ands	r0, r3, #256
 1073 0034 F7E7     		b	.L78
 1074              		.cfi_endproc
 1075              	.LFE79:
 1077              		.section	.text.i2c_interrupt_flag_clear,"ax",%progbits
 1078              		.align	1
 1079              		.global	i2c_interrupt_flag_clear
 1080              		.syntax unified
 1081              		.thumb
 1082              		.thumb_func
 1083              		.fpu softvfp
 1085              	i2c_interrupt_flag_clear:
 1086              	.LFB87:
 1087              		.cfi_startproc
 1088              		@ args = 0, pretend = 0, frame = 0
 1089              		@ frame_needed = 0, uses_anonymous_args = 0
 1090              		@ link register save eliminated.
 1091 0000 FFF7FEBF 		b	i2c_flag_clear
 1092              		.cfi_endproc
 1093              	.LFE87:
 1095              		.section	.text.i2c_pec_enable,"ax",%progbits
 1096              		.align	1
 1097              		.global	i2c_pec_enable
 1098              		.syntax unified
 1099              		.thumb
 1100              		.thumb_func
 1101              		.fpu softvfp
 1103              	i2c_pec_enable:
 1104              	.LVL89:
 1105              	.LFB81:
 565:Drivers/GD32F1x0_standard_peripheral/Source/gd32f1x0_i2c.c **** 
 566:Drivers/GD32F1x0_standard_peripheral/Source/gd32f1x0_i2c.c **** /*!
 567:Drivers/GD32F1x0_standard_peripheral/Source/gd32f1x0_i2c.c ****     \brief      clear I2C interrupt flag
 568:Drivers/GD32F1x0_standard_peripheral/Source/gd32f1x0_i2c.c ****     \param[in]  i2c_periph: I2Cx(x=0,1,2)
 569:Drivers/GD32F1x0_standard_peripheral/Source/gd32f1x0_i2c.c ****     \param[in]  intflag: interrupt flag 
 570:Drivers/GD32F1x0_standard_peripheral/Source/gd32f1x0_i2c.c ****       \arg        I2C_INT_FLAG_ADDSEND: address is sent in master mode or received and matches in s
 571:Drivers/GD32F1x0_standard_peripheral/Source/gd32f1x0_i2c.c ****       \arg        I2C_INT_FLAG_BERR: a bus error occurs indication a unexpected start or stop condi
 572:Drivers/GD32F1x0_standard_peripheral/Source/gd32f1x0_i2c.c ****       \arg        I2C_INT_FLAG_LOSTARB: arbitration lost in master mode interrupt flag
 573:Drivers/GD32F1x0_standard_peripheral/Source/gd32f1x0_i2c.c ****       \arg        I2C_INT_FLAG_AERR: acknowledge error interrupt flag
ARM GAS  /tmp/ccahbfuw.s 			page 31


 574:Drivers/GD32F1x0_standard_peripheral/Source/gd32f1x0_i2c.c ****       \arg        I2C_INT_FLAG_OUERR: over-run or under-run situation occurs in slave mode interrup
 575:Drivers/GD32F1x0_standard_peripheral/Source/gd32f1x0_i2c.c ****       \arg        I2C_INT_FLAG_PECERR: PEC error when receiving data interrupt flag
 576:Drivers/GD32F1x0_standard_peripheral/Source/gd32f1x0_i2c.c ****       \arg        I2C_INT_FLAG_SMBTO: timeout signal in SMBus mode interrupt flag
 577:Drivers/GD32F1x0_standard_peripheral/Source/gd32f1x0_i2c.c ****       \arg        I2C_INT_FLAG_SMBALT: SMBus Alert status interrupt flag
 578:Drivers/GD32F1x0_standard_peripheral/Source/gd32f1x0_i2c.c ****     \param[out] none
 579:Drivers/GD32F1x0_standard_peripheral/Source/gd32f1x0_i2c.c ****     \retval     none
 580:Drivers/GD32F1x0_standard_peripheral/Source/gd32f1x0_i2c.c **** */
 581:Drivers/GD32F1x0_standard_peripheral/Source/gd32f1x0_i2c.c **** void i2c_interrupt_flag_clear(uint32_t i2c_periph, uint32_t intflag)
 582:Drivers/GD32F1x0_standard_peripheral/Source/gd32f1x0_i2c.c **** {
 583:Drivers/GD32F1x0_standard_peripheral/Source/gd32f1x0_i2c.c ****     if(I2C_INT_FLAG_ADDSEND == intflag){
 584:Drivers/GD32F1x0_standard_peripheral/Source/gd32f1x0_i2c.c ****         /* read I2C_STAT0 and then read I2C_STAT1 to clear ADDSEND */
 585:Drivers/GD32F1x0_standard_peripheral/Source/gd32f1x0_i2c.c ****         I2C_STAT0(i2c_periph);
 586:Drivers/GD32F1x0_standard_peripheral/Source/gd32f1x0_i2c.c ****         I2C_STAT1(i2c_periph);
 587:Drivers/GD32F1x0_standard_peripheral/Source/gd32f1x0_i2c.c ****     }else{
 588:Drivers/GD32F1x0_standard_peripheral/Source/gd32f1x0_i2c.c ****         I2C_STAT0(i2c_periph) &= ~(intflag);
 589:Drivers/GD32F1x0_standard_peripheral/Source/gd32f1x0_i2c.c ****     }
 590:Drivers/GD32F1x0_standard_peripheral/Source/gd32f1x0_i2c.c **** }
 591:Drivers/GD32F1x0_standard_peripheral/Source/gd32f1x0_i2c.c **** 
 592:Drivers/GD32F1x0_standard_peripheral/Source/gd32f1x0_i2c.c **** /*!
 593:Drivers/GD32F1x0_standard_peripheral/Source/gd32f1x0_i2c.c ****     \brief      I2C PEC calculation on or off
 594:Drivers/GD32F1x0_standard_peripheral/Source/gd32f1x0_i2c.c ****     \param[in]  i2c_periph: I2Cx(x=0,1,2)
 595:Drivers/GD32F1x0_standard_peripheral/Source/gd32f1x0_i2c.c ****     \param[in]  pecpara:
 596:Drivers/GD32F1x0_standard_peripheral/Source/gd32f1x0_i2c.c ****       \arg        I2C_PEC_ENABLE: PEC calculation on 
 597:Drivers/GD32F1x0_standard_peripheral/Source/gd32f1x0_i2c.c ****       \arg        I2C_PEC_DISABLE: PEC calculation off 
 598:Drivers/GD32F1x0_standard_peripheral/Source/gd32f1x0_i2c.c ****     \param[out] none
 599:Drivers/GD32F1x0_standard_peripheral/Source/gd32f1x0_i2c.c ****     \retval     none
 600:Drivers/GD32F1x0_standard_peripheral/Source/gd32f1x0_i2c.c **** */
 601:Drivers/GD32F1x0_standard_peripheral/Source/gd32f1x0_i2c.c **** void i2c_pec_enable(uint32_t i2c_periph, uint32_t pecstate)
 602:Drivers/GD32F1x0_standard_peripheral/Source/gd32f1x0_i2c.c **** {
 1106              		.loc 1 602 1 is_stmt 1 view -0
 1107              		.cfi_startproc
 1108              		@ args = 0, pretend = 0, frame = 0
 1109              		@ frame_needed = 0, uses_anonymous_args = 0
 1110              		@ link register save eliminated.
 603:Drivers/GD32F1x0_standard_peripheral/Source/gd32f1x0_i2c.c ****     /* on/off PEC calculation */
 604:Drivers/GD32F1x0_standard_peripheral/Source/gd32f1x0_i2c.c ****     uint32_t ctl = 0U;
 1111              		.loc 1 604 5 view .LVU295
 605:Drivers/GD32F1x0_standard_peripheral/Source/gd32f1x0_i2c.c ****     ctl = I2C_CTL0(i2c_periph);
 1112              		.loc 1 605 5 view .LVU296
 1113              		.loc 1 605 9 is_stmt 0 view .LVU297
 1114 0000 0368     		ldr	r3, [r0]
 1115              	.LVL90:
 606:Drivers/GD32F1x0_standard_peripheral/Source/gd32f1x0_i2c.c ****     ctl &= ~(I2C_CTL0_PECEN);
 1116              		.loc 1 606 5 is_stmt 1 view .LVU298
 1117              		.loc 1 606 9 is_stmt 0 view .LVU299
 1118 0002 23F02003 		bic	r3, r3, #32
 1119              	.LVL91:
 607:Drivers/GD32F1x0_standard_peripheral/Source/gd32f1x0_i2c.c ****     ctl |= pecstate;
 1120              		.loc 1 607 5 is_stmt 1 view .LVU300
 1121              		.loc 1 607 9 is_stmt 0 view .LVU301
 1122 0006 0B43     		orrs	r3, r3, r1
 1123              	.LVL92:
 608:Drivers/GD32F1x0_standard_peripheral/Source/gd32f1x0_i2c.c ****     I2C_CTL0(i2c_periph) = ctl;
 1124              		.loc 1 608 5 is_stmt 1 view .LVU302
 1125              		.loc 1 608 26 is_stmt 0 view .LVU303
 1126 0008 0360     		str	r3, [r0]
 609:Drivers/GD32F1x0_standard_peripheral/Source/gd32f1x0_i2c.c **** }
ARM GAS  /tmp/ccahbfuw.s 			page 32


 1127              		.loc 1 609 1 view .LVU304
 1128 000a 7047     		bx	lr
 1129              		.cfi_endproc
 1130              	.LFE81:
 1132              		.section	.text.i2c_pec_transfer_enable,"ax",%progbits
 1133              		.align	1
 1134              		.global	i2c_pec_transfer_enable
 1135              		.syntax unified
 1136              		.thumb
 1137              		.thumb_func
 1138              		.fpu softvfp
 1140              	i2c_pec_transfer_enable:
 1141              	.LVL93:
 1142              	.LFB82:
 610:Drivers/GD32F1x0_standard_peripheral/Source/gd32f1x0_i2c.c **** 
 611:Drivers/GD32F1x0_standard_peripheral/Source/gd32f1x0_i2c.c **** /*!
 612:Drivers/GD32F1x0_standard_peripheral/Source/gd32f1x0_i2c.c ****     \brief      I2C whether to transfer PEC value
 613:Drivers/GD32F1x0_standard_peripheral/Source/gd32f1x0_i2c.c ****     \param[in]  i2c_periph: I2Cx(x=0,1,2)
 614:Drivers/GD32F1x0_standard_peripheral/Source/gd32f1x0_i2c.c ****     \param[in]  pecpara:
 615:Drivers/GD32F1x0_standard_peripheral/Source/gd32f1x0_i2c.c ****       \arg        I2C_PECTRANS_ENABLE: transfer PEC 
 616:Drivers/GD32F1x0_standard_peripheral/Source/gd32f1x0_i2c.c ****       \arg        I2C_PECTRANS_DISABLE: not transfer PEC 
 617:Drivers/GD32F1x0_standard_peripheral/Source/gd32f1x0_i2c.c ****     \param[out] none
 618:Drivers/GD32F1x0_standard_peripheral/Source/gd32f1x0_i2c.c ****     \retval     none
 619:Drivers/GD32F1x0_standard_peripheral/Source/gd32f1x0_i2c.c **** */
 620:Drivers/GD32F1x0_standard_peripheral/Source/gd32f1x0_i2c.c **** void i2c_pec_transfer_enable(uint32_t i2c_periph, uint32_t pecpara)
 621:Drivers/GD32F1x0_standard_peripheral/Source/gd32f1x0_i2c.c **** {
 1143              		.loc 1 621 1 is_stmt 1 view -0
 1144              		.cfi_startproc
 1145              		@ args = 0, pretend = 0, frame = 0
 1146              		@ frame_needed = 0, uses_anonymous_args = 0
 1147              		@ link register save eliminated.
 622:Drivers/GD32F1x0_standard_peripheral/Source/gd32f1x0_i2c.c ****     /* whether to transfer PEC */
 623:Drivers/GD32F1x0_standard_peripheral/Source/gd32f1x0_i2c.c ****     uint32_t ctl = 0U;
 1148              		.loc 1 623 5 view .LVU306
 624:Drivers/GD32F1x0_standard_peripheral/Source/gd32f1x0_i2c.c ****     ctl = I2C_CTL0(i2c_periph);
 1149              		.loc 1 624 5 view .LVU307
 1150              		.loc 1 624 9 is_stmt 0 view .LVU308
 1151 0000 0368     		ldr	r3, [r0]
 1152              	.LVL94:
 625:Drivers/GD32F1x0_standard_peripheral/Source/gd32f1x0_i2c.c ****     ctl &= ~(I2C_CTL0_PECTRANS);
 1153              		.loc 1 625 5 is_stmt 1 view .LVU309
 1154              		.loc 1 625 9 is_stmt 0 view .LVU310
 1155 0002 23F48053 		bic	r3, r3, #4096
 1156              	.LVL95:
 626:Drivers/GD32F1x0_standard_peripheral/Source/gd32f1x0_i2c.c ****     ctl |= pecpara;
 1157              		.loc 1 626 5 is_stmt 1 view .LVU311
 1158              		.loc 1 626 9 is_stmt 0 view .LVU312
 1159 0006 0B43     		orrs	r3, r3, r1
 1160              	.LVL96:
 627:Drivers/GD32F1x0_standard_peripheral/Source/gd32f1x0_i2c.c ****     I2C_CTL0(i2c_periph) = ctl;
 1161              		.loc 1 627 5 is_stmt 1 view .LVU313
 1162              		.loc 1 627 26 is_stmt 0 view .LVU314
 1163 0008 0360     		str	r3, [r0]
 628:Drivers/GD32F1x0_standard_peripheral/Source/gd32f1x0_i2c.c **** }
 1164              		.loc 1 628 1 view .LVU315
 1165 000a 7047     		bx	lr
 1166              		.cfi_endproc
ARM GAS  /tmp/ccahbfuw.s 			page 33


 1167              	.LFE82:
 1169              		.section	.text.i2c_pec_value_get,"ax",%progbits
 1170              		.align	1
 1171              		.global	i2c_pec_value_get
 1172              		.syntax unified
 1173              		.thumb
 1174              		.thumb_func
 1175              		.fpu softvfp
 1177              	i2c_pec_value_get:
 1178              	.LVL97:
 1179              	.LFB83:
 629:Drivers/GD32F1x0_standard_peripheral/Source/gd32f1x0_i2c.c **** 
 630:Drivers/GD32F1x0_standard_peripheral/Source/gd32f1x0_i2c.c **** /*!
 631:Drivers/GD32F1x0_standard_peripheral/Source/gd32f1x0_i2c.c ****     \brief      get packet error checking value 
 632:Drivers/GD32F1x0_standard_peripheral/Source/gd32f1x0_i2c.c ****     \param[in]  i2c_periph: I2Cx(x=0,1,2)
 633:Drivers/GD32F1x0_standard_peripheral/Source/gd32f1x0_i2c.c ****     \param[out] none
 634:Drivers/GD32F1x0_standard_peripheral/Source/gd32f1x0_i2c.c ****     \retval     PEC value
 635:Drivers/GD32F1x0_standard_peripheral/Source/gd32f1x0_i2c.c **** */
 636:Drivers/GD32F1x0_standard_peripheral/Source/gd32f1x0_i2c.c **** uint8_t i2c_pec_value_get(uint32_t i2c_periph)
 637:Drivers/GD32F1x0_standard_peripheral/Source/gd32f1x0_i2c.c **** {
 1180              		.loc 1 637 1 is_stmt 1 view -0
 1181              		.cfi_startproc
 1182              		@ args = 0, pretend = 0, frame = 0
 1183              		@ frame_needed = 0, uses_anonymous_args = 0
 1184              		@ link register save eliminated.
 638:Drivers/GD32F1x0_standard_peripheral/Source/gd32f1x0_i2c.c ****     return (uint8_t)((I2C_STAT1(i2c_periph) & I2C_STAT1_ECV)>>8);
 1185              		.loc 1 638 5 view .LVU317
 1186              		.loc 1 638 23 is_stmt 0 view .LVU318
 1187 0000 8069     		ldr	r0, [r0, #24]
 1188              	.LVL98:
 639:Drivers/GD32F1x0_standard_peripheral/Source/gd32f1x0_i2c.c **** }
 1189              		.loc 1 639 1 view .LVU319
 1190 0002 C0F30720 		ubfx	r0, r0, #8, #8
 1191 0006 7047     		bx	lr
 1192              		.cfi_endproc
 1193              	.LFE83:
 1195              		.section	.text.i2c_smbus_issue_alert,"ax",%progbits
 1196              		.align	1
 1197              		.global	i2c_smbus_issue_alert
 1198              		.syntax unified
 1199              		.thumb
 1200              		.thumb_func
 1201              		.fpu softvfp
 1203              	i2c_smbus_issue_alert:
 1204              	.LVL99:
 1205              	.LFB84:
 640:Drivers/GD32F1x0_standard_peripheral/Source/gd32f1x0_i2c.c **** 
 641:Drivers/GD32F1x0_standard_peripheral/Source/gd32f1x0_i2c.c **** /*!
 642:Drivers/GD32F1x0_standard_peripheral/Source/gd32f1x0_i2c.c ****     \brief      I2C issue alert through SMBA pin 
 643:Drivers/GD32F1x0_standard_peripheral/Source/gd32f1x0_i2c.c ****     \param[in]  i2c_periph: I2Cx(x=0,1,2)
 644:Drivers/GD32F1x0_standard_peripheral/Source/gd32f1x0_i2c.c ****     \param[in]  smbuspara:
 645:Drivers/GD32F1x0_standard_peripheral/Source/gd32f1x0_i2c.c ****       \arg        I2C_SALTSEND_ENABLE: issue alert through SMBA pin 
 646:Drivers/GD32F1x0_standard_peripheral/Source/gd32f1x0_i2c.c ****       \arg        I2C_SALTSEND_DISABLE: not issue alert through SMBA pin 
 647:Drivers/GD32F1x0_standard_peripheral/Source/gd32f1x0_i2c.c ****     \param[out] none
 648:Drivers/GD32F1x0_standard_peripheral/Source/gd32f1x0_i2c.c ****     \retval     none
 649:Drivers/GD32F1x0_standard_peripheral/Source/gd32f1x0_i2c.c **** */
 650:Drivers/GD32F1x0_standard_peripheral/Source/gd32f1x0_i2c.c **** void i2c_smbus_issue_alert(uint32_t i2c_periph, uint32_t smbuspara)
ARM GAS  /tmp/ccahbfuw.s 			page 34


 651:Drivers/GD32F1x0_standard_peripheral/Source/gd32f1x0_i2c.c **** {
 1206              		.loc 1 651 1 is_stmt 1 view -0
 1207              		.cfi_startproc
 1208              		@ args = 0, pretend = 0, frame = 0
 1209              		@ frame_needed = 0, uses_anonymous_args = 0
 1210              		@ link register save eliminated.
 652:Drivers/GD32F1x0_standard_peripheral/Source/gd32f1x0_i2c.c ****     /* issue alert through SMBA pin configure*/
 653:Drivers/GD32F1x0_standard_peripheral/Source/gd32f1x0_i2c.c ****     uint32_t ctl = 0U;
 1211              		.loc 1 653 5 view .LVU321
 654:Drivers/GD32F1x0_standard_peripheral/Source/gd32f1x0_i2c.c ****     ctl = I2C_CTL0(i2c_periph);
 1212              		.loc 1 654 5 view .LVU322
 1213              		.loc 1 654 9 is_stmt 0 view .LVU323
 1214 0000 0368     		ldr	r3, [r0]
 1215              	.LVL100:
 655:Drivers/GD32F1x0_standard_peripheral/Source/gd32f1x0_i2c.c ****     ctl &= ~(I2C_CTL0_SALT);
 1216              		.loc 1 655 5 is_stmt 1 view .LVU324
 1217              		.loc 1 655 9 is_stmt 0 view .LVU325
 1218 0002 23F40053 		bic	r3, r3, #8192
 1219              	.LVL101:
 656:Drivers/GD32F1x0_standard_peripheral/Source/gd32f1x0_i2c.c ****     ctl |= smbuspara;
 1220              		.loc 1 656 5 is_stmt 1 view .LVU326
 1221              		.loc 1 656 9 is_stmt 0 view .LVU327
 1222 0006 0B43     		orrs	r3, r3, r1
 1223              	.LVL102:
 657:Drivers/GD32F1x0_standard_peripheral/Source/gd32f1x0_i2c.c ****     I2C_CTL0(i2c_periph) = ctl;
 1224              		.loc 1 657 5 is_stmt 1 view .LVU328
 1225              		.loc 1 657 26 is_stmt 0 view .LVU329
 1226 0008 0360     		str	r3, [r0]
 658:Drivers/GD32F1x0_standard_peripheral/Source/gd32f1x0_i2c.c **** }
 1227              		.loc 1 658 1 view .LVU330
 1228 000a 7047     		bx	lr
 1229              		.cfi_endproc
 1230              	.LFE84:
 1232              		.section	.text.i2c_smbus_arp_enable,"ax",%progbits
 1233              		.align	1
 1234              		.global	i2c_smbus_arp_enable
 1235              		.syntax unified
 1236              		.thumb
 1237              		.thumb_func
 1238              		.fpu softvfp
 1240              	i2c_smbus_arp_enable:
 1241              	.LVL103:
 1242              	.LFB85:
 659:Drivers/GD32F1x0_standard_peripheral/Source/gd32f1x0_i2c.c **** 
 660:Drivers/GD32F1x0_standard_peripheral/Source/gd32f1x0_i2c.c **** /*!
 661:Drivers/GD32F1x0_standard_peripheral/Source/gd32f1x0_i2c.c ****     \brief      enable or disable I2C ARP protocol in SMBus switch
 662:Drivers/GD32F1x0_standard_peripheral/Source/gd32f1x0_i2c.c ****     \param[in]  i2c_periph: I2Cx(x=0,1,2)
 663:Drivers/GD32F1x0_standard_peripheral/Source/gd32f1x0_i2c.c ****     \param[in]  smbuspara:
 664:Drivers/GD32F1x0_standard_peripheral/Source/gd32f1x0_i2c.c ****       \arg        I2C_ARP_ENABLE: enable ARP
 665:Drivers/GD32F1x0_standard_peripheral/Source/gd32f1x0_i2c.c ****       \arg        I2C_ARP_DISABLE: disable ARP
 666:Drivers/GD32F1x0_standard_peripheral/Source/gd32f1x0_i2c.c ****     \param[out] none
 667:Drivers/GD32F1x0_standard_peripheral/Source/gd32f1x0_i2c.c ****     \retval     none
 668:Drivers/GD32F1x0_standard_peripheral/Source/gd32f1x0_i2c.c **** */
 669:Drivers/GD32F1x0_standard_peripheral/Source/gd32f1x0_i2c.c **** void i2c_smbus_arp_enable(uint32_t i2c_periph, uint32_t arpstate)
 670:Drivers/GD32F1x0_standard_peripheral/Source/gd32f1x0_i2c.c **** {
 1243              		.loc 1 670 1 is_stmt 1 view -0
 1244              		.cfi_startproc
ARM GAS  /tmp/ccahbfuw.s 			page 35


 1245              		@ args = 0, pretend = 0, frame = 0
 1246              		@ frame_needed = 0, uses_anonymous_args = 0
 1247              		@ link register save eliminated.
 671:Drivers/GD32F1x0_standard_peripheral/Source/gd32f1x0_i2c.c ****     /* enable or disable I2C ARP protocol*/
 672:Drivers/GD32F1x0_standard_peripheral/Source/gd32f1x0_i2c.c ****     uint32_t ctl = 0U;
 1248              		.loc 1 672 5 view .LVU332
 673:Drivers/GD32F1x0_standard_peripheral/Source/gd32f1x0_i2c.c ****     ctl = I2C_CTL0(i2c_periph);
 1249              		.loc 1 673 5 view .LVU333
 1250              		.loc 1 673 9 is_stmt 0 view .LVU334
 1251 0000 0368     		ldr	r3, [r0]
 1252              	.LVL104:
 674:Drivers/GD32F1x0_standard_peripheral/Source/gd32f1x0_i2c.c ****     ctl &= ~(I2C_CTL0_ARPEN);
 1253              		.loc 1 674 5 is_stmt 1 view .LVU335
 1254              		.loc 1 674 9 is_stmt 0 view .LVU336
 1255 0002 23F01003 		bic	r3, r3, #16
 1256              	.LVL105:
 675:Drivers/GD32F1x0_standard_peripheral/Source/gd32f1x0_i2c.c ****     ctl |= arpstate;
 1257              		.loc 1 675 5 is_stmt 1 view .LVU337
 1258              		.loc 1 675 9 is_stmt 0 view .LVU338
 1259 0006 0B43     		orrs	r3, r3, r1
 1260              	.LVL106:
 676:Drivers/GD32F1x0_standard_peripheral/Source/gd32f1x0_i2c.c ****     I2C_CTL0(i2c_periph) = ctl;
 1261              		.loc 1 676 5 is_stmt 1 view .LVU339
 1262              		.loc 1 676 26 is_stmt 0 view .LVU340
 1263 0008 0360     		str	r3, [r0]
 677:Drivers/GD32F1x0_standard_peripheral/Source/gd32f1x0_i2c.c **** }
 1264              		.loc 1 677 1 view .LVU341
 1265 000a 7047     		bx	lr
 1266              		.cfi_endproc
 1267              	.LFE85:
 1269              		.text
 1270              	.Letext0:
 1271              		.file 2 "/usr/lib/gcc/arm-none-eabi/10.3.1/include/stdint.h"
 1272              		.file 3 "Drivers/CMSIS/Include/gd32f1x0.h"
 1273              		.file 4 "Drivers/GD32F1x0_standard_peripheral/Include/gd32f1x0_rcu.h"
ARM GAS  /tmp/ccahbfuw.s 			page 36

