ARM GAS  /tmp/ccP4G5CZ.s 			page 1


   1              		.cpu cortex-m3
   2              		.eabi_attribute 20, 1
   3              		.eabi_attribute 21, 1
   4              		.eabi_attribute 23, 3
   5              		.eabi_attribute 24, 1
   6              		.eabi_attribute 25, 1
   7              		.eabi_attribute 26, 1
   8              		.eabi_attribute 30, 4
   9              		.eabi_attribute 34, 1
  10              		.eabi_attribute 18, 4
  11              		.file	"gd32f1x0_timer.c"
  12              		.text
  13              	.Ltext0:
  14              		.cfi_sections	.debug_frame
  15              		.section	.text.timer_deinit,"ax",%progbits
  16              		.align	1
  17              		.global	timer_deinit
  18              		.arch armv7-m
  19              		.syntax unified
  20              		.thumb
  21              		.thumb_func
  22              		.fpu softvfp
  24              	timer_deinit:
  25              	.LVL0:
  26              	.LFB56:
  27              		.file 1 "Drivers/GD32F1x0_standard_peripheral/Source/gd32f1x0_timer.c"
   1:Drivers/GD32F1x0_standard_peripheral/Source/gd32f1x0_timer.c **** /*!
   2:Drivers/GD32F1x0_standard_peripheral/Source/gd32f1x0_timer.c ****     \file  gd32f1x0_timer.c
   3:Drivers/GD32F1x0_standard_peripheral/Source/gd32f1x0_timer.c ****     \brief TIMER driver
   4:Drivers/GD32F1x0_standard_peripheral/Source/gd32f1x0_timer.c **** */
   5:Drivers/GD32F1x0_standard_peripheral/Source/gd32f1x0_timer.c **** 
   6:Drivers/GD32F1x0_standard_peripheral/Source/gd32f1x0_timer.c **** /*
   7:Drivers/GD32F1x0_standard_peripheral/Source/gd32f1x0_timer.c ****     Copyright (C) 2017 GigaDevice
   8:Drivers/GD32F1x0_standard_peripheral/Source/gd32f1x0_timer.c **** 
   9:Drivers/GD32F1x0_standard_peripheral/Source/gd32f1x0_timer.c ****     2014-12-26, V1.0.0, platform GD32F1x0(x=3,5)
  10:Drivers/GD32F1x0_standard_peripheral/Source/gd32f1x0_timer.c ****     2016-01-15, V2.0.0, platform GD32F1x0(x=3,5,7,9)
  11:Drivers/GD32F1x0_standard_peripheral/Source/gd32f1x0_timer.c ****     2016-04-30, V3.0.0, firmware update for GD32F1x0(x=3,5,7,9)
  12:Drivers/GD32F1x0_standard_peripheral/Source/gd32f1x0_timer.c ****     2017-06-19, V3.1.0, firmware update for GD32F1x0(x=3,5,7,9)
  13:Drivers/GD32F1x0_standard_peripheral/Source/gd32f1x0_timer.c **** */
  14:Drivers/GD32F1x0_standard_peripheral/Source/gd32f1x0_timer.c **** 
  15:Drivers/GD32F1x0_standard_peripheral/Source/gd32f1x0_timer.c **** #include "gd32f1x0_timer.h"
  16:Drivers/GD32F1x0_standard_peripheral/Source/gd32f1x0_timer.c **** 
  17:Drivers/GD32F1x0_standard_peripheral/Source/gd32f1x0_timer.c **** /*!
  18:Drivers/GD32F1x0_standard_peripheral/Source/gd32f1x0_timer.c ****     \brief      deinit a timer
  19:Drivers/GD32F1x0_standard_peripheral/Source/gd32f1x0_timer.c ****     \param[in]  timer_periph: TIMERx(x=0,1,2,5,13,14,15,16)
  20:Drivers/GD32F1x0_standard_peripheral/Source/gd32f1x0_timer.c ****     \param[out] none
  21:Drivers/GD32F1x0_standard_peripheral/Source/gd32f1x0_timer.c ****     \retval     none
  22:Drivers/GD32F1x0_standard_peripheral/Source/gd32f1x0_timer.c **** */
  23:Drivers/GD32F1x0_standard_peripheral/Source/gd32f1x0_timer.c **** void timer_deinit(uint32_t timer_periph)
  24:Drivers/GD32F1x0_standard_peripheral/Source/gd32f1x0_timer.c **** {
  28              		.loc 1 24 1 view -0
  29              		.cfi_startproc
  30              		@ args = 0, pretend = 0, frame = 0
  31              		@ frame_needed = 0, uses_anonymous_args = 0
  25:Drivers/GD32F1x0_standard_peripheral/Source/gd32f1x0_timer.c ****     switch(timer_periph){
  32              		.loc 1 25 5 view .LVU1
  24:Drivers/GD32F1x0_standard_peripheral/Source/gd32f1x0_timer.c ****     switch(timer_periph){
ARM GAS  /tmp/ccP4G5CZ.s 			page 2


  33              		.loc 1 24 1 is_stmt 0 view .LVU2
  34 0000 08B5     		push	{r3, lr}
  35              	.LCFI0:
  36              		.cfi_def_cfa_offset 8
  37              		.cfi_offset 3, -8
  38              		.cfi_offset 14, -4
  39              		.loc 1 25 5 view .LVU3
  40 0002 2D4B     		ldr	r3, .L14
  41 0004 9842     		cmp	r0, r3
  42 0006 29D0     		beq	.L2
  43 0008 16D8     		bhi	.L3
  44 000a A3F58E33 		sub	r3, r3, #72704
  45 000e 9842     		cmp	r0, r3
  46 0010 3CD0     		beq	.L4
  47 0012 07D8     		bhi	.L5
  48 0014 B0F1804F 		cmp	r0, #1073741824
  49 0018 2AD0     		beq	.L6
  50 001a A3F54063 		sub	r3, r3, #3072
  51 001e 9842     		cmp	r0, r3
  52 0020 2DD0     		beq	.L7
  53              	.L1:
  26:Drivers/GD32F1x0_standard_peripheral/Source/gd32f1x0_timer.c ****     case TIMER0:
  27:Drivers/GD32F1x0_standard_peripheral/Source/gd32f1x0_timer.c ****         /* reset TIMER0 */
  28:Drivers/GD32F1x0_standard_peripheral/Source/gd32f1x0_timer.c ****         rcu_periph_reset_enable(RCU_TIMER0RST);
  29:Drivers/GD32F1x0_standard_peripheral/Source/gd32f1x0_timer.c ****         rcu_periph_reset_disable(RCU_TIMER0RST);
  30:Drivers/GD32F1x0_standard_peripheral/Source/gd32f1x0_timer.c ****         break;
  31:Drivers/GD32F1x0_standard_peripheral/Source/gd32f1x0_timer.c ****     case TIMER1:
  32:Drivers/GD32F1x0_standard_peripheral/Source/gd32f1x0_timer.c ****         /* reset TIMER1 */
  33:Drivers/GD32F1x0_standard_peripheral/Source/gd32f1x0_timer.c ****         rcu_periph_reset_enable(RCU_TIMER1RST);
  34:Drivers/GD32F1x0_standard_peripheral/Source/gd32f1x0_timer.c ****         rcu_periph_reset_disable(RCU_TIMER1RST);
  35:Drivers/GD32F1x0_standard_peripheral/Source/gd32f1x0_timer.c ****         break;
  36:Drivers/GD32F1x0_standard_peripheral/Source/gd32f1x0_timer.c ****     case TIMER2:
  37:Drivers/GD32F1x0_standard_peripheral/Source/gd32f1x0_timer.c ****         /* reset TIMER2 */
  38:Drivers/GD32F1x0_standard_peripheral/Source/gd32f1x0_timer.c ****         rcu_periph_reset_enable(RCU_TIMER2RST);
  39:Drivers/GD32F1x0_standard_peripheral/Source/gd32f1x0_timer.c ****         rcu_periph_reset_disable(RCU_TIMER2RST);
  40:Drivers/GD32F1x0_standard_peripheral/Source/gd32f1x0_timer.c ****         break;
  41:Drivers/GD32F1x0_standard_peripheral/Source/gd32f1x0_timer.c ****     case TIMER5:
  42:Drivers/GD32F1x0_standard_peripheral/Source/gd32f1x0_timer.c ****         /* reset TIMER5 */
  43:Drivers/GD32F1x0_standard_peripheral/Source/gd32f1x0_timer.c ****         rcu_periph_reset_enable(RCU_TIMER5RST);
  44:Drivers/GD32F1x0_standard_peripheral/Source/gd32f1x0_timer.c ****         rcu_periph_reset_disable(RCU_TIMER5RST);
  45:Drivers/GD32F1x0_standard_peripheral/Source/gd32f1x0_timer.c ****         break;
  46:Drivers/GD32F1x0_standard_peripheral/Source/gd32f1x0_timer.c ****     case TIMER13:
  47:Drivers/GD32F1x0_standard_peripheral/Source/gd32f1x0_timer.c ****         /* reset TIMER13 */
  48:Drivers/GD32F1x0_standard_peripheral/Source/gd32f1x0_timer.c ****         rcu_periph_reset_enable(RCU_TIMER13RST);
  49:Drivers/GD32F1x0_standard_peripheral/Source/gd32f1x0_timer.c ****         rcu_periph_reset_disable(RCU_TIMER13RST);
  50:Drivers/GD32F1x0_standard_peripheral/Source/gd32f1x0_timer.c ****         break;
  51:Drivers/GD32F1x0_standard_peripheral/Source/gd32f1x0_timer.c ****     case TIMER14:
  52:Drivers/GD32F1x0_standard_peripheral/Source/gd32f1x0_timer.c ****         /* reset TIMER14 */
  53:Drivers/GD32F1x0_standard_peripheral/Source/gd32f1x0_timer.c ****         rcu_periph_reset_enable(RCU_TIMER14RST);
  54:Drivers/GD32F1x0_standard_peripheral/Source/gd32f1x0_timer.c ****         rcu_periph_reset_disable(RCU_TIMER14RST);
  55:Drivers/GD32F1x0_standard_peripheral/Source/gd32f1x0_timer.c ****         break;
  56:Drivers/GD32F1x0_standard_peripheral/Source/gd32f1x0_timer.c ****     case TIMER15:
  57:Drivers/GD32F1x0_standard_peripheral/Source/gd32f1x0_timer.c ****         /* reset TIMER15 */
  58:Drivers/GD32F1x0_standard_peripheral/Source/gd32f1x0_timer.c ****         rcu_periph_reset_enable(RCU_TIMER15RST);
  59:Drivers/GD32F1x0_standard_peripheral/Source/gd32f1x0_timer.c ****         rcu_periph_reset_disable(RCU_TIMER15RST);
  60:Drivers/GD32F1x0_standard_peripheral/Source/gd32f1x0_timer.c ****         break;
  61:Drivers/GD32F1x0_standard_peripheral/Source/gd32f1x0_timer.c ****     case TIMER16:
ARM GAS  /tmp/ccP4G5CZ.s 			page 3


  62:Drivers/GD32F1x0_standard_peripheral/Source/gd32f1x0_timer.c ****         /* reset TIMER16 */
  63:Drivers/GD32F1x0_standard_peripheral/Source/gd32f1x0_timer.c ****         rcu_periph_reset_enable(RCU_TIMER16RST);
  64:Drivers/GD32F1x0_standard_peripheral/Source/gd32f1x0_timer.c ****         rcu_periph_reset_disable(RCU_TIMER16RST);
  65:Drivers/GD32F1x0_standard_peripheral/Source/gd32f1x0_timer.c ****         break;
  66:Drivers/GD32F1x0_standard_peripheral/Source/gd32f1x0_timer.c ****     default:
  67:Drivers/GD32F1x0_standard_peripheral/Source/gd32f1x0_timer.c ****         break;
  68:Drivers/GD32F1x0_standard_peripheral/Source/gd32f1x0_timer.c ****     }
  69:Drivers/GD32F1x0_standard_peripheral/Source/gd32f1x0_timer.c **** }
  54              		.loc 1 69 1 view .LVU4
  55 0022 08BD     		pop	{r3, pc}
  56              	.L5:
  25:Drivers/GD32F1x0_standard_peripheral/Source/gd32f1x0_timer.c ****     case TIMER0:
  57              		.loc 1 25 5 view .LVU5
  58 0024 254B     		ldr	r3, .L14+4
  59 0026 9842     		cmp	r0, r3
  60 0028 FBD1     		bne	.L1
  48:Drivers/GD32F1x0_standard_peripheral/Source/gd32f1x0_timer.c ****         rcu_periph_reset_disable(RCU_TIMER13RST);
  61              		.loc 1 48 9 is_stmt 1 view .LVU6
  62 002a 4FF48160 		mov	r0, #1032
  63              	.LVL1:
  48:Drivers/GD32F1x0_standard_peripheral/Source/gd32f1x0_timer.c ****         rcu_periph_reset_disable(RCU_TIMER13RST);
  64              		.loc 1 48 9 is_stmt 0 view .LVU7
  65 002e FFF7FEFF 		bl	rcu_periph_reset_enable
  66              	.LVL2:
  49:Drivers/GD32F1x0_standard_peripheral/Source/gd32f1x0_timer.c ****         break;
  67              		.loc 1 49 9 is_stmt 1 view .LVU8
  68 0032 4FF48160 		mov	r0, #1032
  69 0036 17E0     		b	.L13
  70              	.LVL3:
  71              	.L3:
  25:Drivers/GD32F1x0_standard_peripheral/Source/gd32f1x0_timer.c ****     case TIMER0:
  72              		.loc 1 25 5 is_stmt 0 view .LVU9
  73 0038 214B     		ldr	r3, .L14+8
  74 003a 9842     		cmp	r0, r3
  75 003c 2DD0     		beq	.L10
  76 003e 03F58063 		add	r3, r3, #1024
  77 0042 9842     		cmp	r0, r3
  78 0044 30D0     		beq	.L11
  79 0046 A3F50063 		sub	r3, r3, #2048
  80 004a 9842     		cmp	r0, r3
  81 004c E9D1     		bne	.L1
  53:Drivers/GD32F1x0_standard_peripheral/Source/gd32f1x0_timer.c ****         rcu_periph_reset_disable(RCU_TIMER14RST);
  82              		.loc 1 53 9 is_stmt 1 view .LVU10
  83 004e 4FF44470 		mov	r0, #784
  84              	.LVL4:
  53:Drivers/GD32F1x0_standard_peripheral/Source/gd32f1x0_timer.c ****         rcu_periph_reset_disable(RCU_TIMER14RST);
  85              		.loc 1 53 9 is_stmt 0 view .LVU11
  86 0052 FFF7FEFF 		bl	rcu_periph_reset_enable
  87              	.LVL5:
  54:Drivers/GD32F1x0_standard_peripheral/Source/gd32f1x0_timer.c ****         break;
  88              		.loc 1 54 9 is_stmt 1 view .LVU12
  89 0056 4FF44470 		mov	r0, #784
  90 005a 05E0     		b	.L13
  91              	.LVL6:
  92              	.L2:
  28:Drivers/GD32F1x0_standard_peripheral/Source/gd32f1x0_timer.c ****         rcu_periph_reset_disable(RCU_TIMER0RST);
  93              		.loc 1 28 9 view .LVU13
ARM GAS  /tmp/ccP4G5CZ.s 			page 4


  94 005c 40F20B30 		movw	r0, #779
  95              	.LVL7:
  28:Drivers/GD32F1x0_standard_peripheral/Source/gd32f1x0_timer.c ****         rcu_periph_reset_disable(RCU_TIMER0RST);
  96              		.loc 1 28 9 is_stmt 0 view .LVU14
  97 0060 FFF7FEFF 		bl	rcu_periph_reset_enable
  98              	.LVL8:
  29:Drivers/GD32F1x0_standard_peripheral/Source/gd32f1x0_timer.c ****         break;
  99              		.loc 1 29 9 is_stmt 1 view .LVU15
 100 0064 40F20B30 		movw	r0, #779
 101              	.L13:
 102              		.loc 1 69 1 is_stmt 0 view .LVU16
 103 0068 BDE80840 		pop	{r3, lr}
 104              	.LCFI1:
 105              		.cfi_remember_state
 106              		.cfi_restore 14
 107              		.cfi_restore 3
 108              		.cfi_def_cfa_offset 0
  64:Drivers/GD32F1x0_standard_peripheral/Source/gd32f1x0_timer.c ****         break;
 109              		.loc 1 64 9 view .LVU17
 110 006c FFF7FEBF 		b	rcu_periph_reset_disable
 111              	.LVL9:
 112              	.L6:
 113              	.LCFI2:
 114              		.cfi_restore_state
  33:Drivers/GD32F1x0_standard_peripheral/Source/gd32f1x0_timer.c ****         rcu_periph_reset_disable(RCU_TIMER1RST);
 115              		.loc 1 33 9 is_stmt 1 view .LVU18
 116 0070 4FF48060 		mov	r0, #1024
 117              	.LVL10:
  33:Drivers/GD32F1x0_standard_peripheral/Source/gd32f1x0_timer.c ****         rcu_periph_reset_disable(RCU_TIMER1RST);
 118              		.loc 1 33 9 is_stmt 0 view .LVU19
 119 0074 FFF7FEFF 		bl	rcu_periph_reset_enable
 120              	.LVL11:
  34:Drivers/GD32F1x0_standard_peripheral/Source/gd32f1x0_timer.c ****         break;
 121              		.loc 1 34 9 is_stmt 1 view .LVU20
 122 0078 4FF48060 		mov	r0, #1024
 123 007c F4E7     		b	.L13
 124              	.LVL12:
 125              	.L7:
  38:Drivers/GD32F1x0_standard_peripheral/Source/gd32f1x0_timer.c ****         rcu_periph_reset_disable(RCU_TIMER2RST);
 126              		.loc 1 38 9 view .LVU21
 127 007e 40F20140 		movw	r0, #1025
 128              	.LVL13:
  38:Drivers/GD32F1x0_standard_peripheral/Source/gd32f1x0_timer.c ****         rcu_periph_reset_disable(RCU_TIMER2RST);
 129              		.loc 1 38 9 is_stmt 0 view .LVU22
 130 0082 FFF7FEFF 		bl	rcu_periph_reset_enable
 131              	.LVL14:
  39:Drivers/GD32F1x0_standard_peripheral/Source/gd32f1x0_timer.c ****         break;
 132              		.loc 1 39 9 is_stmt 1 view .LVU23
 133 0086 40F20140 		movw	r0, #1025
 134 008a EDE7     		b	.L13
 135              	.LVL15:
 136              	.L4:
  43:Drivers/GD32F1x0_standard_peripheral/Source/gd32f1x0_timer.c ****         rcu_periph_reset_disable(RCU_TIMER5RST);
 137              		.loc 1 43 9 view .LVU24
 138 008c 40F20440 		movw	r0, #1028
 139              	.LVL16:
  43:Drivers/GD32F1x0_standard_peripheral/Source/gd32f1x0_timer.c ****         rcu_periph_reset_disable(RCU_TIMER5RST);
ARM GAS  /tmp/ccP4G5CZ.s 			page 5


 140              		.loc 1 43 9 is_stmt 0 view .LVU25
 141 0090 FFF7FEFF 		bl	rcu_periph_reset_enable
 142              	.LVL17:
  44:Drivers/GD32F1x0_standard_peripheral/Source/gd32f1x0_timer.c ****         break;
 143              		.loc 1 44 9 is_stmt 1 view .LVU26
 144 0094 40F20440 		movw	r0, #1028
 145 0098 E6E7     		b	.L13
 146              	.LVL18:
 147              	.L10:
  58:Drivers/GD32F1x0_standard_peripheral/Source/gd32f1x0_timer.c ****         rcu_periph_reset_disable(RCU_TIMER15RST);
 148              		.loc 1 58 9 view .LVU27
 149 009a 40F21130 		movw	r0, #785
 150              	.LVL19:
  58:Drivers/GD32F1x0_standard_peripheral/Source/gd32f1x0_timer.c ****         rcu_periph_reset_disable(RCU_TIMER15RST);
 151              		.loc 1 58 9 is_stmt 0 view .LVU28
 152 009e FFF7FEFF 		bl	rcu_periph_reset_enable
 153              	.LVL20:
  59:Drivers/GD32F1x0_standard_peripheral/Source/gd32f1x0_timer.c ****         break;
 154              		.loc 1 59 9 is_stmt 1 view .LVU29
 155 00a2 40F21130 		movw	r0, #785
 156 00a6 DFE7     		b	.L13
 157              	.LVL21:
 158              	.L11:
  63:Drivers/GD32F1x0_standard_peripheral/Source/gd32f1x0_timer.c ****         rcu_periph_reset_disable(RCU_TIMER16RST);
 159              		.loc 1 63 9 view .LVU30
 160 00a8 40F21230 		movw	r0, #786
 161              	.LVL22:
  63:Drivers/GD32F1x0_standard_peripheral/Source/gd32f1x0_timer.c ****         rcu_periph_reset_disable(RCU_TIMER16RST);
 162              		.loc 1 63 9 is_stmt 0 view .LVU31
 163 00ac FFF7FEFF 		bl	rcu_periph_reset_enable
 164              	.LVL23:
  64:Drivers/GD32F1x0_standard_peripheral/Source/gd32f1x0_timer.c ****         break;
 165              		.loc 1 64 9 is_stmt 1 view .LVU32
 166 00b0 40F21230 		movw	r0, #786
 167 00b4 D8E7     		b	.L13
 168              	.L15:
 169 00b6 00BF     		.align	2
 170              	.L14:
 171 00b8 002C0140 		.word	1073818624
 172 00bc 00200040 		.word	1073750016
 173 00c0 00440140 		.word	1073824768
 174              		.cfi_endproc
 175              	.LFE56:
 177              		.section	.text.timer_init,"ax",%progbits
 178              		.align	1
 179              		.global	timer_init
 180              		.syntax unified
 181              		.thumb
 182              		.thumb_func
 183              		.fpu softvfp
 185              	timer_init:
 186              	.LVL24:
 187              	.LFB57:
  70:Drivers/GD32F1x0_standard_peripheral/Source/gd32f1x0_timer.c **** 
  71:Drivers/GD32F1x0_standard_peripheral/Source/gd32f1x0_timer.c **** /*!
  72:Drivers/GD32F1x0_standard_peripheral/Source/gd32f1x0_timer.c ****     \brief      initialize TIMER counter
  73:Drivers/GD32F1x0_standard_peripheral/Source/gd32f1x0_timer.c ****     \param[in]  timer_periph: TIMERx(x=0,1,2,5,13,14,15,16)
ARM GAS  /tmp/ccP4G5CZ.s 			page 6


  74:Drivers/GD32F1x0_standard_peripheral/Source/gd32f1x0_timer.c ****     \param[in]  initpara: init parameter struct
  75:Drivers/GD32F1x0_standard_peripheral/Source/gd32f1x0_timer.c ****                 prescaler: prescaler value of the counter clock,0~65535
  76:Drivers/GD32F1x0_standard_peripheral/Source/gd32f1x0_timer.c ****                 alignedmode: TIMER_COUNTER_EDGE,TIMER_COUNTER_CENTER_DOWN,TIMER_COUNTER_CENTER_UP,T
  77:Drivers/GD32F1x0_standard_peripheral/Source/gd32f1x0_timer.c ****                 counterdirection: TIMER_COUNTER_UP,TIMER_COUNTER_DOWN
  78:Drivers/GD32F1x0_standard_peripheral/Source/gd32f1x0_timer.c ****                 period: counter auto reload value
  79:Drivers/GD32F1x0_standard_peripheral/Source/gd32f1x0_timer.c ****                 clockdivision: TIMER_CKDIV_DIV1,TIMER_CKDIV_DIV2,TIMER_CKDIV_DIV4
  80:Drivers/GD32F1x0_standard_peripheral/Source/gd32f1x0_timer.c ****                 repetitioncounter: counter repetition value,0~255
  81:Drivers/GD32F1x0_standard_peripheral/Source/gd32f1x0_timer.c ****     \param[out] none
  82:Drivers/GD32F1x0_standard_peripheral/Source/gd32f1x0_timer.c ****     \retval     none
  83:Drivers/GD32F1x0_standard_peripheral/Source/gd32f1x0_timer.c **** */
  84:Drivers/GD32F1x0_standard_peripheral/Source/gd32f1x0_timer.c **** void timer_init(uint32_t timer_periph, timer_parameter_struct* initpara)
  85:Drivers/GD32F1x0_standard_peripheral/Source/gd32f1x0_timer.c **** {
 188              		.loc 1 85 1 view -0
 189              		.cfi_startproc
 190              		@ args = 0, pretend = 0, frame = 0
 191              		@ frame_needed = 0, uses_anonymous_args = 0
  86:Drivers/GD32F1x0_standard_peripheral/Source/gd32f1x0_timer.c ****     /* configure the counter prescaler value */
  87:Drivers/GD32F1x0_standard_peripheral/Source/gd32f1x0_timer.c ****     TIMER_PSC(timer_periph) = (uint16_t)initpara->prescaler;
 192              		.loc 1 87 5 view .LVU34
 193              		.loc 1 87 31 is_stmt 0 view .LVU35
 194 0000 0B88     		ldrh	r3, [r1]
  85:Drivers/GD32F1x0_standard_peripheral/Source/gd32f1x0_timer.c ****     /* configure the counter prescaler value */
 195              		.loc 1 85 1 view .LVU36
 196 0002 10B5     		push	{r4, lr}
 197              	.LCFI3:
 198              		.cfi_def_cfa_offset 8
 199              		.cfi_offset 4, -8
 200              		.cfi_offset 14, -4
 201              		.loc 1 87 29 view .LVU37
 202 0004 8362     		str	r3, [r0, #40]
  88:Drivers/GD32F1x0_standard_peripheral/Source/gd32f1x0_timer.c **** 
  89:Drivers/GD32F1x0_standard_peripheral/Source/gd32f1x0_timer.c ****     /* configure the counter direction and aligned mode */
  90:Drivers/GD32F1x0_standard_peripheral/Source/gd32f1x0_timer.c ****     if((TIMER0 == timer_periph) || (TIMER1 == timer_periph) || (TIMER2 == timer_periph)){
 203              		.loc 1 90 5 is_stmt 1 view .LVU38
  91:Drivers/GD32F1x0_standard_peripheral/Source/gd32f1x0_timer.c ****         TIMER_CTL0(timer_periph) &= (uint32_t)(~ TIMER_CTL0_DIR|TIMER_CTL0_CAM);
 204              		.loc 1 91 34 is_stmt 0 view .LVU39
 205 0006 0268     		ldr	r2, [r0]
  90:Drivers/GD32F1x0_standard_peripheral/Source/gd32f1x0_timer.c ****         TIMER_CTL0(timer_periph) &= (uint32_t)(~ TIMER_CTL0_DIR|TIMER_CTL0_CAM);
 206              		.loc 1 90 7 view .LVU40
 207 0008 184B     		ldr	r3, .L24
 208              		.loc 1 91 34 view .LVU41
 209 000a 22F01002 		bic	r2, r2, #16
  90:Drivers/GD32F1x0_standard_peripheral/Source/gd32f1x0_timer.c ****         TIMER_CTL0(timer_periph) &= (uint32_t)(~ TIMER_CTL0_DIR|TIMER_CTL0_CAM);
 210              		.loc 1 90 7 view .LVU42
 211 000e 9842     		cmp	r0, r3
  92:Drivers/GD32F1x0_standard_peripheral/Source/gd32f1x0_timer.c ****         TIMER_CTL0(timer_periph) |= (uint32_t)initpara->alignedmode;
  93:Drivers/GD32F1x0_standard_peripheral/Source/gd32f1x0_timer.c ****         TIMER_CTL0(timer_periph) |= (uint32_t)initpara->counterdirection;
  94:Drivers/GD32F1x0_standard_peripheral/Source/gd32f1x0_timer.c ****     }else{
  95:Drivers/GD32F1x0_standard_peripheral/Source/gd32f1x0_timer.c ****         TIMER_CTL0(timer_periph) &= (uint32_t)(~ TIMER_CTL0_DIR);
  96:Drivers/GD32F1x0_standard_peripheral/Source/gd32f1x0_timer.c ****         TIMER_CTL0(timer_periph) |= (uint32_t)initpara->counterdirection;
 212              		.loc 1 96 37 view .LVU43
 213 0010 8C88     		ldrh	r4, [r1, #4]
  91:Drivers/GD32F1x0_standard_peripheral/Source/gd32f1x0_timer.c ****         TIMER_CTL0(timer_periph) |= (uint32_t)initpara->alignedmode;
 214              		.loc 1 91 34 view .LVU44
 215 0012 0260     		str	r2, [r0]
  90:Drivers/GD32F1x0_standard_peripheral/Source/gd32f1x0_timer.c ****         TIMER_CTL0(timer_periph) &= (uint32_t)(~ TIMER_CTL0_DIR|TIMER_CTL0_CAM);
 216              		.loc 1 90 7 view .LVU45
ARM GAS  /tmp/ccP4G5CZ.s 			page 7


 217 0014 04D0     		beq	.L17
  90:Drivers/GD32F1x0_standard_peripheral/Source/gd32f1x0_timer.c ****         TIMER_CTL0(timer_periph) &= (uint32_t)(~ TIMER_CTL0_DIR|TIMER_CTL0_CAM);
 218              		.loc 1 90 33 discriminator 1 view .LVU46
 219 0016 20F48063 		bic	r3, r0, #1024
 220 001a B3F1804F 		cmp	r3, #1073741824
 221 001e 03D1     		bne	.L18
 222              	.L17:
  91:Drivers/GD32F1x0_standard_peripheral/Source/gd32f1x0_timer.c ****         TIMER_CTL0(timer_periph) |= (uint32_t)initpara->alignedmode;
 223              		.loc 1 91 9 is_stmt 1 view .LVU47
  92:Drivers/GD32F1x0_standard_peripheral/Source/gd32f1x0_timer.c ****         TIMER_CTL0(timer_periph) |= (uint32_t)initpara->alignedmode;
 224              		.loc 1 92 9 view .LVU48
  92:Drivers/GD32F1x0_standard_peripheral/Source/gd32f1x0_timer.c ****         TIMER_CTL0(timer_periph) |= (uint32_t)initpara->alignedmode;
 225              		.loc 1 92 34 is_stmt 0 view .LVU49
 226 0020 0368     		ldr	r3, [r0]
  92:Drivers/GD32F1x0_standard_peripheral/Source/gd32f1x0_timer.c ****         TIMER_CTL0(timer_periph) |= (uint32_t)initpara->alignedmode;
 227              		.loc 1 92 37 view .LVU50
 228 0022 4A88     		ldrh	r2, [r1, #2]
  92:Drivers/GD32F1x0_standard_peripheral/Source/gd32f1x0_timer.c ****         TIMER_CTL0(timer_periph) |= (uint32_t)initpara->alignedmode;
 229              		.loc 1 92 34 view .LVU51
 230 0024 1A43     		orrs	r2, r2, r3
 231 0026 0260     		str	r2, [r0]
  93:Drivers/GD32F1x0_standard_peripheral/Source/gd32f1x0_timer.c ****     }else{
 232              		.loc 1 93 9 is_stmt 1 view .LVU52
 233              	.L18:
  95:Drivers/GD32F1x0_standard_peripheral/Source/gd32f1x0_timer.c ****         TIMER_CTL0(timer_periph) |= (uint32_t)initpara->counterdirection;
 234              		.loc 1 95 9 view .LVU53
 235              		.loc 1 96 9 view .LVU54
 236              		.loc 1 96 34 is_stmt 0 view .LVU55
 237 0028 0368     		ldr	r3, [r0]
 238 002a 2343     		orrs	r3, r3, r4
 239 002c 0360     		str	r3, [r0]
  97:Drivers/GD32F1x0_standard_peripheral/Source/gd32f1x0_timer.c ****     }
  98:Drivers/GD32F1x0_standard_peripheral/Source/gd32f1x0_timer.c **** 
  99:Drivers/GD32F1x0_standard_peripheral/Source/gd32f1x0_timer.c ****     /* configure the autoreload value */
 100:Drivers/GD32F1x0_standard_peripheral/Source/gd32f1x0_timer.c ****     TIMER_CAR(timer_periph) = (uint32_t)initpara->period;
 240              		.loc 1 100 5 is_stmt 1 view .LVU56
 241              		.loc 1 100 49 is_stmt 0 view .LVU57
 242 002e 8B68     		ldr	r3, [r1, #8]
 243              		.loc 1 100 29 view .LVU58
 244 0030 C362     		str	r3, [r0, #44]
 101:Drivers/GD32F1x0_standard_peripheral/Source/gd32f1x0_timer.c **** 
 102:Drivers/GD32F1x0_standard_peripheral/Source/gd32f1x0_timer.c ****     if((TIMER5 != timer_periph)){
 245              		.loc 1 102 5 is_stmt 1 view .LVU59
 246              		.loc 1 102 7 is_stmt 0 view .LVU60
 247 0032 0F4B     		ldr	r3, .L24+4
 248 0034 9842     		cmp	r0, r3
 249 0036 16D0     		beq	.L21
 103:Drivers/GD32F1x0_standard_peripheral/Source/gd32f1x0_timer.c ****         /* reset the CKDIV bit */
 104:Drivers/GD32F1x0_standard_peripheral/Source/gd32f1x0_timer.c ****         TIMER_CTL0(timer_periph) &= (uint32_t)(~ TIMER_CTL0_CKDIV);
 250              		.loc 1 104 9 is_stmt 1 view .LVU61
 251              		.loc 1 104 34 is_stmt 0 view .LVU62
 252 0038 0368     		ldr	r3, [r0]
 253 003a 23F44073 		bic	r3, r3, #768
 254 003e 0360     		str	r3, [r0]
 105:Drivers/GD32F1x0_standard_peripheral/Source/gd32f1x0_timer.c ****         TIMER_CTL0(timer_periph) |= (uint32_t)initpara->clockdivision;
 255              		.loc 1 105 9 is_stmt 1 view .LVU63
 256              		.loc 1 105 34 is_stmt 0 view .LVU64
ARM GAS  /tmp/ccP4G5CZ.s 			page 8


 257 0040 0268     		ldr	r2, [r0]
 258              		.loc 1 105 37 view .LVU65
 259 0042 8B89     		ldrh	r3, [r1, #12]
 260              		.loc 1 105 34 view .LVU66
 261 0044 1343     		orrs	r3, r3, r2
 262 0046 0360     		str	r3, [r0]
 106:Drivers/GD32F1x0_standard_peripheral/Source/gd32f1x0_timer.c ****     }
 107:Drivers/GD32F1x0_standard_peripheral/Source/gd32f1x0_timer.c **** 
 108:Drivers/GD32F1x0_standard_peripheral/Source/gd32f1x0_timer.c ****     if((TIMER0 == timer_periph) || (TIMER14 == timer_periph) || (TIMER15 == timer_periph)|| (TIMER1
 263              		.loc 1 108 5 is_stmt 1 view .LVU67
 264              		.loc 1 108 7 is_stmt 0 view .LVU68
 265 0048 084B     		ldr	r3, .L24
 266 004a 9842     		cmp	r0, r3
 267 004c 09D0     		beq	.L22
 268              		.loc 1 108 33 discriminator 1 view .LVU69
 269 004e 20F48062 		bic	r2, r0, #1024
 270 0052 03F5A053 		add	r3, r3, #5120
 271 0056 9A42     		cmp	r2, r3
 272 0058 03D0     		beq	.L22
 273              		.loc 1 108 90 discriminator 3 view .LVU70
 274 005a 03F50063 		add	r3, r3, #2048
 275 005e 9842     		cmp	r0, r3
 276 0060 01D1     		bne	.L21
 277              	.L22:
 109:Drivers/GD32F1x0_standard_peripheral/Source/gd32f1x0_timer.c ****         /* configure the repetition counter value */
 110:Drivers/GD32F1x0_standard_peripheral/Source/gd32f1x0_timer.c ****         TIMER_CREP(timer_periph) = (uint32_t)initpara->repetitioncounter;
 278              		.loc 1 110 9 is_stmt 1 view .LVU71
 279              		.loc 1 110 36 is_stmt 0 view .LVU72
 280 0062 8B7B     		ldrb	r3, [r1, #14]	@ zero_extendqisi2
 281              		.loc 1 110 34 view .LVU73
 282 0064 0363     		str	r3, [r0, #48]
 283              	.L21:
 111:Drivers/GD32F1x0_standard_peripheral/Source/gd32f1x0_timer.c ****     }
 112:Drivers/GD32F1x0_standard_peripheral/Source/gd32f1x0_timer.c **** 
 113:Drivers/GD32F1x0_standard_peripheral/Source/gd32f1x0_timer.c ****     /* generate an update event */
 114:Drivers/GD32F1x0_standard_peripheral/Source/gd32f1x0_timer.c ****     TIMER_SWEVG(timer_periph) |= (uint32_t)TIMER_PSC_RELOAD_NOW;
 284              		.loc 1 114 5 is_stmt 1 view .LVU74
 285              		.loc 1 114 31 is_stmt 0 view .LVU75
 286 0066 4369     		ldr	r3, [r0, #20]
 287 0068 4361     		str	r3, [r0, #20]
 115:Drivers/GD32F1x0_standard_peripheral/Source/gd32f1x0_timer.c **** }
 288              		.loc 1 115 1 view .LVU76
 289 006a 10BD     		pop	{r4, pc}
 290              	.L25:
 291              		.align	2
 292              	.L24:
 293 006c 002C0140 		.word	1073818624
 294 0070 00100040 		.word	1073745920
 295              		.cfi_endproc
 296              	.LFE57:
 298              		.section	.text.timer_enable,"ax",%progbits
 299              		.align	1
 300              		.global	timer_enable
 301              		.syntax unified
 302              		.thumb
 303              		.thumb_func
 304              		.fpu softvfp
ARM GAS  /tmp/ccP4G5CZ.s 			page 9


 306              	timer_enable:
 307              	.LVL25:
 308              	.LFB58:
 116:Drivers/GD32F1x0_standard_peripheral/Source/gd32f1x0_timer.c **** 
 117:Drivers/GD32F1x0_standard_peripheral/Source/gd32f1x0_timer.c **** /*!
 118:Drivers/GD32F1x0_standard_peripheral/Source/gd32f1x0_timer.c ****     \brief      enable a timer
 119:Drivers/GD32F1x0_standard_peripheral/Source/gd32f1x0_timer.c ****     \param[in]  timer_periph: TIMERx(x=0,1,2,5,13,14,15,16)
 120:Drivers/GD32F1x0_standard_peripheral/Source/gd32f1x0_timer.c ****     \param[out] none
 121:Drivers/GD32F1x0_standard_peripheral/Source/gd32f1x0_timer.c ****     \retval     none
 122:Drivers/GD32F1x0_standard_peripheral/Source/gd32f1x0_timer.c **** */
 123:Drivers/GD32F1x0_standard_peripheral/Source/gd32f1x0_timer.c **** void timer_enable(uint32_t timer_periph)
 124:Drivers/GD32F1x0_standard_peripheral/Source/gd32f1x0_timer.c **** {
 309              		.loc 1 124 1 is_stmt 1 view -0
 310              		.cfi_startproc
 311              		@ args = 0, pretend = 0, frame = 0
 312              		@ frame_needed = 0, uses_anonymous_args = 0
 313              		@ link register save eliminated.
 125:Drivers/GD32F1x0_standard_peripheral/Source/gd32f1x0_timer.c ****     TIMER_CTL0(timer_periph) |= (uint32_t)TIMER_COUNTER_ENABLE;
 314              		.loc 1 125 5 view .LVU78
 315              		.loc 1 125 30 is_stmt 0 view .LVU79
 316 0000 0368     		ldr	r3, [r0]
 317 0002 43F00103 		orr	r3, r3, #1
 318 0006 0360     		str	r3, [r0]
 126:Drivers/GD32F1x0_standard_peripheral/Source/gd32f1x0_timer.c **** }
 319              		.loc 1 126 1 view .LVU80
 320 0008 7047     		bx	lr
 321              		.cfi_endproc
 322              	.LFE58:
 324              		.section	.text.timer_disable,"ax",%progbits
 325              		.align	1
 326              		.global	timer_disable
 327              		.syntax unified
 328              		.thumb
 329              		.thumb_func
 330              		.fpu softvfp
 332              	timer_disable:
 333              	.LVL26:
 334              	.LFB59:
 127:Drivers/GD32F1x0_standard_peripheral/Source/gd32f1x0_timer.c **** 
 128:Drivers/GD32F1x0_standard_peripheral/Source/gd32f1x0_timer.c **** /*!
 129:Drivers/GD32F1x0_standard_peripheral/Source/gd32f1x0_timer.c ****     \brief      disable a timer
 130:Drivers/GD32F1x0_standard_peripheral/Source/gd32f1x0_timer.c ****     \param[in]  timer_periph: TIMERx(x=0,1,2,5,13,14,15,16)
 131:Drivers/GD32F1x0_standard_peripheral/Source/gd32f1x0_timer.c ****     \param[out] none
 132:Drivers/GD32F1x0_standard_peripheral/Source/gd32f1x0_timer.c ****     \retval     none
 133:Drivers/GD32F1x0_standard_peripheral/Source/gd32f1x0_timer.c **** */
 134:Drivers/GD32F1x0_standard_peripheral/Source/gd32f1x0_timer.c **** void timer_disable(uint32_t timer_periph)
 135:Drivers/GD32F1x0_standard_peripheral/Source/gd32f1x0_timer.c **** {
 335              		.loc 1 135 1 is_stmt 1 view -0
 336              		.cfi_startproc
 337              		@ args = 0, pretend = 0, frame = 0
 338              		@ frame_needed = 0, uses_anonymous_args = 0
 339              		@ link register save eliminated.
 136:Drivers/GD32F1x0_standard_peripheral/Source/gd32f1x0_timer.c ****     TIMER_CTL0(timer_periph) &= (uint32_t)TIMER_COUNTER_DISABLE;
 340              		.loc 1 136 5 view .LVU82
 341              		.loc 1 136 30 is_stmt 0 view .LVU83
 342 0000 0368     		ldr	r3, [r0]
 343 0002 23F00103 		bic	r3, r3, #1
ARM GAS  /tmp/ccP4G5CZ.s 			page 10


 344 0006 0360     		str	r3, [r0]
 137:Drivers/GD32F1x0_standard_peripheral/Source/gd32f1x0_timer.c **** }
 345              		.loc 1 137 1 view .LVU84
 346 0008 7047     		bx	lr
 347              		.cfi_endproc
 348              	.LFE59:
 350              		.section	.text.timer_auto_reload_shadow_enable,"ax",%progbits
 351              		.align	1
 352              		.global	timer_auto_reload_shadow_enable
 353              		.syntax unified
 354              		.thumb
 355              		.thumb_func
 356              		.fpu softvfp
 358              	timer_auto_reload_shadow_enable:
 359              	.LVL27:
 360              	.LFB60:
 138:Drivers/GD32F1x0_standard_peripheral/Source/gd32f1x0_timer.c **** 
 139:Drivers/GD32F1x0_standard_peripheral/Source/gd32f1x0_timer.c **** /*!
 140:Drivers/GD32F1x0_standard_peripheral/Source/gd32f1x0_timer.c ****     \brief      enable the auto reload shadow function
 141:Drivers/GD32F1x0_standard_peripheral/Source/gd32f1x0_timer.c ****     \param[in]  timer_periph: TIMERx(x=0,1,2,5,13,14,15,16)
 142:Drivers/GD32F1x0_standard_peripheral/Source/gd32f1x0_timer.c ****     \param[out] none
 143:Drivers/GD32F1x0_standard_peripheral/Source/gd32f1x0_timer.c ****     \retval     none
 144:Drivers/GD32F1x0_standard_peripheral/Source/gd32f1x0_timer.c **** */
 145:Drivers/GD32F1x0_standard_peripheral/Source/gd32f1x0_timer.c **** void timer_auto_reload_shadow_enable(uint32_t timer_periph)
 146:Drivers/GD32F1x0_standard_peripheral/Source/gd32f1x0_timer.c **** {
 361              		.loc 1 146 1 is_stmt 1 view -0
 362              		.cfi_startproc
 363              		@ args = 0, pretend = 0, frame = 0
 364              		@ frame_needed = 0, uses_anonymous_args = 0
 365              		@ link register save eliminated.
 147:Drivers/GD32F1x0_standard_peripheral/Source/gd32f1x0_timer.c ****     TIMER_CTL0(timer_periph) |= (uint32_t) TIMER_ARSE_ENABLE;
 366              		.loc 1 147 5 view .LVU86
 367              		.loc 1 147 30 is_stmt 0 view .LVU87
 368 0000 0368     		ldr	r3, [r0]
 369 0002 43F08003 		orr	r3, r3, #128
 370 0006 0360     		str	r3, [r0]
 148:Drivers/GD32F1x0_standard_peripheral/Source/gd32f1x0_timer.c **** }
 371              		.loc 1 148 1 view .LVU88
 372 0008 7047     		bx	lr
 373              		.cfi_endproc
 374              	.LFE60:
 376              		.section	.text.timer_auto_reload_shadow_disable,"ax",%progbits
 377              		.align	1
 378              		.global	timer_auto_reload_shadow_disable
 379              		.syntax unified
 380              		.thumb
 381              		.thumb_func
 382              		.fpu softvfp
 384              	timer_auto_reload_shadow_disable:
 385              	.LVL28:
 386              	.LFB61:
 149:Drivers/GD32F1x0_standard_peripheral/Source/gd32f1x0_timer.c **** 
 150:Drivers/GD32F1x0_standard_peripheral/Source/gd32f1x0_timer.c **** /*!
 151:Drivers/GD32F1x0_standard_peripheral/Source/gd32f1x0_timer.c ****     \brief      disable the auto reload shadow function
 152:Drivers/GD32F1x0_standard_peripheral/Source/gd32f1x0_timer.c ****     \param[in]  timer_periph: TIMERx(x=0,1,2,5,13,14,15,16)
 153:Drivers/GD32F1x0_standard_peripheral/Source/gd32f1x0_timer.c ****     \param[out] none
 154:Drivers/GD32F1x0_standard_peripheral/Source/gd32f1x0_timer.c ****     \retval     none
ARM GAS  /tmp/ccP4G5CZ.s 			page 11


 155:Drivers/GD32F1x0_standard_peripheral/Source/gd32f1x0_timer.c **** */
 156:Drivers/GD32F1x0_standard_peripheral/Source/gd32f1x0_timer.c **** void timer_auto_reload_shadow_disable(uint32_t timer_periph)
 157:Drivers/GD32F1x0_standard_peripheral/Source/gd32f1x0_timer.c **** {
 387              		.loc 1 157 1 is_stmt 1 view -0
 388              		.cfi_startproc
 389              		@ args = 0, pretend = 0, frame = 0
 390              		@ frame_needed = 0, uses_anonymous_args = 0
 391              		@ link register save eliminated.
 158:Drivers/GD32F1x0_standard_peripheral/Source/gd32f1x0_timer.c ****     TIMER_CTL0(timer_periph) &= (uint32_t) TIMER_ARSE_DISABLE;
 392              		.loc 1 158 5 view .LVU90
 393              		.loc 1 158 30 is_stmt 0 view .LVU91
 394 0000 0368     		ldr	r3, [r0]
 395 0002 23F08003 		bic	r3, r3, #128
 396 0006 0360     		str	r3, [r0]
 159:Drivers/GD32F1x0_standard_peripheral/Source/gd32f1x0_timer.c **** }
 397              		.loc 1 159 1 view .LVU92
 398 0008 7047     		bx	lr
 399              		.cfi_endproc
 400              	.LFE61:
 402              		.section	.text.timer_update_event_enable,"ax",%progbits
 403              		.align	1
 404              		.global	timer_update_event_enable
 405              		.syntax unified
 406              		.thumb
 407              		.thumb_func
 408              		.fpu softvfp
 410              	timer_update_event_enable:
 411              	.LVL29:
 412              	.LFB62:
 160:Drivers/GD32F1x0_standard_peripheral/Source/gd32f1x0_timer.c ****  
 161:Drivers/GD32F1x0_standard_peripheral/Source/gd32f1x0_timer.c **** /*!
 162:Drivers/GD32F1x0_standard_peripheral/Source/gd32f1x0_timer.c ****     \brief      enable the update event
 163:Drivers/GD32F1x0_standard_peripheral/Source/gd32f1x0_timer.c ****     \param[in]  timer_periph: TIMERx(x=0,1,2,5,13,14,15,16)
 164:Drivers/GD32F1x0_standard_peripheral/Source/gd32f1x0_timer.c ****     \param[out] none
 165:Drivers/GD32F1x0_standard_peripheral/Source/gd32f1x0_timer.c ****     \retval     none
 166:Drivers/GD32F1x0_standard_peripheral/Source/gd32f1x0_timer.c **** */
 167:Drivers/GD32F1x0_standard_peripheral/Source/gd32f1x0_timer.c **** void timer_update_event_enable(uint32_t timer_periph)
 168:Drivers/GD32F1x0_standard_peripheral/Source/gd32f1x0_timer.c **** {
 413              		.loc 1 168 1 is_stmt 1 view -0
 414              		.cfi_startproc
 415              		@ args = 0, pretend = 0, frame = 0
 416              		@ frame_needed = 0, uses_anonymous_args = 0
 417              		@ link register save eliminated.
 169:Drivers/GD32F1x0_standard_peripheral/Source/gd32f1x0_timer.c ****     TIMER_CTL0(timer_periph) |= (uint32_t) TIMER_UPDIS_ENABLE;
 418              		.loc 1 169 5 view .LVU94
 419              		.loc 1 169 30 is_stmt 0 view .LVU95
 420 0000 0368     		ldr	r3, [r0]
 421 0002 43F00203 		orr	r3, r3, #2
 422 0006 0360     		str	r3, [r0]
 170:Drivers/GD32F1x0_standard_peripheral/Source/gd32f1x0_timer.c **** }
 423              		.loc 1 170 1 view .LVU96
 424 0008 7047     		bx	lr
 425              		.cfi_endproc
 426              	.LFE62:
 428              		.section	.text.timer_update_event_disable,"ax",%progbits
 429              		.align	1
 430              		.global	timer_update_event_disable
ARM GAS  /tmp/ccP4G5CZ.s 			page 12


 431              		.syntax unified
 432              		.thumb
 433              		.thumb_func
 434              		.fpu softvfp
 436              	timer_update_event_disable:
 437              	.LVL30:
 438              	.LFB63:
 171:Drivers/GD32F1x0_standard_peripheral/Source/gd32f1x0_timer.c **** 
 172:Drivers/GD32F1x0_standard_peripheral/Source/gd32f1x0_timer.c **** /*!
 173:Drivers/GD32F1x0_standard_peripheral/Source/gd32f1x0_timer.c ****     \brief      disable the update event
 174:Drivers/GD32F1x0_standard_peripheral/Source/gd32f1x0_timer.c ****     \param[in]  timer_periph: TIMERx(x=0,1,2,5,13,14,15,16)
 175:Drivers/GD32F1x0_standard_peripheral/Source/gd32f1x0_timer.c ****     \param[out] none
 176:Drivers/GD32F1x0_standard_peripheral/Source/gd32f1x0_timer.c ****     \retval     none
 177:Drivers/GD32F1x0_standard_peripheral/Source/gd32f1x0_timer.c **** */
 178:Drivers/GD32F1x0_standard_peripheral/Source/gd32f1x0_timer.c **** void timer_update_event_disable(uint32_t timer_periph)
 179:Drivers/GD32F1x0_standard_peripheral/Source/gd32f1x0_timer.c **** {
 439              		.loc 1 179 1 is_stmt 1 view -0
 440              		.cfi_startproc
 441              		@ args = 0, pretend = 0, frame = 0
 442              		@ frame_needed = 0, uses_anonymous_args = 0
 443              		@ link register save eliminated.
 180:Drivers/GD32F1x0_standard_peripheral/Source/gd32f1x0_timer.c ****     TIMER_CTL0(timer_periph) &= (uint32_t) TIMER_UPDIS_DISABLE;
 444              		.loc 1 180 5 view .LVU98
 445              		.loc 1 180 30 is_stmt 0 view .LVU99
 446 0000 0368     		ldr	r3, [r0]
 447 0002 23F00203 		bic	r3, r3, #2
 448 0006 0360     		str	r3, [r0]
 181:Drivers/GD32F1x0_standard_peripheral/Source/gd32f1x0_timer.c **** }
 449              		.loc 1 181 1 view .LVU100
 450 0008 7047     		bx	lr
 451              		.cfi_endproc
 452              	.LFE63:
 454              		.section	.text.timer_counter_alignment,"ax",%progbits
 455              		.align	1
 456              		.global	timer_counter_alignment
 457              		.syntax unified
 458              		.thumb
 459              		.thumb_func
 460              		.fpu softvfp
 462              	timer_counter_alignment:
 463              	.LVL31:
 464              	.LFB64:
 182:Drivers/GD32F1x0_standard_peripheral/Source/gd32f1x0_timer.c **** 
 183:Drivers/GD32F1x0_standard_peripheral/Source/gd32f1x0_timer.c **** /*!
 184:Drivers/GD32F1x0_standard_peripheral/Source/gd32f1x0_timer.c ****     \brief      set TIMER counter alignment mode
 185:Drivers/GD32F1x0_standard_peripheral/Source/gd32f1x0_timer.c ****     \param[in]  timer_periph: TIMERx(x=0,1,2)
 186:Drivers/GD32F1x0_standard_peripheral/Source/gd32f1x0_timer.c ****     \param[in]  aligned: 
 187:Drivers/GD32F1x0_standard_peripheral/Source/gd32f1x0_timer.c ****       \arg        TIMER_COUNTER_EDGE: edge-aligned mode
 188:Drivers/GD32F1x0_standard_peripheral/Source/gd32f1x0_timer.c ****       \arg        TIMER_COUNTER_CENTER_DOWN: center-aligned and counting down assert mode
 189:Drivers/GD32F1x0_standard_peripheral/Source/gd32f1x0_timer.c ****       \arg        TIMER_COUNTER_CENTER_UP: center-aligned and counting up assert mode
 190:Drivers/GD32F1x0_standard_peripheral/Source/gd32f1x0_timer.c ****       \arg        TIMER_COUNTER_CENTER_BOTH: center-aligned and counting up/down assert mode
 191:Drivers/GD32F1x0_standard_peripheral/Source/gd32f1x0_timer.c ****     \param[out] none
 192:Drivers/GD32F1x0_standard_peripheral/Source/gd32f1x0_timer.c ****     \retval     none
 193:Drivers/GD32F1x0_standard_peripheral/Source/gd32f1x0_timer.c **** */
 194:Drivers/GD32F1x0_standard_peripheral/Source/gd32f1x0_timer.c **** void timer_counter_alignment(uint32_t timer_periph, uint16_t aligned)
 195:Drivers/GD32F1x0_standard_peripheral/Source/gd32f1x0_timer.c **** {
 465              		.loc 1 195 1 is_stmt 1 view -0
ARM GAS  /tmp/ccP4G5CZ.s 			page 13


 466              		.cfi_startproc
 467              		@ args = 0, pretend = 0, frame = 0
 468              		@ frame_needed = 0, uses_anonymous_args = 0
 469              		@ link register save eliminated.
 196:Drivers/GD32F1x0_standard_peripheral/Source/gd32f1x0_timer.c ****     TIMER_CTL0(timer_periph) &= (uint32_t)(~ TIMER_CTL0_CAM);
 470              		.loc 1 196 5 view .LVU102
 471              		.loc 1 196 30 is_stmt 0 view .LVU103
 472 0000 0368     		ldr	r3, [r0]
 473 0002 23F06003 		bic	r3, r3, #96
 474 0006 0360     		str	r3, [r0]
 197:Drivers/GD32F1x0_standard_peripheral/Source/gd32f1x0_timer.c ****     TIMER_CTL0(timer_periph) |= (uint32_t)aligned;
 475              		.loc 1 197 5 is_stmt 1 view .LVU104
 476              		.loc 1 197 30 is_stmt 0 view .LVU105
 477 0008 0368     		ldr	r3, [r0]
 478 000a 1943     		orrs	r1, r1, r3
 479              	.LVL32:
 480              		.loc 1 197 30 view .LVU106
 481 000c 0160     		str	r1, [r0]
 198:Drivers/GD32F1x0_standard_peripheral/Source/gd32f1x0_timer.c **** }
 482              		.loc 1 198 1 view .LVU107
 483 000e 7047     		bx	lr
 484              		.cfi_endproc
 485              	.LFE64:
 487              		.section	.text.timer_counter_up_direction,"ax",%progbits
 488              		.align	1
 489              		.global	timer_counter_up_direction
 490              		.syntax unified
 491              		.thumb
 492              		.thumb_func
 493              		.fpu softvfp
 495              	timer_counter_up_direction:
 496              	.LVL33:
 497              	.LFB65:
 199:Drivers/GD32F1x0_standard_peripheral/Source/gd32f1x0_timer.c **** 
 200:Drivers/GD32F1x0_standard_peripheral/Source/gd32f1x0_timer.c **** /*!
 201:Drivers/GD32F1x0_standard_peripheral/Source/gd32f1x0_timer.c ****     \brief      set TIMER counter up direction
 202:Drivers/GD32F1x0_standard_peripheral/Source/gd32f1x0_timer.c ****     \param[in]  timer_periph: TIMERx(x=0,1,2,5,13,14,15,16)
 203:Drivers/GD32F1x0_standard_peripheral/Source/gd32f1x0_timer.c ****     \param[out] none
 204:Drivers/GD32F1x0_standard_peripheral/Source/gd32f1x0_timer.c ****     \retval     none
 205:Drivers/GD32F1x0_standard_peripheral/Source/gd32f1x0_timer.c **** */
 206:Drivers/GD32F1x0_standard_peripheral/Source/gd32f1x0_timer.c **** void timer_counter_up_direction(uint32_t timer_periph)
 207:Drivers/GD32F1x0_standard_peripheral/Source/gd32f1x0_timer.c **** {
 498              		.loc 1 207 1 is_stmt 1 view -0
 499              		.cfi_startproc
 500              		@ args = 0, pretend = 0, frame = 0
 501              		@ frame_needed = 0, uses_anonymous_args = 0
 502              		@ link register save eliminated.
 208:Drivers/GD32F1x0_standard_peripheral/Source/gd32f1x0_timer.c ****     TIMER_CTL0(timer_periph) &= (uint32_t)(~ TIMER_CTL0_DIR);
 503              		.loc 1 208 5 view .LVU109
 504              		.loc 1 208 30 is_stmt 0 view .LVU110
 505 0000 0368     		ldr	r3, [r0]
 506 0002 23F01003 		bic	r3, r3, #16
 507 0006 0360     		str	r3, [r0]
 209:Drivers/GD32F1x0_standard_peripheral/Source/gd32f1x0_timer.c ****     TIMER_CTL0(timer_periph) |= (uint32_t)TIMER_COUNTER_UP;
 508              		.loc 1 209 5 is_stmt 1 view .LVU111
 509              		.loc 1 209 30 is_stmt 0 view .LVU112
 510 0008 0368     		ldr	r3, [r0]
ARM GAS  /tmp/ccP4G5CZ.s 			page 14


 511 000a 0360     		str	r3, [r0]
 210:Drivers/GD32F1x0_standard_peripheral/Source/gd32f1x0_timer.c **** }
 512              		.loc 1 210 1 view .LVU113
 513 000c 7047     		bx	lr
 514              		.cfi_endproc
 515              	.LFE65:
 517              		.section	.text.timer_counter_down_direction,"ax",%progbits
 518              		.align	1
 519              		.global	timer_counter_down_direction
 520              		.syntax unified
 521              		.thumb
 522              		.thumb_func
 523              		.fpu softvfp
 525              	timer_counter_down_direction:
 526              	.LVL34:
 527              	.LFB66:
 211:Drivers/GD32F1x0_standard_peripheral/Source/gd32f1x0_timer.c **** 
 212:Drivers/GD32F1x0_standard_peripheral/Source/gd32f1x0_timer.c **** /*!
 213:Drivers/GD32F1x0_standard_peripheral/Source/gd32f1x0_timer.c ****     \brief      set TIMER counter down direction
 214:Drivers/GD32F1x0_standard_peripheral/Source/gd32f1x0_timer.c ****     \param[in]  timer_periph: TIMERx(x=0,1,2)
 215:Drivers/GD32F1x0_standard_peripheral/Source/gd32f1x0_timer.c ****     \param[out] none
 216:Drivers/GD32F1x0_standard_peripheral/Source/gd32f1x0_timer.c ****     \retval     none
 217:Drivers/GD32F1x0_standard_peripheral/Source/gd32f1x0_timer.c **** */
 218:Drivers/GD32F1x0_standard_peripheral/Source/gd32f1x0_timer.c **** void timer_counter_down_direction(uint32_t timer_periph)
 219:Drivers/GD32F1x0_standard_peripheral/Source/gd32f1x0_timer.c **** {
 528              		.loc 1 219 1 is_stmt 1 view -0
 529              		.cfi_startproc
 530              		@ args = 0, pretend = 0, frame = 0
 531              		@ frame_needed = 0, uses_anonymous_args = 0
 532              		@ link register save eliminated.
 220:Drivers/GD32F1x0_standard_peripheral/Source/gd32f1x0_timer.c ****     TIMER_CTL0(timer_periph) &= (uint32_t)(~ TIMER_CTL0_DIR);
 533              		.loc 1 220 5 view .LVU115
 534              		.loc 1 220 30 is_stmt 0 view .LVU116
 535 0000 0368     		ldr	r3, [r0]
 536 0002 23F01003 		bic	r3, r3, #16
 537 0006 0360     		str	r3, [r0]
 221:Drivers/GD32F1x0_standard_peripheral/Source/gd32f1x0_timer.c ****     TIMER_CTL0(timer_periph) |= (uint32_t)TIMER_COUNTER_DOWN;
 538              		.loc 1 221 5 is_stmt 1 view .LVU117
 539              		.loc 1 221 30 is_stmt 0 view .LVU118
 540 0008 0368     		ldr	r3, [r0]
 541 000a 43F01003 		orr	r3, r3, #16
 542 000e 0360     		str	r3, [r0]
 222:Drivers/GD32F1x0_standard_peripheral/Source/gd32f1x0_timer.c **** }
 543              		.loc 1 222 1 view .LVU119
 544 0010 7047     		bx	lr
 545              		.cfi_endproc
 546              	.LFE66:
 548              		.section	.text.timer_prescaler_config,"ax",%progbits
 549              		.align	1
 550              		.global	timer_prescaler_config
 551              		.syntax unified
 552              		.thumb
 553              		.thumb_func
 554              		.fpu softvfp
 556              	timer_prescaler_config:
 557              	.LVL35:
 558              	.LFB67:
ARM GAS  /tmp/ccP4G5CZ.s 			page 15


 223:Drivers/GD32F1x0_standard_peripheral/Source/gd32f1x0_timer.c **** 
 224:Drivers/GD32F1x0_standard_peripheral/Source/gd32f1x0_timer.c **** /*!
 225:Drivers/GD32F1x0_standard_peripheral/Source/gd32f1x0_timer.c ****     \brief      configure TIMER prescaler
 226:Drivers/GD32F1x0_standard_peripheral/Source/gd32f1x0_timer.c ****     \param[in]  timer_periph: TIMERx(x=0,1,2,5,13,14,15,16)
 227:Drivers/GD32F1x0_standard_peripheral/Source/gd32f1x0_timer.c ****     \param[in]  prescaler: prescaler value
 228:Drivers/GD32F1x0_standard_peripheral/Source/gd32f1x0_timer.c ****     \param[in]  pscreload: prescaler reload mode
 229:Drivers/GD32F1x0_standard_peripheral/Source/gd32f1x0_timer.c ****       \arg        TIMER_PSC_RELOAD_NOW: the prescaler is loaded right now
 230:Drivers/GD32F1x0_standard_peripheral/Source/gd32f1x0_timer.c ****       \arg        TIMER_PSC_RELOAD_UPDATE: the prescaler is loaded at the next update event
 231:Drivers/GD32F1x0_standard_peripheral/Source/gd32f1x0_timer.c ****     \param[out] none
 232:Drivers/GD32F1x0_standard_peripheral/Source/gd32f1x0_timer.c ****     \retval     none
 233:Drivers/GD32F1x0_standard_peripheral/Source/gd32f1x0_timer.c **** */
 234:Drivers/GD32F1x0_standard_peripheral/Source/gd32f1x0_timer.c **** void timer_prescaler_config(uint32_t timer_periph, uint16_t prescaler, uint8_t pscreload)
 235:Drivers/GD32F1x0_standard_peripheral/Source/gd32f1x0_timer.c **** {
 559              		.loc 1 235 1 is_stmt 1 view -0
 560              		.cfi_startproc
 561              		@ args = 0, pretend = 0, frame = 0
 562              		@ frame_needed = 0, uses_anonymous_args = 0
 563              		@ link register save eliminated.
 236:Drivers/GD32F1x0_standard_peripheral/Source/gd32f1x0_timer.c ****     TIMER_PSC(timer_periph) = (uint32_t)prescaler;
 564              		.loc 1 236 5 view .LVU121
 565              		.loc 1 236 29 is_stmt 0 view .LVU122
 566 0000 8162     		str	r1, [r0, #40]
 237:Drivers/GD32F1x0_standard_peripheral/Source/gd32f1x0_timer.c ****     
 238:Drivers/GD32F1x0_standard_peripheral/Source/gd32f1x0_timer.c ****     if(TIMER_PSC_RELOAD_NOW == pscreload){
 567              		.loc 1 238 5 is_stmt 1 view .LVU123
 568              		.loc 1 238 7 is_stmt 0 view .LVU124
 569 0002 1AB9     		cbnz	r2, .L35
 239:Drivers/GD32F1x0_standard_peripheral/Source/gd32f1x0_timer.c ****         TIMER_SWEVG(timer_periph) |= (uint32_t)TIMER_SWEVG_UPG;
 570              		.loc 1 239 9 is_stmt 1 view .LVU125
 571              		.loc 1 239 35 is_stmt 0 view .LVU126
 572 0004 4369     		ldr	r3, [r0, #20]
 573 0006 43F00103 		orr	r3, r3, #1
 574 000a 4361     		str	r3, [r0, #20]
 575              	.L35:
 240:Drivers/GD32F1x0_standard_peripheral/Source/gd32f1x0_timer.c ****     }    
 241:Drivers/GD32F1x0_standard_peripheral/Source/gd32f1x0_timer.c **** }
 576              		.loc 1 241 1 view .LVU127
 577 000c 7047     		bx	lr
 578              		.cfi_endproc
 579              	.LFE67:
 581              		.section	.text.timer_repetition_value_config,"ax",%progbits
 582              		.align	1
 583              		.global	timer_repetition_value_config
 584              		.syntax unified
 585              		.thumb
 586              		.thumb_func
 587              		.fpu softvfp
 589              	timer_repetition_value_config:
 590              	.LVL36:
 591              	.LFB68:
 242:Drivers/GD32F1x0_standard_peripheral/Source/gd32f1x0_timer.c **** 
 243:Drivers/GD32F1x0_standard_peripheral/Source/gd32f1x0_timer.c **** /*!
 244:Drivers/GD32F1x0_standard_peripheral/Source/gd32f1x0_timer.c ****     \brief      configure TIMER repetition register value
 245:Drivers/GD32F1x0_standard_peripheral/Source/gd32f1x0_timer.c ****     \param[in]  timer_periph: TIMERx(x=0,14,15,16)
 246:Drivers/GD32F1x0_standard_peripheral/Source/gd32f1x0_timer.c ****     \param[in]  repetition: the counter repetition value
 247:Drivers/GD32F1x0_standard_peripheral/Source/gd32f1x0_timer.c ****     \param[out] none
 248:Drivers/GD32F1x0_standard_peripheral/Source/gd32f1x0_timer.c ****     \retval     none
ARM GAS  /tmp/ccP4G5CZ.s 			page 16


 249:Drivers/GD32F1x0_standard_peripheral/Source/gd32f1x0_timer.c **** */
 250:Drivers/GD32F1x0_standard_peripheral/Source/gd32f1x0_timer.c **** void timer_repetition_value_config(uint32_t timer_periph, uint16_t repetition)
 251:Drivers/GD32F1x0_standard_peripheral/Source/gd32f1x0_timer.c **** {
 592              		.loc 1 251 1 is_stmt 1 view -0
 593              		.cfi_startproc
 594              		@ args = 0, pretend = 0, frame = 0
 595              		@ frame_needed = 0, uses_anonymous_args = 0
 596              		@ link register save eliminated.
 252:Drivers/GD32F1x0_standard_peripheral/Source/gd32f1x0_timer.c ****     TIMER_CREP(timer_periph) = (uint32_t)repetition;
 597              		.loc 1 252 5 view .LVU129
 598              		.loc 1 252 30 is_stmt 0 view .LVU130
 599 0000 0163     		str	r1, [r0, #48]
 253:Drivers/GD32F1x0_standard_peripheral/Source/gd32f1x0_timer.c **** } 
 600              		.loc 1 253 1 view .LVU131
 601 0002 7047     		bx	lr
 602              		.cfi_endproc
 603              	.LFE68:
 605              		.section	.text.timer_autoreload_value_config,"ax",%progbits
 606              		.align	1
 607              		.global	timer_autoreload_value_config
 608              		.syntax unified
 609              		.thumb
 610              		.thumb_func
 611              		.fpu softvfp
 613              	timer_autoreload_value_config:
 614              	.LVL37:
 615              	.LFB69:
 254:Drivers/GD32F1x0_standard_peripheral/Source/gd32f1x0_timer.c ****  
 255:Drivers/GD32F1x0_standard_peripheral/Source/gd32f1x0_timer.c **** /*!
 256:Drivers/GD32F1x0_standard_peripheral/Source/gd32f1x0_timer.c ****     \brief      configure TIMER autoreload register value
 257:Drivers/GD32F1x0_standard_peripheral/Source/gd32f1x0_timer.c ****     \param[in]  timer_periph: TIMERx(x=0,1,2,5,13,14,15,16)
 258:Drivers/GD32F1x0_standard_peripheral/Source/gd32f1x0_timer.c ****     \param[in]  autoreload: the counter auto-reload value
 259:Drivers/GD32F1x0_standard_peripheral/Source/gd32f1x0_timer.c ****     \param[out] none
 260:Drivers/GD32F1x0_standard_peripheral/Source/gd32f1x0_timer.c ****     \retval     none
 261:Drivers/GD32F1x0_standard_peripheral/Source/gd32f1x0_timer.c **** */         
 262:Drivers/GD32F1x0_standard_peripheral/Source/gd32f1x0_timer.c **** void timer_autoreload_value_config(uint32_t timer_periph, uint16_t autoreload)
 263:Drivers/GD32F1x0_standard_peripheral/Source/gd32f1x0_timer.c **** {
 616              		.loc 1 263 1 is_stmt 1 view -0
 617              		.cfi_startproc
 618              		@ args = 0, pretend = 0, frame = 0
 619              		@ frame_needed = 0, uses_anonymous_args = 0
 620              		@ link register save eliminated.
 264:Drivers/GD32F1x0_standard_peripheral/Source/gd32f1x0_timer.c ****     TIMER_CAR(timer_periph) = (uint32_t)autoreload;
 621              		.loc 1 264 5 view .LVU133
 622              		.loc 1 264 29 is_stmt 0 view .LVU134
 623 0000 C162     		str	r1, [r0, #44]
 265:Drivers/GD32F1x0_standard_peripheral/Source/gd32f1x0_timer.c **** }
 624              		.loc 1 265 1 view .LVU135
 625 0002 7047     		bx	lr
 626              		.cfi_endproc
 627              	.LFE69:
 629              		.section	.text.timer_counter_value_config,"ax",%progbits
 630              		.align	1
 631              		.global	timer_counter_value_config
 632              		.syntax unified
 633              		.thumb
 634              		.thumb_func
ARM GAS  /tmp/ccP4G5CZ.s 			page 17


 635              		.fpu softvfp
 637              	timer_counter_value_config:
 638              	.LVL38:
 639              	.LFB70:
 266:Drivers/GD32F1x0_standard_peripheral/Source/gd32f1x0_timer.c **** 
 267:Drivers/GD32F1x0_standard_peripheral/Source/gd32f1x0_timer.c **** /*!
 268:Drivers/GD32F1x0_standard_peripheral/Source/gd32f1x0_timer.c ****     \brief      configure TIMER counter register value
 269:Drivers/GD32F1x0_standard_peripheral/Source/gd32f1x0_timer.c ****     \param[in]  timer_periph: TIMERx(x=0,1,2,5,13,14,15,16)
 270:Drivers/GD32F1x0_standard_peripheral/Source/gd32f1x0_timer.c ****     \param[in]  counter: the counter value
 271:Drivers/GD32F1x0_standard_peripheral/Source/gd32f1x0_timer.c ****     \param[out] none
 272:Drivers/GD32F1x0_standard_peripheral/Source/gd32f1x0_timer.c ****     \retval     none
 273:Drivers/GD32F1x0_standard_peripheral/Source/gd32f1x0_timer.c **** */         
 274:Drivers/GD32F1x0_standard_peripheral/Source/gd32f1x0_timer.c **** void timer_counter_value_config(uint32_t timer_periph, uint16_t counter)
 275:Drivers/GD32F1x0_standard_peripheral/Source/gd32f1x0_timer.c **** {
 640              		.loc 1 275 1 is_stmt 1 view -0
 641              		.cfi_startproc
 642              		@ args = 0, pretend = 0, frame = 0
 643              		@ frame_needed = 0, uses_anonymous_args = 0
 644              		@ link register save eliminated.
 276:Drivers/GD32F1x0_standard_peripheral/Source/gd32f1x0_timer.c ****     TIMER_CNT(timer_periph) = (uint32_t)counter;
 645              		.loc 1 276 5 view .LVU137
 646              		.loc 1 276 29 is_stmt 0 view .LVU138
 647 0000 4162     		str	r1, [r0, #36]
 277:Drivers/GD32F1x0_standard_peripheral/Source/gd32f1x0_timer.c **** }
 648              		.loc 1 277 1 view .LVU139
 649 0002 7047     		bx	lr
 650              		.cfi_endproc
 651              	.LFE70:
 653              		.section	.text.timer_counter_read,"ax",%progbits
 654              		.align	1
 655              		.global	timer_counter_read
 656              		.syntax unified
 657              		.thumb
 658              		.thumb_func
 659              		.fpu softvfp
 661              	timer_counter_read:
 662              	.LVL39:
 663              	.LFB71:
 278:Drivers/GD32F1x0_standard_peripheral/Source/gd32f1x0_timer.c **** 
 279:Drivers/GD32F1x0_standard_peripheral/Source/gd32f1x0_timer.c **** /*!
 280:Drivers/GD32F1x0_standard_peripheral/Source/gd32f1x0_timer.c ****     \brief      read TIMER counter value
 281:Drivers/GD32F1x0_standard_peripheral/Source/gd32f1x0_timer.c ****     \param[in]  timer_periph: TIMERx(x=0,1,2,5,13,14,15,16)
 282:Drivers/GD32F1x0_standard_peripheral/Source/gd32f1x0_timer.c ****     \param[out] none
 283:Drivers/GD32F1x0_standard_peripheral/Source/gd32f1x0_timer.c ****     \retval     counter value
 284:Drivers/GD32F1x0_standard_peripheral/Source/gd32f1x0_timer.c **** */         
 285:Drivers/GD32F1x0_standard_peripheral/Source/gd32f1x0_timer.c **** uint32_t timer_counter_read(uint32_t timer_periph)
 286:Drivers/GD32F1x0_standard_peripheral/Source/gd32f1x0_timer.c **** {
 664              		.loc 1 286 1 is_stmt 1 view -0
 665              		.cfi_startproc
 666              		@ args = 0, pretend = 0, frame = 0
 667              		@ frame_needed = 0, uses_anonymous_args = 0
 668              		@ link register save eliminated.
 287:Drivers/GD32F1x0_standard_peripheral/Source/gd32f1x0_timer.c ****     uint32_t count_value = 0U;
 669              		.loc 1 287 5 view .LVU141
 288:Drivers/GD32F1x0_standard_peripheral/Source/gd32f1x0_timer.c ****     count_value = TIMER_CNT(timer_periph);
 670              		.loc 1 288 5 view .LVU142
 671              		.loc 1 288 17 is_stmt 0 view .LVU143
ARM GAS  /tmp/ccP4G5CZ.s 			page 18


 672 0000 406A     		ldr	r0, [r0, #36]
 673              	.LVL40:
 289:Drivers/GD32F1x0_standard_peripheral/Source/gd32f1x0_timer.c ****     return (count_value);
 674              		.loc 1 289 5 is_stmt 1 view .LVU144
 290:Drivers/GD32F1x0_standard_peripheral/Source/gd32f1x0_timer.c **** }
 675              		.loc 1 290 1 is_stmt 0 view .LVU145
 676 0002 7047     		bx	lr
 677              		.cfi_endproc
 678              	.LFE71:
 680              		.section	.text.timer_prescaler_read,"ax",%progbits
 681              		.align	1
 682              		.global	timer_prescaler_read
 683              		.syntax unified
 684              		.thumb
 685              		.thumb_func
 686              		.fpu softvfp
 688              	timer_prescaler_read:
 689              	.LVL41:
 690              	.LFB72:
 291:Drivers/GD32F1x0_standard_peripheral/Source/gd32f1x0_timer.c **** 
 292:Drivers/GD32F1x0_standard_peripheral/Source/gd32f1x0_timer.c **** /*!
 293:Drivers/GD32F1x0_standard_peripheral/Source/gd32f1x0_timer.c ****     \brief      read TIMER prescaler value
 294:Drivers/GD32F1x0_standard_peripheral/Source/gd32f1x0_timer.c ****     \param[in]  timer_periph: TIMERx(x=0,1,2,5,13,14,15,16)
 295:Drivers/GD32F1x0_standard_peripheral/Source/gd32f1x0_timer.c ****     \param[out] none
 296:Drivers/GD32F1x0_standard_peripheral/Source/gd32f1x0_timer.c ****     \retval     prescaler register value
 297:Drivers/GD32F1x0_standard_peripheral/Source/gd32f1x0_timer.c **** */         
 298:Drivers/GD32F1x0_standard_peripheral/Source/gd32f1x0_timer.c **** uint16_t timer_prescaler_read(uint32_t timer_periph)
 299:Drivers/GD32F1x0_standard_peripheral/Source/gd32f1x0_timer.c **** {
 691              		.loc 1 299 1 is_stmt 1 view -0
 692              		.cfi_startproc
 693              		@ args = 0, pretend = 0, frame = 0
 694              		@ frame_needed = 0, uses_anonymous_args = 0
 695              		@ link register save eliminated.
 300:Drivers/GD32F1x0_standard_peripheral/Source/gd32f1x0_timer.c ****     uint16_t prescaler_value = 0U;
 696              		.loc 1 300 5 view .LVU147
 301:Drivers/GD32F1x0_standard_peripheral/Source/gd32f1x0_timer.c ****     prescaler_value = (uint16_t)(TIMER_PSC(timer_periph));
 697              		.loc 1 301 5 view .LVU148
 698              		.loc 1 301 34 is_stmt 0 view .LVU149
 699 0000 806A     		ldr	r0, [r0, #40]
 700              	.LVL42:
 302:Drivers/GD32F1x0_standard_peripheral/Source/gd32f1x0_timer.c ****     return (prescaler_value);
 701              		.loc 1 302 5 is_stmt 1 view .LVU150
 303:Drivers/GD32F1x0_standard_peripheral/Source/gd32f1x0_timer.c **** }
 702              		.loc 1 303 1 is_stmt 0 view .LVU151
 703 0002 80B2     		uxth	r0, r0
 704              		.loc 1 303 1 view .LVU152
 705 0004 7047     		bx	lr
 706              		.cfi_endproc
 707              	.LFE72:
 709              		.section	.text.timer_single_pulse_mode_config,"ax",%progbits
 710              		.align	1
 711              		.global	timer_single_pulse_mode_config
 712              		.syntax unified
 713              		.thumb
 714              		.thumb_func
 715              		.fpu softvfp
 717              	timer_single_pulse_mode_config:
ARM GAS  /tmp/ccP4G5CZ.s 			page 19


 718              	.LVL43:
 719              	.LFB73:
 304:Drivers/GD32F1x0_standard_peripheral/Source/gd32f1x0_timer.c **** 
 305:Drivers/GD32F1x0_standard_peripheral/Source/gd32f1x0_timer.c **** /*!
 306:Drivers/GD32F1x0_standard_peripheral/Source/gd32f1x0_timer.c ****     \brief      configure TIMER single pulse mode
 307:Drivers/GD32F1x0_standard_peripheral/Source/gd32f1x0_timer.c ****     \param[in]  timer_periph: TIMERx(x=0,1,2,5,13,14,15,16)
 308:Drivers/GD32F1x0_standard_peripheral/Source/gd32f1x0_timer.c ****     \param[in]  spmode: 
 309:Drivers/GD32F1x0_standard_peripheral/Source/gd32f1x0_timer.c ****       \arg        TIMER_SP_MODE_SINGLE: single pulse mode
 310:Drivers/GD32F1x0_standard_peripheral/Source/gd32f1x0_timer.c ****       \arg        TIMER_SP_MODE_REPETITIVE: repetitive pulse mode
 311:Drivers/GD32F1x0_standard_peripheral/Source/gd32f1x0_timer.c ****     \param[out] none
 312:Drivers/GD32F1x0_standard_peripheral/Source/gd32f1x0_timer.c ****     \retval     none
 313:Drivers/GD32F1x0_standard_peripheral/Source/gd32f1x0_timer.c **** */
 314:Drivers/GD32F1x0_standard_peripheral/Source/gd32f1x0_timer.c **** void timer_single_pulse_mode_config(uint32_t timer_periph, uint8_t spmode)
 315:Drivers/GD32F1x0_standard_peripheral/Source/gd32f1x0_timer.c **** {
 720              		.loc 1 315 1 is_stmt 1 view -0
 721              		.cfi_startproc
 722              		@ args = 0, pretend = 0, frame = 0
 723              		@ frame_needed = 0, uses_anonymous_args = 0
 724              		@ link register save eliminated.
 316:Drivers/GD32F1x0_standard_peripheral/Source/gd32f1x0_timer.c ****     if(TIMER_SP_MODE_SINGLE == spmode){
 725              		.loc 1 316 5 view .LVU154
 726              		.loc 1 316 7 is_stmt 0 view .LVU155
 727 0000 21B9     		cbnz	r1, .L43
 317:Drivers/GD32F1x0_standard_peripheral/Source/gd32f1x0_timer.c ****         TIMER_CTL0(timer_periph) |= (uint32_t)TIMER_CTL0_SPM;
 728              		.loc 1 317 9 is_stmt 1 view .LVU156
 729              		.loc 1 317 34 is_stmt 0 view .LVU157
 730 0002 0368     		ldr	r3, [r0]
 731 0004 43F00803 		orr	r3, r3, #8
 732              	.L45:
 318:Drivers/GD32F1x0_standard_peripheral/Source/gd32f1x0_timer.c ****     }else if(TIMER_SP_MODE_REPETITIVE == spmode){
 319:Drivers/GD32F1x0_standard_peripheral/Source/gd32f1x0_timer.c ****         TIMER_CTL0(timer_periph) &= ~((uint32_t)TIMER_CTL0_SPM);
 733              		.loc 1 319 34 view .LVU158
 734 0008 0360     		str	r3, [r0]
 320:Drivers/GD32F1x0_standard_peripheral/Source/gd32f1x0_timer.c ****     }else{
 321:Drivers/GD32F1x0_standard_peripheral/Source/gd32f1x0_timer.c ****     }       
 735              		.loc 1 321 5 is_stmt 1 view .LVU159
 736              	.L42:
 322:Drivers/GD32F1x0_standard_peripheral/Source/gd32f1x0_timer.c **** }
 737              		.loc 1 322 1 is_stmt 0 view .LVU160
 738 000a 7047     		bx	lr
 739              	.L43:
 318:Drivers/GD32F1x0_standard_peripheral/Source/gd32f1x0_timer.c ****     }else if(TIMER_SP_MODE_REPETITIVE == spmode){
 740              		.loc 1 318 11 is_stmt 1 view .LVU161
 318:Drivers/GD32F1x0_standard_peripheral/Source/gd32f1x0_timer.c ****     }else if(TIMER_SP_MODE_REPETITIVE == spmode){
 741              		.loc 1 318 13 is_stmt 0 view .LVU162
 742 000c 0129     		cmp	r1, #1
 743 000e FCD1     		bne	.L42
 319:Drivers/GD32F1x0_standard_peripheral/Source/gd32f1x0_timer.c ****     }else{
 744              		.loc 1 319 9 is_stmt 1 view .LVU163
 319:Drivers/GD32F1x0_standard_peripheral/Source/gd32f1x0_timer.c ****     }else{
 745              		.loc 1 319 34 is_stmt 0 view .LVU164
 746 0010 0368     		ldr	r3, [r0]
 747 0012 23F00803 		bic	r3, r3, #8
 748 0016 F7E7     		b	.L45
 749              		.cfi_endproc
 750              	.LFE73:
 752              		.section	.text.timer_update_source_config,"ax",%progbits
ARM GAS  /tmp/ccP4G5CZ.s 			page 20


 753              		.align	1
 754              		.global	timer_update_source_config
 755              		.syntax unified
 756              		.thumb
 757              		.thumb_func
 758              		.fpu softvfp
 760              	timer_update_source_config:
 761              	.LVL44:
 762              	.LFB74:
 323:Drivers/GD32F1x0_standard_peripheral/Source/gd32f1x0_timer.c **** 
 324:Drivers/GD32F1x0_standard_peripheral/Source/gd32f1x0_timer.c **** /*!
 325:Drivers/GD32F1x0_standard_peripheral/Source/gd32f1x0_timer.c ****     \brief      configure TIMER update source 
 326:Drivers/GD32F1x0_standard_peripheral/Source/gd32f1x0_timer.c ****     \param[in]  timer_periph: TIMERx(x=0,1,2,5,13,14,15,16)
 327:Drivers/GD32F1x0_standard_peripheral/Source/gd32f1x0_timer.c ****     \param[in]  update: 
 328:Drivers/GD32F1x0_standard_peripheral/Source/gd32f1x0_timer.c ****       \arg        TIMER_UPDATE_SRC_GLOBAL: update generate by setting of UPG bit or the counter ove
 329:Drivers/GD32F1x0_standard_peripheral/Source/gd32f1x0_timer.c ****       \arg        TIMER_UPDATE_SRC_REGULAR: update generate only by counter overflow/underflow
 330:Drivers/GD32F1x0_standard_peripheral/Source/gd32f1x0_timer.c ****     \param[out] none
 331:Drivers/GD32F1x0_standard_peripheral/Source/gd32f1x0_timer.c ****     \retval     none
 332:Drivers/GD32F1x0_standard_peripheral/Source/gd32f1x0_timer.c **** */
 333:Drivers/GD32F1x0_standard_peripheral/Source/gd32f1x0_timer.c **** void timer_update_source_config(uint32_t timer_periph, uint8_t update)
 334:Drivers/GD32F1x0_standard_peripheral/Source/gd32f1x0_timer.c **** {
 763              		.loc 1 334 1 is_stmt 1 view -0
 764              		.cfi_startproc
 765              		@ args = 0, pretend = 0, frame = 0
 766              		@ frame_needed = 0, uses_anonymous_args = 0
 767              		@ link register save eliminated.
 335:Drivers/GD32F1x0_standard_peripheral/Source/gd32f1x0_timer.c ****     if(TIMER_UPDATE_SRC_REGULAR == update){
 768              		.loc 1 335 5 view .LVU166
 769              		.loc 1 335 7 is_stmt 0 view .LVU167
 770 0000 21B9     		cbnz	r1, .L47
 336:Drivers/GD32F1x0_standard_peripheral/Source/gd32f1x0_timer.c ****         TIMER_CTL0(timer_periph) |= (uint32_t)TIMER_CTL0_UPS;
 771              		.loc 1 336 9 is_stmt 1 view .LVU168
 772              		.loc 1 336 34 is_stmt 0 view .LVU169
 773 0002 0368     		ldr	r3, [r0]
 774 0004 43F00403 		orr	r3, r3, #4
 775              	.L49:
 337:Drivers/GD32F1x0_standard_peripheral/Source/gd32f1x0_timer.c ****     }else if(update == TIMER_UPDATE_SRC_GLOBAL){
 338:Drivers/GD32F1x0_standard_peripheral/Source/gd32f1x0_timer.c ****         TIMER_CTL0(timer_periph) &= ~(uint32_t)TIMER_CTL0_UPS;
 776              		.loc 1 338 34 view .LVU170
 777 0008 0360     		str	r3, [r0]
 339:Drivers/GD32F1x0_standard_peripheral/Source/gd32f1x0_timer.c ****     }else{
 340:Drivers/GD32F1x0_standard_peripheral/Source/gd32f1x0_timer.c ****     }
 778              		.loc 1 340 5 is_stmt 1 view .LVU171
 779              	.L46:
 341:Drivers/GD32F1x0_standard_peripheral/Source/gd32f1x0_timer.c **** }
 780              		.loc 1 341 1 is_stmt 0 view .LVU172
 781 000a 7047     		bx	lr
 782              	.L47:
 337:Drivers/GD32F1x0_standard_peripheral/Source/gd32f1x0_timer.c ****     }else if(update == TIMER_UPDATE_SRC_GLOBAL){
 783              		.loc 1 337 11 is_stmt 1 view .LVU173
 337:Drivers/GD32F1x0_standard_peripheral/Source/gd32f1x0_timer.c ****     }else if(update == TIMER_UPDATE_SRC_GLOBAL){
 784              		.loc 1 337 13 is_stmt 0 view .LVU174
 785 000c 0129     		cmp	r1, #1
 786 000e FCD1     		bne	.L46
 338:Drivers/GD32F1x0_standard_peripheral/Source/gd32f1x0_timer.c ****     }else{
 787              		.loc 1 338 9 is_stmt 1 view .LVU175
 338:Drivers/GD32F1x0_standard_peripheral/Source/gd32f1x0_timer.c ****     }else{
ARM GAS  /tmp/ccP4G5CZ.s 			page 21


 788              		.loc 1 338 34 is_stmt 0 view .LVU176
 789 0010 0368     		ldr	r3, [r0]
 790 0012 23F00403 		bic	r3, r3, #4
 791 0016 F7E7     		b	.L49
 792              		.cfi_endproc
 793              	.LFE74:
 795              		.section	.text.timer_interrupt_enable,"ax",%progbits
 796              		.align	1
 797              		.global	timer_interrupt_enable
 798              		.syntax unified
 799              		.thumb
 800              		.thumb_func
 801              		.fpu softvfp
 803              	timer_interrupt_enable:
 804              	.LVL45:
 805              	.LFB75:
 342:Drivers/GD32F1x0_standard_peripheral/Source/gd32f1x0_timer.c **** 
 343:Drivers/GD32F1x0_standard_peripheral/Source/gd32f1x0_timer.c **** /*!
 344:Drivers/GD32F1x0_standard_peripheral/Source/gd32f1x0_timer.c ****     \brief      enable the TIMER interrupt
 345:Drivers/GD32F1x0_standard_peripheral/Source/gd32f1x0_timer.c ****     \param[in]  timer_periph: TIMERx(x=0,1,2,5,13,14,15,16)
 346:Drivers/GD32F1x0_standard_peripheral/Source/gd32f1x0_timer.c ****     \param[in]  interrupt: timer interrupt enable source
 347:Drivers/GD32F1x0_standard_peripheral/Source/gd32f1x0_timer.c ****       \arg        TIMER_INT_UP: update interrupt enable
 348:Drivers/GD32F1x0_standard_peripheral/Source/gd32f1x0_timer.c ****       \arg        TIMER_INT_CH0: channel 0 interrupt enable
 349:Drivers/GD32F1x0_standard_peripheral/Source/gd32f1x0_timer.c ****       \arg        TIMER_INT_CH1: channel 1 interrupt enable
 350:Drivers/GD32F1x0_standard_peripheral/Source/gd32f1x0_timer.c ****       \arg        TIMER_INT_CH2: channel 2 interrupt enable
 351:Drivers/GD32F1x0_standard_peripheral/Source/gd32f1x0_timer.c ****       \arg        TIMER_INT_CH3: channel 3 interrupt enable
 352:Drivers/GD32F1x0_standard_peripheral/Source/gd32f1x0_timer.c ****       \arg        TIMER_INT_CMT: commutation interrupt enable
 353:Drivers/GD32F1x0_standard_peripheral/Source/gd32f1x0_timer.c ****       \arg        TIMER_INT_TRG: trigger interrupt enable
 354:Drivers/GD32F1x0_standard_peripheral/Source/gd32f1x0_timer.c ****       \arg        TIMER_INT_BRK: break interrupt enable
 355:Drivers/GD32F1x0_standard_peripheral/Source/gd32f1x0_timer.c ****     \param[out] none
 356:Drivers/GD32F1x0_standard_peripheral/Source/gd32f1x0_timer.c ****     \retval     none
 357:Drivers/GD32F1x0_standard_peripheral/Source/gd32f1x0_timer.c **** */
 358:Drivers/GD32F1x0_standard_peripheral/Source/gd32f1x0_timer.c **** void timer_interrupt_enable(uint32_t timer_periph, uint32_t interrupt)
 359:Drivers/GD32F1x0_standard_peripheral/Source/gd32f1x0_timer.c **** {
 806              		.loc 1 359 1 is_stmt 1 view -0
 807              		.cfi_startproc
 808              		@ args = 0, pretend = 0, frame = 0
 809              		@ frame_needed = 0, uses_anonymous_args = 0
 810              		@ link register save eliminated.
 360:Drivers/GD32F1x0_standard_peripheral/Source/gd32f1x0_timer.c ****     TIMER_DMAINTEN(timer_periph) |= (uint32_t) interrupt; 
 811              		.loc 1 360 5 view .LVU178
 812              		.loc 1 360 34 is_stmt 0 view .LVU179
 813 0000 C368     		ldr	r3, [r0, #12]
 814 0002 0B43     		orrs	r3, r3, r1
 815 0004 C360     		str	r3, [r0, #12]
 361:Drivers/GD32F1x0_standard_peripheral/Source/gd32f1x0_timer.c **** }
 816              		.loc 1 361 1 view .LVU180
 817 0006 7047     		bx	lr
 818              		.cfi_endproc
 819              	.LFE75:
 821              		.section	.text.timer_interrupt_disable,"ax",%progbits
 822              		.align	1
 823              		.global	timer_interrupt_disable
 824              		.syntax unified
 825              		.thumb
 826              		.thumb_func
 827              		.fpu softvfp
ARM GAS  /tmp/ccP4G5CZ.s 			page 22


 829              	timer_interrupt_disable:
 830              	.LVL46:
 831              	.LFB76:
 362:Drivers/GD32F1x0_standard_peripheral/Source/gd32f1x0_timer.c **** 
 363:Drivers/GD32F1x0_standard_peripheral/Source/gd32f1x0_timer.c **** /*!
 364:Drivers/GD32F1x0_standard_peripheral/Source/gd32f1x0_timer.c ****     \brief      disable the TIMER interrupt
 365:Drivers/GD32F1x0_standard_peripheral/Source/gd32f1x0_timer.c ****     \param[in]  timer_periph: TIMERx(x=0,1,2,5,13,14,15,16)
 366:Drivers/GD32F1x0_standard_peripheral/Source/gd32f1x0_timer.c ****     \param[in]  interrupt: timer interrupt source enable 
 367:Drivers/GD32F1x0_standard_peripheral/Source/gd32f1x0_timer.c ****       \arg        TIMER_INT_UP: update interrupt enable
 368:Drivers/GD32F1x0_standard_peripheral/Source/gd32f1x0_timer.c ****       \arg        TIMER_INT_CH0: channel 0 interrupt enable
 369:Drivers/GD32F1x0_standard_peripheral/Source/gd32f1x0_timer.c ****       \arg        TIMER_INT_CH1: channel 1 interrupt enable
 370:Drivers/GD32F1x0_standard_peripheral/Source/gd32f1x0_timer.c ****       \arg        TIMER_INT_CH2: channel 2 interrupt enable
 371:Drivers/GD32F1x0_standard_peripheral/Source/gd32f1x0_timer.c ****       \arg        TIMER_INT_CH3: channel 3 interrupt enable
 372:Drivers/GD32F1x0_standard_peripheral/Source/gd32f1x0_timer.c ****       \arg        TIMER_INT_CMT: commutation interrupt enable
 373:Drivers/GD32F1x0_standard_peripheral/Source/gd32f1x0_timer.c ****       \arg        TIMER_INT_TRG: trigger interrupt enable
 374:Drivers/GD32F1x0_standard_peripheral/Source/gd32f1x0_timer.c ****       \arg        TIMER_INT_BRK: break interrupt enable
 375:Drivers/GD32F1x0_standard_peripheral/Source/gd32f1x0_timer.c ****     \param[out] none
 376:Drivers/GD32F1x0_standard_peripheral/Source/gd32f1x0_timer.c ****     \retval     none
 377:Drivers/GD32F1x0_standard_peripheral/Source/gd32f1x0_timer.c **** */
 378:Drivers/GD32F1x0_standard_peripheral/Source/gd32f1x0_timer.c **** void timer_interrupt_disable(uint32_t timer_periph, uint32_t interrupt)
 379:Drivers/GD32F1x0_standard_peripheral/Source/gd32f1x0_timer.c **** {
 832              		.loc 1 379 1 is_stmt 1 view -0
 833              		.cfi_startproc
 834              		@ args = 0, pretend = 0, frame = 0
 835              		@ frame_needed = 0, uses_anonymous_args = 0
 836              		@ link register save eliminated.
 380:Drivers/GD32F1x0_standard_peripheral/Source/gd32f1x0_timer.c ****     TIMER_DMAINTEN(timer_periph) &= (uint32_t)(~ interrupt); 
 837              		.loc 1 380 5 view .LVU182
 838              		.loc 1 380 34 is_stmt 0 view .LVU183
 839 0000 C368     		ldr	r3, [r0, #12]
 840 0002 23EA0103 		bic	r3, r3, r1
 841 0006 C360     		str	r3, [r0, #12]
 381:Drivers/GD32F1x0_standard_peripheral/Source/gd32f1x0_timer.c **** }
 842              		.loc 1 381 1 view .LVU184
 843 0008 7047     		bx	lr
 844              		.cfi_endproc
 845              	.LFE76:
 847              		.section	.text.timer_interrupt_flag_get,"ax",%progbits
 848              		.align	1
 849              		.global	timer_interrupt_flag_get
 850              		.syntax unified
 851              		.thumb
 852              		.thumb_func
 853              		.fpu softvfp
 855              	timer_interrupt_flag_get:
 856              	.LVL47:
 857              	.LFB77:
 382:Drivers/GD32F1x0_standard_peripheral/Source/gd32f1x0_timer.c **** 
 383:Drivers/GD32F1x0_standard_peripheral/Source/gd32f1x0_timer.c **** /*!
 384:Drivers/GD32F1x0_standard_peripheral/Source/gd32f1x0_timer.c ****     \brief      get timer interrupt flag
 385:Drivers/GD32F1x0_standard_peripheral/Source/gd32f1x0_timer.c ****     \param[in]  timer_periph: TIMERx(x=0,1,2,5,13,14,15,16)
 386:Drivers/GD32F1x0_standard_peripheral/Source/gd32f1x0_timer.c ****     \param[in]  interrupt: the timer interrupt bits
 387:Drivers/GD32F1x0_standard_peripheral/Source/gd32f1x0_timer.c ****       \arg        TIMER_INT_FLAG_UP: update interrupt flag 
 388:Drivers/GD32F1x0_standard_peripheral/Source/gd32f1x0_timer.c ****       \arg        TIMER_INT_FLAG_CH0: channel 0 interrupt flag 
 389:Drivers/GD32F1x0_standard_peripheral/Source/gd32f1x0_timer.c ****       \arg        TIMER_INT_FLAG_CH1: channel 1 interrupt flag
 390:Drivers/GD32F1x0_standard_peripheral/Source/gd32f1x0_timer.c ****       \arg        TIMER_INT_FLAG_CH2: channel 2 interrupt flag
 391:Drivers/GD32F1x0_standard_peripheral/Source/gd32f1x0_timer.c ****       \arg        TIMER_INT_FLAG_CH3: channel 3 interrupt flag
ARM GAS  /tmp/ccP4G5CZ.s 			page 23


 392:Drivers/GD32F1x0_standard_peripheral/Source/gd32f1x0_timer.c ****       \arg        TIMER_INT_FLAG_CMT: channel commutation interrupt flag 
 393:Drivers/GD32F1x0_standard_peripheral/Source/gd32f1x0_timer.c ****       \arg        TIMER_INT_FLAG_TRG: trigger interrupt flag
 394:Drivers/GD32F1x0_standard_peripheral/Source/gd32f1x0_timer.c ****       \arg        TIMER_INT_FLAG_BRK:  break interrupt flag
 395:Drivers/GD32F1x0_standard_peripheral/Source/gd32f1x0_timer.c ****     \param[out] none
 396:Drivers/GD32F1x0_standard_peripheral/Source/gd32f1x0_timer.c ****     \retval     FlagStatus: SET or RESET
 397:Drivers/GD32F1x0_standard_peripheral/Source/gd32f1x0_timer.c **** */
 398:Drivers/GD32F1x0_standard_peripheral/Source/gd32f1x0_timer.c **** FlagStatus timer_interrupt_flag_get(uint32_t timer_periph, uint32_t interrupt)
 399:Drivers/GD32F1x0_standard_peripheral/Source/gd32f1x0_timer.c **** {
 858              		.loc 1 399 1 is_stmt 1 view -0
 859              		.cfi_startproc
 860              		@ args = 0, pretend = 0, frame = 0
 861              		@ frame_needed = 0, uses_anonymous_args = 0
 862              		@ link register save eliminated.
 400:Drivers/GD32F1x0_standard_peripheral/Source/gd32f1x0_timer.c ****     uint16_t intval = 0U, intenable = 0U;
 863              		.loc 1 400 5 view .LVU186
 401:Drivers/GD32F1x0_standard_peripheral/Source/gd32f1x0_timer.c **** 
 402:Drivers/GD32F1x0_standard_peripheral/Source/gd32f1x0_timer.c ****     intval = (uint16_t)(TIMER_INTF(timer_periph) & interrupt);
 864              		.loc 1 402 5 view .LVU187
 865              		.loc 1 402 25 is_stmt 0 view .LVU188
 866 0000 0369     		ldr	r3, [r0, #16]
 867              		.loc 1 402 14 view .LVU189
 868 0002 89B2     		uxth	r1, r1
 869              	.LVL48:
 403:Drivers/GD32F1x0_standard_peripheral/Source/gd32f1x0_timer.c ****     intenable = (uint16_t)(TIMER_DMAINTEN(timer_periph) & interrupt);
 870              		.loc 1 403 5 is_stmt 1 view .LVU190
 871              		.loc 1 403 28 is_stmt 0 view .LVU191
 872 0004 C268     		ldr	r2, [r0, #12]
 873              	.LVL49:
 404:Drivers/GD32F1x0_standard_peripheral/Source/gd32f1x0_timer.c ****     
 405:Drivers/GD32F1x0_standard_peripheral/Source/gd32f1x0_timer.c ****     if(((uint16_t)RESET != intval ) && (((uint16_t)RESET) != intenable)){
 874              		.loc 1 405 5 is_stmt 1 view .LVU192
 875              		.loc 1 405 7 is_stmt 0 view .LVU193
 876 0006 11EA0300 		ands	r0, r1, r3
 877              	.LVL50:
 878              		.loc 1 405 7 view .LVU194
 879 000a 03D0     		beq	.L53
 880              		.loc 1 405 37 discriminator 1 view .LVU195
 881 000c 1142     		tst	r1, r2
 406:Drivers/GD32F1x0_standard_peripheral/Source/gd32f1x0_timer.c ****         return SET;
 407:Drivers/GD32F1x0_standard_peripheral/Source/gd32f1x0_timer.c ****     }else{
 408:Drivers/GD32F1x0_standard_peripheral/Source/gd32f1x0_timer.c ****         return RESET;
 882              		.loc 1 408 16 discriminator 1 view .LVU196
 883 000e 14BF     		ite	ne
 884 0010 0120     		movne	r0, #1
 885 0012 0020     		moveq	r0, #0
 886              	.L53:
 409:Drivers/GD32F1x0_standard_peripheral/Source/gd32f1x0_timer.c ****     }
 410:Drivers/GD32F1x0_standard_peripheral/Source/gd32f1x0_timer.c **** }
 887              		.loc 1 410 1 view .LVU197
 888 0014 7047     		bx	lr
 889              		.cfi_endproc
 890              	.LFE77:
 892              		.section	.text.timer_interrupt_flag_clear,"ax",%progbits
 893              		.align	1
 894              		.global	timer_interrupt_flag_clear
 895              		.syntax unified
 896              		.thumb
ARM GAS  /tmp/ccP4G5CZ.s 			page 24


 897              		.thumb_func
 898              		.fpu softvfp
 900              	timer_interrupt_flag_clear:
 901              	.LVL51:
 902              	.LFB78:
 411:Drivers/GD32F1x0_standard_peripheral/Source/gd32f1x0_timer.c **** 
 412:Drivers/GD32F1x0_standard_peripheral/Source/gd32f1x0_timer.c **** /*!
 413:Drivers/GD32F1x0_standard_peripheral/Source/gd32f1x0_timer.c ****     \brief      clear TIMER interrupt flag
 414:Drivers/GD32F1x0_standard_peripheral/Source/gd32f1x0_timer.c ****     \param[in]  timer_periph: TIMERx(x=0,1,2,5,13,14,15,16)
 415:Drivers/GD32F1x0_standard_peripheral/Source/gd32f1x0_timer.c ****     \param[in]  interrupt: the timer interrupt bits
 416:Drivers/GD32F1x0_standard_peripheral/Source/gd32f1x0_timer.c ****       \arg        TIMER_INT_FLAG_UP: update interrupt flag 
 417:Drivers/GD32F1x0_standard_peripheral/Source/gd32f1x0_timer.c ****       \arg        TIMER_INT_FLAG_CH0: channel 0 interrupt flag 
 418:Drivers/GD32F1x0_standard_peripheral/Source/gd32f1x0_timer.c ****       \arg        TIMER_INT_FLAG_CH1: channel 1 interrupt flag
 419:Drivers/GD32F1x0_standard_peripheral/Source/gd32f1x0_timer.c ****       \arg        TIMER_INT_FLAG_CH2: channel 2 interrupt flag
 420:Drivers/GD32F1x0_standard_peripheral/Source/gd32f1x0_timer.c ****       \arg        TIMER_INT_FLAG_CH3: channel 3 interrupt flag
 421:Drivers/GD32F1x0_standard_peripheral/Source/gd32f1x0_timer.c ****       \arg        TIMER_INT_FLAG_CMT: channel commutation interrupt flag 
 422:Drivers/GD32F1x0_standard_peripheral/Source/gd32f1x0_timer.c ****       \arg        TIMER_INT_FLAG_TRG: trigger interrupt flag
 423:Drivers/GD32F1x0_standard_peripheral/Source/gd32f1x0_timer.c ****       \arg        TIMER_INT_FLAG_BRK:  break interrupt flag
 424:Drivers/GD32F1x0_standard_peripheral/Source/gd32f1x0_timer.c ****     \param[out] none
 425:Drivers/GD32F1x0_standard_peripheral/Source/gd32f1x0_timer.c ****     \retval     none
 426:Drivers/GD32F1x0_standard_peripheral/Source/gd32f1x0_timer.c **** */
 427:Drivers/GD32F1x0_standard_peripheral/Source/gd32f1x0_timer.c **** void timer_interrupt_flag_clear(uint32_t timer_periph, uint32_t interrupt)
 428:Drivers/GD32F1x0_standard_peripheral/Source/gd32f1x0_timer.c **** {
 903              		.loc 1 428 1 is_stmt 1 view -0
 904              		.cfi_startproc
 905              		@ args = 0, pretend = 0, frame = 0
 906              		@ frame_needed = 0, uses_anonymous_args = 0
 907              		@ link register save eliminated.
 429:Drivers/GD32F1x0_standard_peripheral/Source/gd32f1x0_timer.c ****     TIMER_INTF(timer_periph) &= (uint32_t)(~(uint32_t)interrupt);
 908              		.loc 1 429 5 view .LVU199
 909              		.loc 1 429 30 is_stmt 0 view .LVU200
 910 0000 0369     		ldr	r3, [r0, #16]
 911 0002 23EA0103 		bic	r3, r3, r1
 912 0006 0361     		str	r3, [r0, #16]
 430:Drivers/GD32F1x0_standard_peripheral/Source/gd32f1x0_timer.c **** }
 913              		.loc 1 430 1 view .LVU201
 914 0008 7047     		bx	lr
 915              		.cfi_endproc
 916              	.LFE78:
 918              		.section	.text.timer_flag_get,"ax",%progbits
 919              		.align	1
 920              		.global	timer_flag_get
 921              		.syntax unified
 922              		.thumb
 923              		.thumb_func
 924              		.fpu softvfp
 926              	timer_flag_get:
 927              	.LVL52:
 928              	.LFB79:
 431:Drivers/GD32F1x0_standard_peripheral/Source/gd32f1x0_timer.c **** 
 432:Drivers/GD32F1x0_standard_peripheral/Source/gd32f1x0_timer.c **** /*!
 433:Drivers/GD32F1x0_standard_peripheral/Source/gd32f1x0_timer.c ****     \brief      get TIMER flags
 434:Drivers/GD32F1x0_standard_peripheral/Source/gd32f1x0_timer.c ****     \param[in]  timer_periph: TIMERx(x=0,1,2,5,13,14,15,16)
 435:Drivers/GD32F1x0_standard_peripheral/Source/gd32f1x0_timer.c ****     \param[in]  flag: the timer interrupt flags
 436:Drivers/GD32F1x0_standard_peripheral/Source/gd32f1x0_timer.c ****       \arg        TIMER_FLAG_UP: update flag
 437:Drivers/GD32F1x0_standard_peripheral/Source/gd32f1x0_timer.c ****       \arg        TIMER_FLAG_CH0: channel 0 flag
 438:Drivers/GD32F1x0_standard_peripheral/Source/gd32f1x0_timer.c ****       \arg        TIMER_FLAG_CH1: channel 1 flag
ARM GAS  /tmp/ccP4G5CZ.s 			page 25


 439:Drivers/GD32F1x0_standard_peripheral/Source/gd32f1x0_timer.c ****       \arg        TIMER_FLAG_CH2: channel 2 flag
 440:Drivers/GD32F1x0_standard_peripheral/Source/gd32f1x0_timer.c ****       \arg        TIMER_FLAG_CH3: channel 3 flag
 441:Drivers/GD32F1x0_standard_peripheral/Source/gd32f1x0_timer.c ****       \arg        TIMER_FLAG_CMT: channel commutation flag 
 442:Drivers/GD32F1x0_standard_peripheral/Source/gd32f1x0_timer.c ****       \arg        TIMER_FLAG_TRG: trigger flag 
 443:Drivers/GD32F1x0_standard_peripheral/Source/gd32f1x0_timer.c ****       \arg        TIMER_FLAG_BRK: break flag
 444:Drivers/GD32F1x0_standard_peripheral/Source/gd32f1x0_timer.c ****       \arg        TIMER_FLAG_CH0O: channel 0 overcapture flag
 445:Drivers/GD32F1x0_standard_peripheral/Source/gd32f1x0_timer.c ****       \arg        TIMER_FLAG_CH1O: channel 1 overcapture flag
 446:Drivers/GD32F1x0_standard_peripheral/Source/gd32f1x0_timer.c ****       \arg        TIMER_FLAG_CH2O: channel 2 overcapture flag
 447:Drivers/GD32F1x0_standard_peripheral/Source/gd32f1x0_timer.c ****       \arg        TIMER_FLAG_CH3O: channel 3 overcapture flag
 448:Drivers/GD32F1x0_standard_peripheral/Source/gd32f1x0_timer.c ****     \param[out] none
 449:Drivers/GD32F1x0_standard_peripheral/Source/gd32f1x0_timer.c ****     \retval     FlagStatus: SET or RESET
 450:Drivers/GD32F1x0_standard_peripheral/Source/gd32f1x0_timer.c **** */
 451:Drivers/GD32F1x0_standard_peripheral/Source/gd32f1x0_timer.c **** FlagStatus timer_flag_get(uint32_t timer_periph, uint32_t flag)
 452:Drivers/GD32F1x0_standard_peripheral/Source/gd32f1x0_timer.c **** {
 929              		.loc 1 452 1 is_stmt 1 view -0
 930              		.cfi_startproc
 931              		@ args = 0, pretend = 0, frame = 0
 932              		@ frame_needed = 0, uses_anonymous_args = 0
 933              		@ link register save eliminated.
 453:Drivers/GD32F1x0_standard_peripheral/Source/gd32f1x0_timer.c ****     if(((uint16_t)RESET) != ((uint16_t)(TIMER_INTF(timer_periph) & flag))){
 934              		.loc 1 453 5 view .LVU203
 935              		.loc 1 453 41 is_stmt 0 view .LVU204
 936 0000 0069     		ldr	r0, [r0, #16]
 937              	.LVL53:
 938              		.loc 1 453 30 view .LVU205
 939 0002 0840     		ands	r0, r0, r1
 940              		.loc 1 453 7 view .LVU206
 941 0004 80B2     		uxth	r0, r0
 454:Drivers/GD32F1x0_standard_peripheral/Source/gd32f1x0_timer.c ****         return SET;
 455:Drivers/GD32F1x0_standard_peripheral/Source/gd32f1x0_timer.c ****     }else{
 456:Drivers/GD32F1x0_standard_peripheral/Source/gd32f1x0_timer.c ****         return RESET;
 457:Drivers/GD32F1x0_standard_peripheral/Source/gd32f1x0_timer.c ****     }
 458:Drivers/GD32F1x0_standard_peripheral/Source/gd32f1x0_timer.c **** }
 942              		.loc 1 458 1 view .LVU207
 943 0006 0038     		subs	r0, r0, #0
 944 0008 18BF     		it	ne
 945 000a 0120     		movne	r0, #1
 946 000c 7047     		bx	lr
 947              		.cfi_endproc
 948              	.LFE79:
 950              		.section	.text.timer_flag_clear,"ax",%progbits
 951              		.align	1
 952              		.global	timer_flag_clear
 953              		.syntax unified
 954              		.thumb
 955              		.thumb_func
 956              		.fpu softvfp
 958              	timer_flag_clear:
 959              	.LFB124:
 960              		.cfi_startproc
 961              		@ args = 0, pretend = 0, frame = 0
 962              		@ frame_needed = 0, uses_anonymous_args = 0
 963              		@ link register save eliminated.
 964 0000 FFF7FEBF 		b	timer_interrupt_flag_clear
 965              		.cfi_endproc
 966              	.LFE124:
 968              		.section	.text.timer_dma_enable,"ax",%progbits
ARM GAS  /tmp/ccP4G5CZ.s 			page 26


 969              		.align	1
 970              		.global	timer_dma_enable
 971              		.syntax unified
 972              		.thumb
 973              		.thumb_func
 974              		.fpu softvfp
 976              	timer_dma_enable:
 977              	.LVL54:
 978              	.LFB81:
 459:Drivers/GD32F1x0_standard_peripheral/Source/gd32f1x0_timer.c **** 
 460:Drivers/GD32F1x0_standard_peripheral/Source/gd32f1x0_timer.c **** /*!
 461:Drivers/GD32F1x0_standard_peripheral/Source/gd32f1x0_timer.c ****     \brief      clear TIMER flags
 462:Drivers/GD32F1x0_standard_peripheral/Source/gd32f1x0_timer.c ****     \param[in]  timer_periph: TIMERx(x=0,1,2,5,13,14,15,16)
 463:Drivers/GD32F1x0_standard_peripheral/Source/gd32f1x0_timer.c ****     \param[in]  flag: the timer interrupt flags
 464:Drivers/GD32F1x0_standard_peripheral/Source/gd32f1x0_timer.c ****       \arg        TIMER_FLAG_UP: update flag
 465:Drivers/GD32F1x0_standard_peripheral/Source/gd32f1x0_timer.c ****       \arg        TIMER_FLAG_CH0: channel 0 flag
 466:Drivers/GD32F1x0_standard_peripheral/Source/gd32f1x0_timer.c ****       \arg        TIMER_FLAG_CH1: channel 1 flag
 467:Drivers/GD32F1x0_standard_peripheral/Source/gd32f1x0_timer.c ****       \arg        TIMER_FLAG_CH2: channel 2 flag
 468:Drivers/GD32F1x0_standard_peripheral/Source/gd32f1x0_timer.c ****       \arg        TIMER_FLAG_CH3: channel 3 flag
 469:Drivers/GD32F1x0_standard_peripheral/Source/gd32f1x0_timer.c ****       \arg        TIMER_FLAG_CMT: channel commutation flag 
 470:Drivers/GD32F1x0_standard_peripheral/Source/gd32f1x0_timer.c ****       \arg        TIMER_FLAG_TRG: trigger flag 
 471:Drivers/GD32F1x0_standard_peripheral/Source/gd32f1x0_timer.c ****       \arg        TIMER_FLAG_BRK: break flag
 472:Drivers/GD32F1x0_standard_peripheral/Source/gd32f1x0_timer.c ****       \arg        TIMER_FLAG_CH0O: channel 0 overcapture flag
 473:Drivers/GD32F1x0_standard_peripheral/Source/gd32f1x0_timer.c ****       \arg        TIMER_FLAG_CH1O: channel 1 overcapture flag
 474:Drivers/GD32F1x0_standard_peripheral/Source/gd32f1x0_timer.c ****       \arg        TIMER_FLAG_CH2O: channel 2 overcapture flag
 475:Drivers/GD32F1x0_standard_peripheral/Source/gd32f1x0_timer.c ****       \arg        TIMER_FLAG_CH3O: channel 3 overcapture flag
 476:Drivers/GD32F1x0_standard_peripheral/Source/gd32f1x0_timer.c ****     \param[out] none
 477:Drivers/GD32F1x0_standard_peripheral/Source/gd32f1x0_timer.c ****     \retval     none
 478:Drivers/GD32F1x0_standard_peripheral/Source/gd32f1x0_timer.c **** */
 479:Drivers/GD32F1x0_standard_peripheral/Source/gd32f1x0_timer.c **** void timer_flag_clear(uint32_t timer_periph, uint32_t flag)
 480:Drivers/GD32F1x0_standard_peripheral/Source/gd32f1x0_timer.c **** {
 481:Drivers/GD32F1x0_standard_peripheral/Source/gd32f1x0_timer.c ****     TIMER_INTF(timer_periph) &= (uint32_t)(~(uint32_t)flag);
 482:Drivers/GD32F1x0_standard_peripheral/Source/gd32f1x0_timer.c **** }
 483:Drivers/GD32F1x0_standard_peripheral/Source/gd32f1x0_timer.c **** 
 484:Drivers/GD32F1x0_standard_peripheral/Source/gd32f1x0_timer.c **** /*!
 485:Drivers/GD32F1x0_standard_peripheral/Source/gd32f1x0_timer.c ****     \brief      enable the TIMER DMA
 486:Drivers/GD32F1x0_standard_peripheral/Source/gd32f1x0_timer.c ****     \param[in]  timer_periph: TIMERx(x=0,1,2,5,14,15,16)
 487:Drivers/GD32F1x0_standard_peripheral/Source/gd32f1x0_timer.c ****     \param[in]  dma: timer DMA source enable 
 488:Drivers/GD32F1x0_standard_peripheral/Source/gd32f1x0_timer.c ****       \arg        TIMER_DMA_UPD:  update DMA enable
 489:Drivers/GD32F1x0_standard_peripheral/Source/gd32f1x0_timer.c ****       \arg        TIMER_DMA_CH0D: channel 0 DMA enable
 490:Drivers/GD32F1x0_standard_peripheral/Source/gd32f1x0_timer.c ****       \arg        TIMER_DMA_CH1D: channel 1 DMA enable
 491:Drivers/GD32F1x0_standard_peripheral/Source/gd32f1x0_timer.c ****       \arg        TIMER_DMA_CH2D: channel 2 DMA enable
 492:Drivers/GD32F1x0_standard_peripheral/Source/gd32f1x0_timer.c ****       \arg        TIMER_DMA_CH3D: channel 3 DMA enable
 493:Drivers/GD32F1x0_standard_peripheral/Source/gd32f1x0_timer.c ****       \arg        TIMER_DMA_CMTD: channel commutation DMA request enable
 494:Drivers/GD32F1x0_standard_peripheral/Source/gd32f1x0_timer.c ****       \arg        TIMER_DMA_TRGD: trigger DMA enable
 495:Drivers/GD32F1x0_standard_peripheral/Source/gd32f1x0_timer.c ****     \param[out] none
 496:Drivers/GD32F1x0_standard_peripheral/Source/gd32f1x0_timer.c ****     \retval     none
 497:Drivers/GD32F1x0_standard_peripheral/Source/gd32f1x0_timer.c **** */
 498:Drivers/GD32F1x0_standard_peripheral/Source/gd32f1x0_timer.c **** void timer_dma_enable(uint32_t timer_periph, uint16_t dma)
 499:Drivers/GD32F1x0_standard_peripheral/Source/gd32f1x0_timer.c **** {
 979              		.loc 1 499 1 is_stmt 1 view -0
 980              		.cfi_startproc
 981              		@ args = 0, pretend = 0, frame = 0
 982              		@ frame_needed = 0, uses_anonymous_args = 0
 983              		@ link register save eliminated.
 500:Drivers/GD32F1x0_standard_peripheral/Source/gd32f1x0_timer.c ****     TIMER_DMAINTEN(timer_periph) |= (uint32_t) dma; 
 984              		.loc 1 500 5 view .LVU209
ARM GAS  /tmp/ccP4G5CZ.s 			page 27


 985              		.loc 1 500 34 is_stmt 0 view .LVU210
 986 0000 C368     		ldr	r3, [r0, #12]
 987 0002 1943     		orrs	r1, r1, r3
 988              	.LVL55:
 989              		.loc 1 500 34 view .LVU211
 990 0004 C160     		str	r1, [r0, #12]
 501:Drivers/GD32F1x0_standard_peripheral/Source/gd32f1x0_timer.c **** }
 991              		.loc 1 501 1 view .LVU212
 992 0006 7047     		bx	lr
 993              		.cfi_endproc
 994              	.LFE81:
 996              		.section	.text.timer_dma_disable,"ax",%progbits
 997              		.align	1
 998              		.global	timer_dma_disable
 999              		.syntax unified
 1000              		.thumb
 1001              		.thumb_func
 1002              		.fpu softvfp
 1004              	timer_dma_disable:
 1005              	.LVL56:
 1006              	.LFB82:
 502:Drivers/GD32F1x0_standard_peripheral/Source/gd32f1x0_timer.c **** 
 503:Drivers/GD32F1x0_standard_peripheral/Source/gd32f1x0_timer.c **** /*!
 504:Drivers/GD32F1x0_standard_peripheral/Source/gd32f1x0_timer.c ****     \brief      disable the TIMER DMA
 505:Drivers/GD32F1x0_standard_peripheral/Source/gd32f1x0_timer.c ****     \param[in]  timer_periph: TIMERx(x=0,1,2,5,14,15,16)
 506:Drivers/GD32F1x0_standard_peripheral/Source/gd32f1x0_timer.c ****     \param[in]  dma: timer DMA source enable 
 507:Drivers/GD32F1x0_standard_peripheral/Source/gd32f1x0_timer.c ****       \arg        TIMER_DMA_UPD:  update DMA enable
 508:Drivers/GD32F1x0_standard_peripheral/Source/gd32f1x0_timer.c ****       \arg        TIMER_DMA_CH0D: channel 0 DMA enable
 509:Drivers/GD32F1x0_standard_peripheral/Source/gd32f1x0_timer.c ****       \arg        TIMER_DMA_CH1D: channel 1 DMA enable
 510:Drivers/GD32F1x0_standard_peripheral/Source/gd32f1x0_timer.c ****       \arg        TIMER_DMA_CH2D: channel 2 DMA enable
 511:Drivers/GD32F1x0_standard_peripheral/Source/gd32f1x0_timer.c ****       \arg        TIMER_DMA_CH3D: channel 3 DMA enable
 512:Drivers/GD32F1x0_standard_peripheral/Source/gd32f1x0_timer.c ****       \arg        TIMER_DMA_CMTD: channel commutation DMA request enable
 513:Drivers/GD32F1x0_standard_peripheral/Source/gd32f1x0_timer.c ****       \arg        TIMER_DMA_TRGD: trigger DMA enable
 514:Drivers/GD32F1x0_standard_peripheral/Source/gd32f1x0_timer.c ****     \param[out] none
 515:Drivers/GD32F1x0_standard_peripheral/Source/gd32f1x0_timer.c ****     \retval     none
 516:Drivers/GD32F1x0_standard_peripheral/Source/gd32f1x0_timer.c **** */
 517:Drivers/GD32F1x0_standard_peripheral/Source/gd32f1x0_timer.c **** void timer_dma_disable(uint32_t timer_periph, uint16_t dma)
 518:Drivers/GD32F1x0_standard_peripheral/Source/gd32f1x0_timer.c **** {
 1007              		.loc 1 518 1 is_stmt 1 view -0
 1008              		.cfi_startproc
 1009              		@ args = 0, pretend = 0, frame = 0
 1010              		@ frame_needed = 0, uses_anonymous_args = 0
 1011              		@ link register save eliminated.
 519:Drivers/GD32F1x0_standard_peripheral/Source/gd32f1x0_timer.c ****     TIMER_DMAINTEN(timer_periph) &= ~(uint32_t)dma; 
 1012              		.loc 1 519 5 view .LVU214
 1013              		.loc 1 519 34 is_stmt 0 view .LVU215
 1014 0000 C368     		ldr	r3, [r0, #12]
 1015 0002 23EA0103 		bic	r3, r3, r1
 1016 0006 C360     		str	r3, [r0, #12]
 520:Drivers/GD32F1x0_standard_peripheral/Source/gd32f1x0_timer.c **** }
 1017              		.loc 1 520 1 view .LVU216
 1018 0008 7047     		bx	lr
 1019              		.cfi_endproc
 1020              	.LFE82:
 1022              		.section	.text.timer_channel_dma_request_source_select,"ax",%progbits
 1023              		.align	1
 1024              		.global	timer_channel_dma_request_source_select
ARM GAS  /tmp/ccP4G5CZ.s 			page 28


 1025              		.syntax unified
 1026              		.thumb
 1027              		.thumb_func
 1028              		.fpu softvfp
 1030              	timer_channel_dma_request_source_select:
 1031              	.LVL57:
 1032              	.LFB83:
 521:Drivers/GD32F1x0_standard_peripheral/Source/gd32f1x0_timer.c **** 
 522:Drivers/GD32F1x0_standard_peripheral/Source/gd32f1x0_timer.c **** /*!
 523:Drivers/GD32F1x0_standard_peripheral/Source/gd32f1x0_timer.c ****     \brief      channel DMA request source selection
 524:Drivers/GD32F1x0_standard_peripheral/Source/gd32f1x0_timer.c ****     \param[in]  timer_periph: TIMERx(x=0,1,2,5,14,15,16)
 525:Drivers/GD32F1x0_standard_peripheral/Source/gd32f1x0_timer.c ****     \param[in]  dma_request: channel DMA request source selection
 526:Drivers/GD32F1x0_standard_peripheral/Source/gd32f1x0_timer.c ****        \arg        TIMER_DMAREQUEST_CHANNELEVENT: DMA request of channel y is sent when channel y e
 527:Drivers/GD32F1x0_standard_peripheral/Source/gd32f1x0_timer.c ****        \arg        TIMER_DMAREQUEST_UPDATEEVENT: DMA request of channel y is sent when update event
 528:Drivers/GD32F1x0_standard_peripheral/Source/gd32f1x0_timer.c ****     \param[out] none
 529:Drivers/GD32F1x0_standard_peripheral/Source/gd32f1x0_timer.c ****     \retval     none
 530:Drivers/GD32F1x0_standard_peripheral/Source/gd32f1x0_timer.c **** */
 531:Drivers/GD32F1x0_standard_peripheral/Source/gd32f1x0_timer.c **** void timer_channel_dma_request_source_select(uint32_t timer_periph, uint8_t dma_request)
 532:Drivers/GD32F1x0_standard_peripheral/Source/gd32f1x0_timer.c **** {
 1033              		.loc 1 532 1 is_stmt 1 view -0
 1034              		.cfi_startproc
 1035              		@ args = 0, pretend = 0, frame = 0
 1036              		@ frame_needed = 0, uses_anonymous_args = 0
 1037              		@ link register save eliminated.
 533:Drivers/GD32F1x0_standard_peripheral/Source/gd32f1x0_timer.c ****     if(TIMER_DMAREQUEST_UPDATEEVENT == dma_request){
 1038              		.loc 1 533 5 view .LVU218
 1039              		.loc 1 533 7 is_stmt 0 view .LVU219
 1040 0000 21B9     		cbnz	r1, .L61
 534:Drivers/GD32F1x0_standard_peripheral/Source/gd32f1x0_timer.c ****         TIMER_CTL1(timer_periph) |= (uint32_t)TIMER_CTL1_DMAS;
 1041              		.loc 1 534 9 is_stmt 1 view .LVU220
 1042              		.loc 1 534 34 is_stmt 0 view .LVU221
 1043 0002 4368     		ldr	r3, [r0, #4]
 1044 0004 43F00803 		orr	r3, r3, #8
 1045              	.L63:
 535:Drivers/GD32F1x0_standard_peripheral/Source/gd32f1x0_timer.c ****     }else if(TIMER_DMAREQUEST_CHANNELEVENT == dma_request){
 536:Drivers/GD32F1x0_standard_peripheral/Source/gd32f1x0_timer.c ****         TIMER_CTL1(timer_periph) &= ~(uint32_t)TIMER_CTL1_DMAS;
 1046              		.loc 1 536 34 view .LVU222
 1047 0008 4360     		str	r3, [r0, #4]
 537:Drivers/GD32F1x0_standard_peripheral/Source/gd32f1x0_timer.c ****     }else{
 538:Drivers/GD32F1x0_standard_peripheral/Source/gd32f1x0_timer.c ****     }
 1048              		.loc 1 538 5 is_stmt 1 view .LVU223
 1049              	.L60:
 539:Drivers/GD32F1x0_standard_peripheral/Source/gd32f1x0_timer.c **** }
 1050              		.loc 1 539 1 is_stmt 0 view .LVU224
 1051 000a 7047     		bx	lr
 1052              	.L61:
 535:Drivers/GD32F1x0_standard_peripheral/Source/gd32f1x0_timer.c ****     }else if(TIMER_DMAREQUEST_CHANNELEVENT == dma_request){
 1053              		.loc 1 535 11 is_stmt 1 view .LVU225
 535:Drivers/GD32F1x0_standard_peripheral/Source/gd32f1x0_timer.c ****     }else if(TIMER_DMAREQUEST_CHANNELEVENT == dma_request){
 1054              		.loc 1 535 13 is_stmt 0 view .LVU226
 1055 000c 0129     		cmp	r1, #1
 1056 000e FCD1     		bne	.L60
 536:Drivers/GD32F1x0_standard_peripheral/Source/gd32f1x0_timer.c ****     }else{
 1057              		.loc 1 536 9 is_stmt 1 view .LVU227
 536:Drivers/GD32F1x0_standard_peripheral/Source/gd32f1x0_timer.c ****     }else{
 1058              		.loc 1 536 34 is_stmt 0 view .LVU228
 1059 0010 4368     		ldr	r3, [r0, #4]
ARM GAS  /tmp/ccP4G5CZ.s 			page 29


 1060 0012 23F00803 		bic	r3, r3, #8
 1061 0016 F7E7     		b	.L63
 1062              		.cfi_endproc
 1063              	.LFE83:
 1065              		.section	.text.timer_dma_transfer_config,"ax",%progbits
 1066              		.align	1
 1067              		.global	timer_dma_transfer_config
 1068              		.syntax unified
 1069              		.thumb
 1070              		.thumb_func
 1071              		.fpu softvfp
 1073              	timer_dma_transfer_config:
 1074              	.LVL58:
 1075              	.LFB84:
 540:Drivers/GD32F1x0_standard_peripheral/Source/gd32f1x0_timer.c **** 
 541:Drivers/GD32F1x0_standard_peripheral/Source/gd32f1x0_timer.c **** /*!
 542:Drivers/GD32F1x0_standard_peripheral/Source/gd32f1x0_timer.c ****     \brief      configure the TIMER DMA transfer
 543:Drivers/GD32F1x0_standard_peripheral/Source/gd32f1x0_timer.c ****     \param[in]  timer_periph: TIMERx(x=0,1,2,5,14,15,16)
 544:Drivers/GD32F1x0_standard_peripheral/Source/gd32f1x0_timer.c ****     \param[in]  dma_baseaddr: 
 545:Drivers/GD32F1x0_standard_peripheral/Source/gd32f1x0_timer.c ****        \arg        TIMER_DMACFG_DMATA_CTL0: DMA transfer address is TIMER_CTL0
 546:Drivers/GD32F1x0_standard_peripheral/Source/gd32f1x0_timer.c ****        \arg        TIMER_DMACFG_DMATA_CTL1: DMA transfer address is TIMER_CTL1
 547:Drivers/GD32F1x0_standard_peripheral/Source/gd32f1x0_timer.c ****        \arg        TIMER_DMACFG_DMATA_SMCFG: DMA transfer address is TIMER_SMCFG
 548:Drivers/GD32F1x0_standard_peripheral/Source/gd32f1x0_timer.c ****        \arg        TIMER_DMACFG_DMATA_DMAINTEN: DMA transfer address is TIMER_DMAINTEN
 549:Drivers/GD32F1x0_standard_peripheral/Source/gd32f1x0_timer.c ****        \arg        TIMER_DMACFG_DMATA_INTF: DMA transfer address is TIMER_INTF
 550:Drivers/GD32F1x0_standard_peripheral/Source/gd32f1x0_timer.c ****        \arg        TIMER_DMACFG_DMATA_SWEVG: DMA transfer address is TIMER_SWEVG
 551:Drivers/GD32F1x0_standard_peripheral/Source/gd32f1x0_timer.c ****        \arg        TIMER_DMACFG_DMATA_CHCTL0: DMA transfer address is TIMER_CHCTL0
 552:Drivers/GD32F1x0_standard_peripheral/Source/gd32f1x0_timer.c ****        \arg        TIMER_DMACFG_DMATA_CHCTL1: DMA transfer address is TIMER_CHCTL1
 553:Drivers/GD32F1x0_standard_peripheral/Source/gd32f1x0_timer.c ****        \arg        TIMER_DMACFG_DMATA_CHCTL2: DMA transfer address is TIMER_CHCTL2
 554:Drivers/GD32F1x0_standard_peripheral/Source/gd32f1x0_timer.c ****        \arg        TIMER_DMACFG_DMATA_CNT: DMA transfer address is TIMER_CNT
 555:Drivers/GD32F1x0_standard_peripheral/Source/gd32f1x0_timer.c ****        \arg        TIMER_DMACFG_DMATA_PSC: DMA transfer address is TIMER_PSC
 556:Drivers/GD32F1x0_standard_peripheral/Source/gd32f1x0_timer.c ****        \arg        TIMER_DMACFG_DMATA_CAR: DMA transfer address is TIMER_CAR
 557:Drivers/GD32F1x0_standard_peripheral/Source/gd32f1x0_timer.c ****        \arg        TIMER_DMACFG_DMATA_CREP: DMA transfer address is TIMER_CREP
 558:Drivers/GD32F1x0_standard_peripheral/Source/gd32f1x0_timer.c ****        \arg        TIMER_DMACFG_DMATA_CH0CV: DMA transfer address is TIMER_CH0CV
 559:Drivers/GD32F1x0_standard_peripheral/Source/gd32f1x0_timer.c ****        \arg        TIMER_DMACFG_DMATA_CH1CV: DMA transfer address is TIMER_CH1CV
 560:Drivers/GD32F1x0_standard_peripheral/Source/gd32f1x0_timer.c ****        \arg        TIMER_DMACFG_DMATA_CH2CV: DMA transfer address is TIMER_CH2CV
 561:Drivers/GD32F1x0_standard_peripheral/Source/gd32f1x0_timer.c ****        \arg        TIMER_DMACFG_DMATA_CH3CV: DMA transfer address is TIMER_CH3CV
 562:Drivers/GD32F1x0_standard_peripheral/Source/gd32f1x0_timer.c ****        \arg        TIMER_DMACFG_DMATA_CCHP: DMA transfer address is TIMER_CCHP
 563:Drivers/GD32F1x0_standard_peripheral/Source/gd32f1x0_timer.c ****        \arg        TIMER_DMACFG_DMATA_DMACFG: DMA transfer address is TIMER_DMACFG
 564:Drivers/GD32F1x0_standard_peripheral/Source/gd32f1x0_timer.c ****        \arg        TIMER_DMACFG_DMATA_DMATB: DMA transfer address is TIMER_DMATB
 565:Drivers/GD32F1x0_standard_peripheral/Source/gd32f1x0_timer.c ****     \param[in]  dma_lenth:
 566:Drivers/GD32F1x0_standard_peripheral/Source/gd32f1x0_timer.c ****        \arg        TIMER_DMACFG_DMATC_xTRANSFER(x=1..18): DMA transfer x time
 567:Drivers/GD32F1x0_standard_peripheral/Source/gd32f1x0_timer.c ****     \param[out] none
 568:Drivers/GD32F1x0_standard_peripheral/Source/gd32f1x0_timer.c ****     \retval     none
 569:Drivers/GD32F1x0_standard_peripheral/Source/gd32f1x0_timer.c **** */
 570:Drivers/GD32F1x0_standard_peripheral/Source/gd32f1x0_timer.c **** void timer_dma_transfer_config(uint32_t timer_periph, uint32_t dma_baseaddr, uint32_t dma_lenth)
 571:Drivers/GD32F1x0_standard_peripheral/Source/gd32f1x0_timer.c **** {
 1076              		.loc 1 571 1 is_stmt 1 view -0
 1077              		.cfi_startproc
 1078              		@ args = 0, pretend = 0, frame = 0
 1079              		@ frame_needed = 0, uses_anonymous_args = 0
 1080              		@ link register save eliminated.
 572:Drivers/GD32F1x0_standard_peripheral/Source/gd32f1x0_timer.c ****     TIMER_DMACFG(timer_periph) &= (uint32_t)(~(TIMER_DMACFG_DMATA | TIMER_DMACFG_DMATC));
 1081              		.loc 1 572 5 view .LVU230
 1082              		.loc 1 572 32 is_stmt 0 view .LVU231
 1083 0000 836C     		ldr	r3, [r0, #72]
 573:Drivers/GD32F1x0_standard_peripheral/Source/gd32f1x0_timer.c ****     TIMER_DMACFG(timer_periph) |= (uint32_t)(dma_baseaddr | dma_lenth);
 1084              		.loc 1 573 59 view .LVU232
ARM GAS  /tmp/ccP4G5CZ.s 			page 30


 1085 0002 1143     		orrs	r1, r1, r2
 1086              	.LVL59:
 572:Drivers/GD32F1x0_standard_peripheral/Source/gd32f1x0_timer.c ****     TIMER_DMACFG(timer_periph) &= (uint32_t)(~(TIMER_DMACFG_DMATA | TIMER_DMACFG_DMATC));
 1087              		.loc 1 572 32 view .LVU233
 1088 0004 23F4F853 		bic	r3, r3, #7936
 1089 0008 23F01F03 		bic	r3, r3, #31
 1090 000c 8364     		str	r3, [r0, #72]
 1091              		.loc 1 573 5 is_stmt 1 view .LVU234
 1092              		.loc 1 573 32 is_stmt 0 view .LVU235
 1093 000e 836C     		ldr	r3, [r0, #72]
 1094 0010 1943     		orrs	r1, r1, r3
 1095 0012 8164     		str	r1, [r0, #72]
 574:Drivers/GD32F1x0_standard_peripheral/Source/gd32f1x0_timer.c **** }
 1096              		.loc 1 574 1 view .LVU236
 1097 0014 7047     		bx	lr
 1098              		.cfi_endproc
 1099              	.LFE84:
 1101              		.section	.text.timer_event_software_generate,"ax",%progbits
 1102              		.align	1
 1103              		.global	timer_event_software_generate
 1104              		.syntax unified
 1105              		.thumb
 1106              		.thumb_func
 1107              		.fpu softvfp
 1109              	timer_event_software_generate:
 1110              	.LVL60:
 1111              	.LFB85:
 575:Drivers/GD32F1x0_standard_peripheral/Source/gd32f1x0_timer.c **** 
 576:Drivers/GD32F1x0_standard_peripheral/Source/gd32f1x0_timer.c **** /*!
 577:Drivers/GD32F1x0_standard_peripheral/Source/gd32f1x0_timer.c ****     \brief      software generate events 
 578:Drivers/GD32F1x0_standard_peripheral/Source/gd32f1x0_timer.c ****     \param[in]  timer_periph: TIMERx(x=0,1,2,5,13,14,15,16)
 579:Drivers/GD32F1x0_standard_peripheral/Source/gd32f1x0_timer.c ****     \param[in]  event: the timer software event generation sources
 580:Drivers/GD32F1x0_standard_peripheral/Source/gd32f1x0_timer.c ****       \arg        TIMER_EVENT_SRC_UPG: update event generation 
 581:Drivers/GD32F1x0_standard_peripheral/Source/gd32f1x0_timer.c ****       \arg        TIMER_EVENT_SRC_CH0G: channel 0 capture or compare event generation 
 582:Drivers/GD32F1x0_standard_peripheral/Source/gd32f1x0_timer.c ****       \arg        TIMER_EVENT_SRC_CH1G: channel 1 capture or compare event generation 
 583:Drivers/GD32F1x0_standard_peripheral/Source/gd32f1x0_timer.c ****       \arg        TIMER_EVENT_SRC_CH2G: channel 2 capture or compare event generation 
 584:Drivers/GD32F1x0_standard_peripheral/Source/gd32f1x0_timer.c ****       \arg        TIMER_EVENT_SRC_CH3G: channel 3 capture or compare event generation 
 585:Drivers/GD32F1x0_standard_peripheral/Source/gd32f1x0_timer.c ****       \arg        TIMER_EVENT_SRC_CMTG: channel commutation event generation 
 586:Drivers/GD32F1x0_standard_peripheral/Source/gd32f1x0_timer.c ****       \arg        TIMER_EVENT_SRC_TRGG: trigger event generation 
 587:Drivers/GD32F1x0_standard_peripheral/Source/gd32f1x0_timer.c ****       \arg        TIMER_EVENT_SRC_BRKG:  break event generation 
 588:Drivers/GD32F1x0_standard_peripheral/Source/gd32f1x0_timer.c ****     \param[out] none
 589:Drivers/GD32F1x0_standard_peripheral/Source/gd32f1x0_timer.c ****     \retval     none
 590:Drivers/GD32F1x0_standard_peripheral/Source/gd32f1x0_timer.c **** */
 591:Drivers/GD32F1x0_standard_peripheral/Source/gd32f1x0_timer.c **** void timer_event_software_generate(uint32_t timer_periph, uint16_t event)
 592:Drivers/GD32F1x0_standard_peripheral/Source/gd32f1x0_timer.c **** {
 1112              		.loc 1 592 1 is_stmt 1 view -0
 1113              		.cfi_startproc
 1114              		@ args = 0, pretend = 0, frame = 0
 1115              		@ frame_needed = 0, uses_anonymous_args = 0
 1116              		@ link register save eliminated.
 593:Drivers/GD32F1x0_standard_peripheral/Source/gd32f1x0_timer.c ****     TIMER_SWEVG(timer_periph) |= (uint32_t)event;
 1117              		.loc 1 593 5 view .LVU238
 1118              		.loc 1 593 31 is_stmt 0 view .LVU239
 1119 0000 4369     		ldr	r3, [r0, #20]
 1120 0002 1943     		orrs	r1, r1, r3
 1121              	.LVL61:
 1122              		.loc 1 593 31 view .LVU240
ARM GAS  /tmp/ccP4G5CZ.s 			page 31


 1123 0004 4161     		str	r1, [r0, #20]
 594:Drivers/GD32F1x0_standard_peripheral/Source/gd32f1x0_timer.c **** }
 1124              		.loc 1 594 1 view .LVU241
 1125 0006 7047     		bx	lr
 1126              		.cfi_endproc
 1127              	.LFE85:
 1129              		.section	.text.timer_break_config,"ax",%progbits
 1130              		.align	1
 1131              		.global	timer_break_config
 1132              		.syntax unified
 1133              		.thumb
 1134              		.thumb_func
 1135              		.fpu softvfp
 1137              	timer_break_config:
 1138              	.LVL62:
 1139              	.LFB86:
 595:Drivers/GD32F1x0_standard_peripheral/Source/gd32f1x0_timer.c **** 
 596:Drivers/GD32F1x0_standard_peripheral/Source/gd32f1x0_timer.c **** /*!
 597:Drivers/GD32F1x0_standard_peripheral/Source/gd32f1x0_timer.c ****     \brief      configure TIMER break function 
 598:Drivers/GD32F1x0_standard_peripheral/Source/gd32f1x0_timer.c ****     \param[in]  timer_periph: TIMERx(x=0,14,15,16)
 599:Drivers/GD32F1x0_standard_peripheral/Source/gd32f1x0_timer.c ****     \param[in]  breakpara: TIMER break parameter struct
 600:Drivers/GD32F1x0_standard_peripheral/Source/gd32f1x0_timer.c ****                 runoffstate: TIMER_ROS_STATE_ENABLE,TIMER_ROS_STATE_DISABLE
 601:Drivers/GD32F1x0_standard_peripheral/Source/gd32f1x0_timer.c ****                 ideloffstate: TIMER_IOS_STATE_ENABLE,TIMER_IOS_STATE_DISABLE
 602:Drivers/GD32F1x0_standard_peripheral/Source/gd32f1x0_timer.c ****                 deadtime: 0~255
 603:Drivers/GD32F1x0_standard_peripheral/Source/gd32f1x0_timer.c ****                 breakpolarity: TIMER_BREAK_POLARITY_LOW,TIMER_BREAK_POLARITY_HIGH
 604:Drivers/GD32F1x0_standard_peripheral/Source/gd32f1x0_timer.c ****                 outputautostate: TIMER_OUTAUTO_ENABLE,TIMER_OUTAUTO_DISABLE
 605:Drivers/GD32F1x0_standard_peripheral/Source/gd32f1x0_timer.c ****                 protectmode: TIMER_CCHP_PROT_OFF,TIMER_CCHP_PROT_0,TIMER_CCHP_PROT_1,TIMER_CCHP_PRO
 606:Drivers/GD32F1x0_standard_peripheral/Source/gd32f1x0_timer.c ****                 breakstate: TIMER_BREAK_ENABLE,TIMER_BREAK_DISABLE
 607:Drivers/GD32F1x0_standard_peripheral/Source/gd32f1x0_timer.c ****     \param[out] none
 608:Drivers/GD32F1x0_standard_peripheral/Source/gd32f1x0_timer.c ****     \retval     none
 609:Drivers/GD32F1x0_standard_peripheral/Source/gd32f1x0_timer.c **** */
 610:Drivers/GD32F1x0_standard_peripheral/Source/gd32f1x0_timer.c **** void timer_break_config(uint32_t timer_periph, timer_break_parameter_struct* breakpara)
 611:Drivers/GD32F1x0_standard_peripheral/Source/gd32f1x0_timer.c **** {
 1140              		.loc 1 611 1 is_stmt 1 view -0
 1141              		.cfi_startproc
 1142              		@ args = 0, pretend = 0, frame = 0
 1143              		@ frame_needed = 0, uses_anonymous_args = 0
 1144              		@ link register save eliminated.
 612:Drivers/GD32F1x0_standard_peripheral/Source/gd32f1x0_timer.c ****     TIMER_CCHP(timer_periph) = (uint32_t)(((uint32_t)breakpara->runoffstate)     |
 1145              		.loc 1 612 5 view .LVU243
 1146              		.loc 1 612 32 is_stmt 0 view .LVU244
 1147 0000 4A88     		ldrh	r2, [r1, #2]
 1148 0002 0B88     		ldrh	r3, [r1]
 1149 0004 1343     		orrs	r3, r3, r2
 1150 0006 8A88     		ldrh	r2, [r1, #4]
 1151 0008 1343     		orrs	r3, r3, r2
 1152 000a CA88     		ldrh	r2, [r1, #6]
 1153 000c 1343     		orrs	r3, r3, r2
 1154 000e 0A89     		ldrh	r2, [r1, #8]
 1155 0010 1343     		orrs	r3, r3, r2
 1156 0012 4A89     		ldrh	r2, [r1, #10]
 1157 0014 1343     		orrs	r3, r3, r2
 1158 0016 8A89     		ldrh	r2, [r1, #12]
 1159 0018 1343     		orrs	r3, r3, r2
 1160 001a 9BB2     		uxth	r3, r3
 1161              		.loc 1 612 30 view .LVU245
 1162 001c 4364     		str	r3, [r0, #68]
ARM GAS  /tmp/ccP4G5CZ.s 			page 32


 613:Drivers/GD32F1x0_standard_peripheral/Source/gd32f1x0_timer.c ****                                            ((uint32_t)breakpara->ideloffstate)    |
 614:Drivers/GD32F1x0_standard_peripheral/Source/gd32f1x0_timer.c ****                                            ((uint32_t)breakpara->deadtime)        |
 615:Drivers/GD32F1x0_standard_peripheral/Source/gd32f1x0_timer.c ****                                            ((uint32_t)breakpara->breakpolarity)   |
 616:Drivers/GD32F1x0_standard_peripheral/Source/gd32f1x0_timer.c ****                                            ((uint32_t)breakpara->outputautostate) |
 617:Drivers/GD32F1x0_standard_peripheral/Source/gd32f1x0_timer.c ****                                            ((uint32_t)breakpara->protectmode)     |
 618:Drivers/GD32F1x0_standard_peripheral/Source/gd32f1x0_timer.c ****                                            ((uint32_t)breakpara->breakstate));
 619:Drivers/GD32F1x0_standard_peripheral/Source/gd32f1x0_timer.c **** }
 1163              		.loc 1 619 1 view .LVU246
 1164 001e 7047     		bx	lr
 1165              		.cfi_endproc
 1166              	.LFE86:
 1168              		.section	.text.timer_break_enable,"ax",%progbits
 1169              		.align	1
 1170              		.global	timer_break_enable
 1171              		.syntax unified
 1172              		.thumb
 1173              		.thumb_func
 1174              		.fpu softvfp
 1176              	timer_break_enable:
 1177              	.LVL63:
 1178              	.LFB87:
 620:Drivers/GD32F1x0_standard_peripheral/Source/gd32f1x0_timer.c **** 
 621:Drivers/GD32F1x0_standard_peripheral/Source/gd32f1x0_timer.c **** /*!
 622:Drivers/GD32F1x0_standard_peripheral/Source/gd32f1x0_timer.c ****     \brief      enable TIMER break function
 623:Drivers/GD32F1x0_standard_peripheral/Source/gd32f1x0_timer.c ****     \param[in]  timer_periph: TIMERx(x=0,14,15,16)
 624:Drivers/GD32F1x0_standard_peripheral/Source/gd32f1x0_timer.c ****     \param[out] none
 625:Drivers/GD32F1x0_standard_peripheral/Source/gd32f1x0_timer.c ****     \retval     none
 626:Drivers/GD32F1x0_standard_peripheral/Source/gd32f1x0_timer.c **** */
 627:Drivers/GD32F1x0_standard_peripheral/Source/gd32f1x0_timer.c **** void timer_break_enable(uint32_t timer_periph)
 628:Drivers/GD32F1x0_standard_peripheral/Source/gd32f1x0_timer.c **** {
 1179              		.loc 1 628 1 is_stmt 1 view -0
 1180              		.cfi_startproc
 1181              		@ args = 0, pretend = 0, frame = 0
 1182              		@ frame_needed = 0, uses_anonymous_args = 0
 1183              		@ link register save eliminated.
 629:Drivers/GD32F1x0_standard_peripheral/Source/gd32f1x0_timer.c ****     TIMER_CCHP(timer_periph) |= (uint32_t)TIMER_BREAK_ENABLE;
 1184              		.loc 1 629 5 view .LVU248
 1185              		.loc 1 629 30 is_stmt 0 view .LVU249
 1186 0000 436C     		ldr	r3, [r0, #68]
 1187 0002 43F48053 		orr	r3, r3, #4096
 1188 0006 4364     		str	r3, [r0, #68]
 630:Drivers/GD32F1x0_standard_peripheral/Source/gd32f1x0_timer.c **** }
 1189              		.loc 1 630 1 view .LVU250
 1190 0008 7047     		bx	lr
 1191              		.cfi_endproc
 1192              	.LFE87:
 1194              		.section	.text.timer_break_disable,"ax",%progbits
 1195              		.align	1
 1196              		.global	timer_break_disable
 1197              		.syntax unified
 1198              		.thumb
 1199              		.thumb_func
 1200              		.fpu softvfp
 1202              	timer_break_disable:
 1203              	.LVL64:
 1204              	.LFB88:
 631:Drivers/GD32F1x0_standard_peripheral/Source/gd32f1x0_timer.c **** 
ARM GAS  /tmp/ccP4G5CZ.s 			page 33


 632:Drivers/GD32F1x0_standard_peripheral/Source/gd32f1x0_timer.c **** /*!
 633:Drivers/GD32F1x0_standard_peripheral/Source/gd32f1x0_timer.c ****     \brief      disable TIMER break function
 634:Drivers/GD32F1x0_standard_peripheral/Source/gd32f1x0_timer.c ****     \param[in]  timer_periph: TIMERx(x=0,14,15,16)
 635:Drivers/GD32F1x0_standard_peripheral/Source/gd32f1x0_timer.c ****     \param[out] none
 636:Drivers/GD32F1x0_standard_peripheral/Source/gd32f1x0_timer.c ****     \retval     none
 637:Drivers/GD32F1x0_standard_peripheral/Source/gd32f1x0_timer.c **** */
 638:Drivers/GD32F1x0_standard_peripheral/Source/gd32f1x0_timer.c **** void timer_break_disable(uint32_t timer_periph)
 639:Drivers/GD32F1x0_standard_peripheral/Source/gd32f1x0_timer.c **** {
 1205              		.loc 1 639 1 is_stmt 1 view -0
 1206              		.cfi_startproc
 1207              		@ args = 0, pretend = 0, frame = 0
 1208              		@ frame_needed = 0, uses_anonymous_args = 0
 1209              		@ link register save eliminated.
 640:Drivers/GD32F1x0_standard_peripheral/Source/gd32f1x0_timer.c ****     TIMER_CCHP(timer_periph) &= (uint32_t)TIMER_BREAK_DISABLE;
 1210              		.loc 1 640 5 view .LVU252
 1211              		.loc 1 640 30 is_stmt 0 view .LVU253
 1212 0000 436C     		ldr	r3, [r0, #68]
 1213 0002 0023     		movs	r3, #0
 1214 0004 4364     		str	r3, [r0, #68]
 641:Drivers/GD32F1x0_standard_peripheral/Source/gd32f1x0_timer.c **** }
 1215              		.loc 1 641 1 view .LVU254
 1216 0006 7047     		bx	lr
 1217              		.cfi_endproc
 1218              	.LFE88:
 1220              		.section	.text.timer_automatic_output_enable,"ax",%progbits
 1221              		.align	1
 1222              		.global	timer_automatic_output_enable
 1223              		.syntax unified
 1224              		.thumb
 1225              		.thumb_func
 1226              		.fpu softvfp
 1228              	timer_automatic_output_enable:
 1229              	.LVL65:
 1230              	.LFB89:
 642:Drivers/GD32F1x0_standard_peripheral/Source/gd32f1x0_timer.c **** 
 643:Drivers/GD32F1x0_standard_peripheral/Source/gd32f1x0_timer.c **** /*!
 644:Drivers/GD32F1x0_standard_peripheral/Source/gd32f1x0_timer.c ****     \brief      enable TIMER output automatic function
 645:Drivers/GD32F1x0_standard_peripheral/Source/gd32f1x0_timer.c ****     \param[in]  timer_periph: TIMERx(x=0,14,15,16)
 646:Drivers/GD32F1x0_standard_peripheral/Source/gd32f1x0_timer.c ****     \param[out] none
 647:Drivers/GD32F1x0_standard_peripheral/Source/gd32f1x0_timer.c ****     \retval     none
 648:Drivers/GD32F1x0_standard_peripheral/Source/gd32f1x0_timer.c **** */
 649:Drivers/GD32F1x0_standard_peripheral/Source/gd32f1x0_timer.c **** void timer_automatic_output_enable(uint32_t timer_periph)
 650:Drivers/GD32F1x0_standard_peripheral/Source/gd32f1x0_timer.c **** {
 1231              		.loc 1 650 1 is_stmt 1 view -0
 1232              		.cfi_startproc
 1233              		@ args = 0, pretend = 0, frame = 0
 1234              		@ frame_needed = 0, uses_anonymous_args = 0
 1235              		@ link register save eliminated.
 651:Drivers/GD32F1x0_standard_peripheral/Source/gd32f1x0_timer.c ****     TIMER_CCHP(timer_periph) |= (uint32_t)TIMER_OUTAUTO_ENABLE;
 1236              		.loc 1 651 5 view .LVU256
 1237              		.loc 1 651 30 is_stmt 0 view .LVU257
 1238 0000 436C     		ldr	r3, [r0, #68]
 1239 0002 43F48043 		orr	r3, r3, #16384
 1240 0006 4364     		str	r3, [r0, #68]
 652:Drivers/GD32F1x0_standard_peripheral/Source/gd32f1x0_timer.c **** }
 1241              		.loc 1 652 1 view .LVU258
 1242 0008 7047     		bx	lr
ARM GAS  /tmp/ccP4G5CZ.s 			page 34


 1243              		.cfi_endproc
 1244              	.LFE89:
 1246              		.section	.text.timer_automatic_output_disable,"ax",%progbits
 1247              		.align	1
 1248              		.global	timer_automatic_output_disable
 1249              		.syntax unified
 1250              		.thumb
 1251              		.thumb_func
 1252              		.fpu softvfp
 1254              	timer_automatic_output_disable:
 1255              	.LFB126:
 1256              		.cfi_startproc
 1257              		@ args = 0, pretend = 0, frame = 0
 1258              		@ frame_needed = 0, uses_anonymous_args = 0
 1259              		@ link register save eliminated.
 1260 0000 FFF7FEBF 		b	timer_break_disable
 1261              		.cfi_endproc
 1262              	.LFE126:
 1264              		.section	.text.timer_primary_output_config,"ax",%progbits
 1265              		.align	1
 1266              		.global	timer_primary_output_config
 1267              		.syntax unified
 1268              		.thumb
 1269              		.thumb_func
 1270              		.fpu softvfp
 1272              	timer_primary_output_config:
 1273              	.LVL66:
 1274              	.LFB91:
 653:Drivers/GD32F1x0_standard_peripheral/Source/gd32f1x0_timer.c **** 
 654:Drivers/GD32F1x0_standard_peripheral/Source/gd32f1x0_timer.c **** /*!
 655:Drivers/GD32F1x0_standard_peripheral/Source/gd32f1x0_timer.c ****     \brief      disable TIMER output automatic function
 656:Drivers/GD32F1x0_standard_peripheral/Source/gd32f1x0_timer.c ****     \param[in]  timer_periph: TIMERx(x=0,14,15,16)
 657:Drivers/GD32F1x0_standard_peripheral/Source/gd32f1x0_timer.c ****     \param[out] none
 658:Drivers/GD32F1x0_standard_peripheral/Source/gd32f1x0_timer.c ****     \retval     none
 659:Drivers/GD32F1x0_standard_peripheral/Source/gd32f1x0_timer.c **** */
 660:Drivers/GD32F1x0_standard_peripheral/Source/gd32f1x0_timer.c **** void timer_automatic_output_disable(uint32_t timer_periph)
 661:Drivers/GD32F1x0_standard_peripheral/Source/gd32f1x0_timer.c **** {
 662:Drivers/GD32F1x0_standard_peripheral/Source/gd32f1x0_timer.c ****     TIMER_CCHP(timer_periph) &= (uint32_t)TIMER_OUTAUTO_DISABLE;
 663:Drivers/GD32F1x0_standard_peripheral/Source/gd32f1x0_timer.c **** }
 664:Drivers/GD32F1x0_standard_peripheral/Source/gd32f1x0_timer.c **** 
 665:Drivers/GD32F1x0_standard_peripheral/Source/gd32f1x0_timer.c **** /*!
 666:Drivers/GD32F1x0_standard_peripheral/Source/gd32f1x0_timer.c ****     \brief      configure TIMER primary output function
 667:Drivers/GD32F1x0_standard_peripheral/Source/gd32f1x0_timer.c ****     \param[in]  timer_periph: TIMERx(x=0,14,15,16)
 668:Drivers/GD32F1x0_standard_peripheral/Source/gd32f1x0_timer.c ****     \param[in]  newvalue: ENABLE or DISABLE
 669:Drivers/GD32F1x0_standard_peripheral/Source/gd32f1x0_timer.c ****     \param[out] none
 670:Drivers/GD32F1x0_standard_peripheral/Source/gd32f1x0_timer.c ****     \retval     none
 671:Drivers/GD32F1x0_standard_peripheral/Source/gd32f1x0_timer.c **** */
 672:Drivers/GD32F1x0_standard_peripheral/Source/gd32f1x0_timer.c **** void timer_primary_output_config(uint32_t timer_periph,ControlStatus newvalue)
 673:Drivers/GD32F1x0_standard_peripheral/Source/gd32f1x0_timer.c **** {
 1275              		.loc 1 673 1 is_stmt 1 view -0
 1276              		.cfi_startproc
 1277              		@ args = 0, pretend = 0, frame = 0
 1278              		@ frame_needed = 0, uses_anonymous_args = 0
 1279              		@ link register save eliminated.
 674:Drivers/GD32F1x0_standard_peripheral/Source/gd32f1x0_timer.c ****     if(newvalue){
 1280              		.loc 1 674 5 view .LVU260
 675:Drivers/GD32F1x0_standard_peripheral/Source/gd32f1x0_timer.c ****         TIMER_CCHP(timer_periph) |= (uint32_t)TIMER_CCHP_POEN;
ARM GAS  /tmp/ccP4G5CZ.s 			page 35


 1281              		.loc 1 675 34 is_stmt 0 view .LVU261
 1282 0000 436C     		ldr	r3, [r0, #68]
 674:Drivers/GD32F1x0_standard_peripheral/Source/gd32f1x0_timer.c ****     if(newvalue){
 1283              		.loc 1 674 7 view .LVU262
 1284 0002 19B1     		cbz	r1, .L72
 1285              		.loc 1 675 9 is_stmt 1 view .LVU263
 1286              		.loc 1 675 34 is_stmt 0 view .LVU264
 1287 0004 43F40043 		orr	r3, r3, #32768
 1288              	.L74:
 676:Drivers/GD32F1x0_standard_peripheral/Source/gd32f1x0_timer.c ****     }else{
 677:Drivers/GD32F1x0_standard_peripheral/Source/gd32f1x0_timer.c ****         TIMER_CCHP(timer_periph) &= (uint32_t)(~ TIMER_CCHP_POEN);
 1289              		.loc 1 677 34 view .LVU265
 1290 0008 4364     		str	r3, [r0, #68]
 678:Drivers/GD32F1x0_standard_peripheral/Source/gd32f1x0_timer.c ****     }
 679:Drivers/GD32F1x0_standard_peripheral/Source/gd32f1x0_timer.c **** }
 1291              		.loc 1 679 1 view .LVU266
 1292 000a 7047     		bx	lr
 1293              	.L72:
 677:Drivers/GD32F1x0_standard_peripheral/Source/gd32f1x0_timer.c ****     }
 1294              		.loc 1 677 9 is_stmt 1 view .LVU267
 677:Drivers/GD32F1x0_standard_peripheral/Source/gd32f1x0_timer.c ****     }
 1295              		.loc 1 677 34 is_stmt 0 view .LVU268
 1296 000c 23F40043 		bic	r3, r3, #32768
 1297 0010 FAE7     		b	.L74
 1298              		.cfi_endproc
 1299              	.LFE91:
 1301              		.section	.text.timer_channel_control_shadow_config,"ax",%progbits
 1302              		.align	1
 1303              		.global	timer_channel_control_shadow_config
 1304              		.syntax unified
 1305              		.thumb
 1306              		.thumb_func
 1307              		.fpu softvfp
 1309              	timer_channel_control_shadow_config:
 1310              	.LVL67:
 1311              	.LFB92:
 680:Drivers/GD32F1x0_standard_peripheral/Source/gd32f1x0_timer.c **** 
 681:Drivers/GD32F1x0_standard_peripheral/Source/gd32f1x0_timer.c **** /*!
 682:Drivers/GD32F1x0_standard_peripheral/Source/gd32f1x0_timer.c ****     \brief      channel capture/compare control shadow register enable
 683:Drivers/GD32F1x0_standard_peripheral/Source/gd32f1x0_timer.c ****     \param[in]  timer_periph: TIMERx(x=0,14,15,16)
 684:Drivers/GD32F1x0_standard_peripheral/Source/gd32f1x0_timer.c ****     \param[in]  newvalue: ENABLE or DISABLE 
 685:Drivers/GD32F1x0_standard_peripheral/Source/gd32f1x0_timer.c ****     \param[out] none
 686:Drivers/GD32F1x0_standard_peripheral/Source/gd32f1x0_timer.c ****     \retval     none
 687:Drivers/GD32F1x0_standard_peripheral/Source/gd32f1x0_timer.c **** */
 688:Drivers/GD32F1x0_standard_peripheral/Source/gd32f1x0_timer.c **** void timer_channel_control_shadow_config(uint32_t timer_periph, ControlStatus newvalue)
 689:Drivers/GD32F1x0_standard_peripheral/Source/gd32f1x0_timer.c **** {
 1312              		.loc 1 689 1 is_stmt 1 view -0
 1313              		.cfi_startproc
 1314              		@ args = 0, pretend = 0, frame = 0
 1315              		@ frame_needed = 0, uses_anonymous_args = 0
 1316              		@ link register save eliminated.
 690:Drivers/GD32F1x0_standard_peripheral/Source/gd32f1x0_timer.c ****      if(newvalue){
 1317              		.loc 1 690 6 view .LVU270
 691:Drivers/GD32F1x0_standard_peripheral/Source/gd32f1x0_timer.c ****         TIMER_CTL1(timer_periph) |= (uint32_t)TIMER_CTL1_CCSE;
 1318              		.loc 1 691 34 is_stmt 0 view .LVU271
 1319 0000 4368     		ldr	r3, [r0, #4]
 690:Drivers/GD32F1x0_standard_peripheral/Source/gd32f1x0_timer.c ****      if(newvalue){
ARM GAS  /tmp/ccP4G5CZ.s 			page 36


 1320              		.loc 1 690 8 view .LVU272
 1321 0002 19B1     		cbz	r1, .L76
 1322              		.loc 1 691 9 is_stmt 1 view .LVU273
 1323              		.loc 1 691 34 is_stmt 0 view .LVU274
 1324 0004 43F00103 		orr	r3, r3, #1
 1325              	.L78:
 692:Drivers/GD32F1x0_standard_peripheral/Source/gd32f1x0_timer.c ****     }else{
 693:Drivers/GD32F1x0_standard_peripheral/Source/gd32f1x0_timer.c ****         TIMER_CTL1(timer_periph) &= (uint32_t)(~TIMER_CTL1_CCSE);
 1326              		.loc 1 693 34 view .LVU275
 1327 0008 4360     		str	r3, [r0, #4]
 694:Drivers/GD32F1x0_standard_peripheral/Source/gd32f1x0_timer.c ****     }
 695:Drivers/GD32F1x0_standard_peripheral/Source/gd32f1x0_timer.c **** }
 1328              		.loc 1 695 1 view .LVU276
 1329 000a 7047     		bx	lr
 1330              	.L76:
 693:Drivers/GD32F1x0_standard_peripheral/Source/gd32f1x0_timer.c ****     }
 1331              		.loc 1 693 9 is_stmt 1 view .LVU277
 693:Drivers/GD32F1x0_standard_peripheral/Source/gd32f1x0_timer.c ****     }
 1332              		.loc 1 693 34 is_stmt 0 view .LVU278
 1333 000c 23F00103 		bic	r3, r3, #1
 1334 0010 FAE7     		b	.L78
 1335              		.cfi_endproc
 1336              	.LFE92:
 1338              		.section	.text.timer_channel_control_shadow_update_config,"ax",%progbits
 1339              		.align	1
 1340              		.global	timer_channel_control_shadow_update_config
 1341              		.syntax unified
 1342              		.thumb
 1343              		.thumb_func
 1344              		.fpu softvfp
 1346              	timer_channel_control_shadow_update_config:
 1347              	.LVL68:
 1348              	.LFB93:
 696:Drivers/GD32F1x0_standard_peripheral/Source/gd32f1x0_timer.c **** 
 697:Drivers/GD32F1x0_standard_peripheral/Source/gd32f1x0_timer.c **** /*!
 698:Drivers/GD32F1x0_standard_peripheral/Source/gd32f1x0_timer.c ****     \brief      configure TIMER channel control shadow register update control
 699:Drivers/GD32F1x0_standard_peripheral/Source/gd32f1x0_timer.c ****     \param[in]  timer_periph: TIMERx(x=0,1,2)
 700:Drivers/GD32F1x0_standard_peripheral/Source/gd32f1x0_timer.c ****     \param[in]  ccuctl: channel control shadow register update control
 701:Drivers/GD32F1x0_standard_peripheral/Source/gd32f1x0_timer.c ****       \arg        TIMER_UPDATECTL_CCU: the shadow registers update by when CMTG bit is set
 702:Drivers/GD32F1x0_standard_peripheral/Source/gd32f1x0_timer.c ****       \arg        TIMER_UPDATECTL_CCUTRI: the shadow registers update by when CMTG bit is set or an
 703:Drivers/GD32F1x0_standard_peripheral/Source/gd32f1x0_timer.c ****     \param[out] none
 704:Drivers/GD32F1x0_standard_peripheral/Source/gd32f1x0_timer.c ****     \retval     none
 705:Drivers/GD32F1x0_standard_peripheral/Source/gd32f1x0_timer.c **** */              
 706:Drivers/GD32F1x0_standard_peripheral/Source/gd32f1x0_timer.c **** void timer_channel_control_shadow_update_config(uint32_t timer_periph, uint8_t ccuctl)
 707:Drivers/GD32F1x0_standard_peripheral/Source/gd32f1x0_timer.c **** {
 1349              		.loc 1 707 1 is_stmt 1 view -0
 1350              		.cfi_startproc
 1351              		@ args = 0, pretend = 0, frame = 0
 1352              		@ frame_needed = 0, uses_anonymous_args = 0
 1353              		@ link register save eliminated.
 708:Drivers/GD32F1x0_standard_peripheral/Source/gd32f1x0_timer.c ****     if(TIMER_UPDATECTL_CCU == ccuctl){
 1354              		.loc 1 708 5 view .LVU280
 1355              		.loc 1 708 7 is_stmt 0 view .LVU281
 1356 0000 21B9     		cbnz	r1, .L80
 709:Drivers/GD32F1x0_standard_peripheral/Source/gd32f1x0_timer.c ****         TIMER_CTL1(timer_periph) &= (~(uint32_t)TIMER_CTL1_CCUC);
 1357              		.loc 1 709 9 is_stmt 1 view .LVU282
 1358              		.loc 1 709 34 is_stmt 0 view .LVU283
ARM GAS  /tmp/ccP4G5CZ.s 			page 37


 1359 0002 4368     		ldr	r3, [r0, #4]
 1360 0004 23F00403 		bic	r3, r3, #4
 1361              	.L82:
 710:Drivers/GD32F1x0_standard_peripheral/Source/gd32f1x0_timer.c ****     }else if(TIMER_UPDATECTL_CCUTRI == ccuctl){
 711:Drivers/GD32F1x0_standard_peripheral/Source/gd32f1x0_timer.c ****         TIMER_CTL1(timer_periph) |= (uint32_t)TIMER_CTL1_CCUC;
 1362              		.loc 1 711 34 view .LVU284
 1363 0008 4360     		str	r3, [r0, #4]
 712:Drivers/GD32F1x0_standard_peripheral/Source/gd32f1x0_timer.c ****     }else{
 713:Drivers/GD32F1x0_standard_peripheral/Source/gd32f1x0_timer.c ****     }
 1364              		.loc 1 713 5 is_stmt 1 view .LVU285
 1365              	.L79:
 714:Drivers/GD32F1x0_standard_peripheral/Source/gd32f1x0_timer.c **** }
 1366              		.loc 1 714 1 is_stmt 0 view .LVU286
 1367 000a 7047     		bx	lr
 1368              	.L80:
 710:Drivers/GD32F1x0_standard_peripheral/Source/gd32f1x0_timer.c ****     }else if(TIMER_UPDATECTL_CCUTRI == ccuctl){
 1369              		.loc 1 710 11 is_stmt 1 view .LVU287
 710:Drivers/GD32F1x0_standard_peripheral/Source/gd32f1x0_timer.c ****     }else if(TIMER_UPDATECTL_CCUTRI == ccuctl){
 1370              		.loc 1 710 13 is_stmt 0 view .LVU288
 1371 000c 0129     		cmp	r1, #1
 1372 000e FCD1     		bne	.L79
 711:Drivers/GD32F1x0_standard_peripheral/Source/gd32f1x0_timer.c ****     }else{
 1373              		.loc 1 711 9 is_stmt 1 view .LVU289
 711:Drivers/GD32F1x0_standard_peripheral/Source/gd32f1x0_timer.c ****     }else{
 1374              		.loc 1 711 34 is_stmt 0 view .LVU290
 1375 0010 4368     		ldr	r3, [r0, #4]
 1376 0012 43F00403 		orr	r3, r3, #4
 1377 0016 F7E7     		b	.L82
 1378              		.cfi_endproc
 1379              	.LFE93:
 1381              		.section	.text.timer_channel_output_config,"ax",%progbits
 1382              		.align	1
 1383              		.global	timer_channel_output_config
 1384              		.syntax unified
 1385              		.thumb
 1386              		.thumb_func
 1387              		.fpu softvfp
 1389              	timer_channel_output_config:
 1390              	.LVL69:
 1391              	.LFB94:
 715:Drivers/GD32F1x0_standard_peripheral/Source/gd32f1x0_timer.c **** 
 716:Drivers/GD32F1x0_standard_peripheral/Source/gd32f1x0_timer.c **** /*!
 717:Drivers/GD32F1x0_standard_peripheral/Source/gd32f1x0_timer.c ****     \brief      configure TIMER channel output function
 718:Drivers/GD32F1x0_standard_peripheral/Source/gd32f1x0_timer.c ****     \param[in]  timer_periph: TIMERx(x=0,1,2,13,14,15,16)
 719:Drivers/GD32F1x0_standard_peripheral/Source/gd32f1x0_timer.c ****     \param[in]  channel: 
 720:Drivers/GD32F1x0_standard_peripheral/Source/gd32f1x0_timer.c ****       \arg        TIMER_CH_0: TIMER channel0(TIMERx(x=0,1,2,13,14,15,16))
 721:Drivers/GD32F1x0_standard_peripheral/Source/gd32f1x0_timer.c ****       \arg        TIMER_CH_1: TIMER channel1(TIMERx(x=0,1,2,14))
 722:Drivers/GD32F1x0_standard_peripheral/Source/gd32f1x0_timer.c ****       \arg        TIMER_CH_2: TIMER channel2(TIMERx(x=0,1,2))
 723:Drivers/GD32F1x0_standard_peripheral/Source/gd32f1x0_timer.c ****       \arg        TIMER_CH_3: TIMER channel3(TIMERx(x=0,1,2))
 724:Drivers/GD32F1x0_standard_peripheral/Source/gd32f1x0_timer.c ****     \param[in]  ocpara: TIMER channeln output parameter struct
 725:Drivers/GD32F1x0_standard_peripheral/Source/gd32f1x0_timer.c ****                 outputstate: TIMER_CCX_ENABLE,TIMER_CCX_DISABLE
 726:Drivers/GD32F1x0_standard_peripheral/Source/gd32f1x0_timer.c ****                 outputnstate: TIMER_CCXN_ENABLE,TIMER_CCXN_DISABLE
 727:Drivers/GD32F1x0_standard_peripheral/Source/gd32f1x0_timer.c ****                 ocpolarity: TIMER_OC_POLARITY_HIGH,TIMER_OC_POLARITY_LOW
 728:Drivers/GD32F1x0_standard_peripheral/Source/gd32f1x0_timer.c ****                 ocnpolarity: TIMER_OCN_POLARITY_HIGH,TIMER_OCN_POLARITY_LOW
 729:Drivers/GD32F1x0_standard_peripheral/Source/gd32f1x0_timer.c ****                 ocidlestate: TIMER_OC_IDLE_STATE_LOW,TIMER_OC_IDLE_STATE_HIGH
 730:Drivers/GD32F1x0_standard_peripheral/Source/gd32f1x0_timer.c ****                 ocnidlestate: TIMER_OCN_IDLE_STATE_LOW,TIMER_OCN_IDLE_STATE_HIGH
 731:Drivers/GD32F1x0_standard_peripheral/Source/gd32f1x0_timer.c ****     \param[out] none
ARM GAS  /tmp/ccP4G5CZ.s 			page 38


 732:Drivers/GD32F1x0_standard_peripheral/Source/gd32f1x0_timer.c ****     \retval     none
 733:Drivers/GD32F1x0_standard_peripheral/Source/gd32f1x0_timer.c **** */
 734:Drivers/GD32F1x0_standard_peripheral/Source/gd32f1x0_timer.c **** void timer_channel_output_config(uint32_t timer_periph, uint16_t channel, timer_oc_parameter_struct
 735:Drivers/GD32F1x0_standard_peripheral/Source/gd32f1x0_timer.c **** {
 1392              		.loc 1 735 1 is_stmt 1 view -0
 1393              		.cfi_startproc
 1394              		@ args = 0, pretend = 0, frame = 0
 1395              		@ frame_needed = 0, uses_anonymous_args = 0
 1396              		@ link register save eliminated.
 736:Drivers/GD32F1x0_standard_peripheral/Source/gd32f1x0_timer.c ****     switch(channel){
 1397              		.loc 1 736 5 view .LVU292
 1398 0000 0329     		cmp	r1, #3
 1399 0002 00F2E880 		bhi	.L83
 1400 0006 DFE811F0 		tbh	[pc, r1, lsl #1]
 1401              	.L86:
 1402 000a 0400     		.2byte	(.L89-.L86)/2
 1403 000c 4300     		.2byte	(.L88-.L86)/2
 1404 000e 8700     		.2byte	(.L87-.L86)/2
 1405 0010 C800     		.2byte	(.L85-.L86)/2
 1406              		.p2align 1
 1407              	.L89:
 737:Drivers/GD32F1x0_standard_peripheral/Source/gd32f1x0_timer.c ****     /* configure TIMER_CH_0 */
 738:Drivers/GD32F1x0_standard_peripheral/Source/gd32f1x0_timer.c ****     case TIMER_CH_0:
 739:Drivers/GD32F1x0_standard_peripheral/Source/gd32f1x0_timer.c ****         /* reset the CH0EN bit */
 740:Drivers/GD32F1x0_standard_peripheral/Source/gd32f1x0_timer.c ****         TIMER_CHCTL2(timer_periph) &=(uint32_t)(~TIMER_CHCTL2_CH0EN);
 1408              		.loc 1 740 9 view .LVU293
 1409              		.loc 1 740 36 is_stmt 0 view .LVU294
 1410 0012 036A     		ldr	r3, [r0, #32]
 1411 0014 23F00103 		bic	r3, r3, #1
 1412 0018 0362     		str	r3, [r0, #32]
 741:Drivers/GD32F1x0_standard_peripheral/Source/gd32f1x0_timer.c ****         /* set the CH0EN bit */
 742:Drivers/GD32F1x0_standard_peripheral/Source/gd32f1x0_timer.c ****         TIMER_CHCTL2(timer_periph) |= (uint32_t)ocpara->outputstate;
 1413              		.loc 1 742 9 is_stmt 1 view .LVU295
 1414              		.loc 1 742 36 is_stmt 0 view .LVU296
 1415 001a 016A     		ldr	r1, [r0, #32]
 1416              	.LVL70:
 1417              		.loc 1 742 39 view .LVU297
 1418 001c 1388     		ldrh	r3, [r2]
 1419              		.loc 1 742 36 view .LVU298
 1420 001e 0B43     		orrs	r3, r3, r1
 1421 0020 0362     		str	r3, [r0, #32]
 743:Drivers/GD32F1x0_standard_peripheral/Source/gd32f1x0_timer.c ****         /* reset the CH0P bit */
 744:Drivers/GD32F1x0_standard_peripheral/Source/gd32f1x0_timer.c ****         TIMER_CHCTL2(timer_periph) &=(uint32_t)(~TIMER_CHCTL2_CH0P);
 1422              		.loc 1 744 9 is_stmt 1 view .LVU299
 1423              		.loc 1 744 36 is_stmt 0 view .LVU300
 1424 0022 036A     		ldr	r3, [r0, #32]
 1425 0024 23F00203 		bic	r3, r3, #2
 1426 0028 0362     		str	r3, [r0, #32]
 745:Drivers/GD32F1x0_standard_peripheral/Source/gd32f1x0_timer.c ****         /* set the CH0P bit */
 746:Drivers/GD32F1x0_standard_peripheral/Source/gd32f1x0_timer.c ****         TIMER_CHCTL2(timer_periph) |= (uint32_t)ocpara->ocpolarity;
 1427              		.loc 1 746 9 is_stmt 1 view .LVU301
 1428              		.loc 1 746 36 is_stmt 0 view .LVU302
 1429 002a 016A     		ldr	r1, [r0, #32]
 1430              		.loc 1 746 39 view .LVU303
 1431 002c 9388     		ldrh	r3, [r2, #4]
 1432              		.loc 1 746 36 view .LVU304
 1433 002e 0B43     		orrs	r3, r3, r1
ARM GAS  /tmp/ccP4G5CZ.s 			page 39


 1434 0030 0362     		str	r3, [r0, #32]
 747:Drivers/GD32F1x0_standard_peripheral/Source/gd32f1x0_timer.c **** 
 748:Drivers/GD32F1x0_standard_peripheral/Source/gd32f1x0_timer.c ****         if((TIMER0 == timer_periph) || (TIMER14 == timer_periph) || (TIMER15 == timer_periph) || (T
 1435              		.loc 1 748 9 is_stmt 1 view .LVU305
 1436              		.loc 1 748 11 is_stmt 0 view .LVU306
 1437 0032 694B     		ldr	r3, .L93
 1438 0034 9842     		cmp	r0, r3
 1439 0036 0AD0     		beq	.L90
 1440              		.loc 1 748 37 discriminator 1 view .LVU307
 1441 0038 20F48061 		bic	r1, r0, #1024
 1442 003c 03F5A053 		add	r3, r3, #5120
 1443 0040 9942     		cmp	r1, r3
 1444 0042 04D0     		beq	.L90
 1445              		.loc 1 748 95 discriminator 3 view .LVU308
 1446 0044 03F50063 		add	r3, r3, #2048
 1447 0048 9842     		cmp	r0, r3
 1448 004a 40F0C480 		bne	.L83
 1449              	.L90:
 749:Drivers/GD32F1x0_standard_peripheral/Source/gd32f1x0_timer.c ****             /* reset the CH0NEN bit */
 750:Drivers/GD32F1x0_standard_peripheral/Source/gd32f1x0_timer.c ****             TIMER_CHCTL2(timer_periph) &=(uint32_t)(~TIMER_CHCTL2_CH0NEN);
 1450              		.loc 1 750 13 is_stmt 1 view .LVU309
 1451              		.loc 1 750 40 is_stmt 0 view .LVU310
 1452 004e 036A     		ldr	r3, [r0, #32]
 1453 0050 23F00403 		bic	r3, r3, #4
 1454 0054 0362     		str	r3, [r0, #32]
 751:Drivers/GD32F1x0_standard_peripheral/Source/gd32f1x0_timer.c ****             /* set the CH0NEN bit */
 752:Drivers/GD32F1x0_standard_peripheral/Source/gd32f1x0_timer.c ****             TIMER_CHCTL2(timer_periph) |= (uint32_t)ocpara->outputnstate;
 1455              		.loc 1 752 13 is_stmt 1 view .LVU311
 1456              		.loc 1 752 40 is_stmt 0 view .LVU312
 1457 0056 016A     		ldr	r1, [r0, #32]
 1458              		.loc 1 752 43 view .LVU313
 1459 0058 5388     		ldrh	r3, [r2, #2]
 1460              		.loc 1 752 40 view .LVU314
 1461 005a 0B43     		orrs	r3, r3, r1
 1462 005c 0362     		str	r3, [r0, #32]
 753:Drivers/GD32F1x0_standard_peripheral/Source/gd32f1x0_timer.c ****             /* reset the CH0NP bit */
 754:Drivers/GD32F1x0_standard_peripheral/Source/gd32f1x0_timer.c ****             TIMER_CHCTL2(timer_periph) &=(uint32_t)(~TIMER_CHCTL2_CH0NP);
 1463              		.loc 1 754 13 is_stmt 1 view .LVU315
 1464              		.loc 1 754 40 is_stmt 0 view .LVU316
 1465 005e 036A     		ldr	r3, [r0, #32]
 1466 0060 23F00803 		bic	r3, r3, #8
 1467 0064 0362     		str	r3, [r0, #32]
 755:Drivers/GD32F1x0_standard_peripheral/Source/gd32f1x0_timer.c ****             /* set the CH0NP bit */
 756:Drivers/GD32F1x0_standard_peripheral/Source/gd32f1x0_timer.c ****             TIMER_CHCTL2(timer_periph) |= (uint32_t)ocpara->ocnpolarity;
 1468              		.loc 1 756 13 is_stmt 1 view .LVU317
 1469              		.loc 1 756 40 is_stmt 0 view .LVU318
 1470 0066 016A     		ldr	r1, [r0, #32]
 1471              		.loc 1 756 43 view .LVU319
 1472 0068 D388     		ldrh	r3, [r2, #6]
 1473              		.loc 1 756 40 view .LVU320
 1474 006a 0B43     		orrs	r3, r3, r1
 1475 006c 0362     		str	r3, [r0, #32]
 757:Drivers/GD32F1x0_standard_peripheral/Source/gd32f1x0_timer.c ****             /* reset the ISO0 bit */
 758:Drivers/GD32F1x0_standard_peripheral/Source/gd32f1x0_timer.c ****             TIMER_CTL1(timer_periph) &=(uint32_t)(~TIMER_CTL1_ISO0);
 1476              		.loc 1 758 13 is_stmt 1 view .LVU321
 1477              		.loc 1 758 38 is_stmt 0 view .LVU322
 1478 006e 4368     		ldr	r3, [r0, #4]
ARM GAS  /tmp/ccP4G5CZ.s 			page 40


 1479 0070 23F48073 		bic	r3, r3, #256
 1480 0074 4360     		str	r3, [r0, #4]
 759:Drivers/GD32F1x0_standard_peripheral/Source/gd32f1x0_timer.c ****             /* set the ISO0 bit */
 760:Drivers/GD32F1x0_standard_peripheral/Source/gd32f1x0_timer.c ****             TIMER_CTL1(timer_periph) |= (uint32_t)ocpara->ocidlestate;
 1481              		.loc 1 760 13 is_stmt 1 view .LVU323
 1482              		.loc 1 760 38 is_stmt 0 view .LVU324
 1483 0076 4168     		ldr	r1, [r0, #4]
 1484              		.loc 1 760 41 view .LVU325
 1485 0078 1389     		ldrh	r3, [r2, #8]
 1486              		.loc 1 760 38 view .LVU326
 1487 007a 0B43     		orrs	r3, r3, r1
 1488 007c 4360     		str	r3, [r0, #4]
 761:Drivers/GD32F1x0_standard_peripheral/Source/gd32f1x0_timer.c ****             /* reset the ISO0N bit */
 762:Drivers/GD32F1x0_standard_peripheral/Source/gd32f1x0_timer.c ****             TIMER_CTL1(timer_periph) &=(uint32_t)(~TIMER_CTL1_ISO0N);
 1489              		.loc 1 762 13 is_stmt 1 view .LVU327
 1490              		.loc 1 762 38 is_stmt 0 view .LVU328
 1491 007e 4368     		ldr	r3, [r0, #4]
 1492 0080 23F40073 		bic	r3, r3, #512
 1493 0084 4360     		str	r3, [r0, #4]
 763:Drivers/GD32F1x0_standard_peripheral/Source/gd32f1x0_timer.c ****             /* set the ISO0N bit */
 764:Drivers/GD32F1x0_standard_peripheral/Source/gd32f1x0_timer.c ****             TIMER_CTL1(timer_periph) |= (uint32_t)ocpara->ocnidlestate;
 1494              		.loc 1 764 13 is_stmt 1 view .LVU329
 1495              		.loc 1 764 38 is_stmt 0 view .LVU330
 1496 0086 4168     		ldr	r1, [r0, #4]
 1497              		.loc 1 764 41 view .LVU331
 1498 0088 5389     		ldrh	r3, [r2, #10]
 1499              		.loc 1 764 38 view .LVU332
 1500 008a 0B43     		orrs	r3, r3, r1
 1501 008c 4360     		str	r3, [r0, #4]
 1502 008e 7047     		bx	lr
 1503              	.LVL71:
 1504              	.L88:
 765:Drivers/GD32F1x0_standard_peripheral/Source/gd32f1x0_timer.c ****         }
 766:Drivers/GD32F1x0_standard_peripheral/Source/gd32f1x0_timer.c ****         break;
 767:Drivers/GD32F1x0_standard_peripheral/Source/gd32f1x0_timer.c ****     /* configure TIMER_CH_1 */
 768:Drivers/GD32F1x0_standard_peripheral/Source/gd32f1x0_timer.c ****     case TIMER_CH_1:
 769:Drivers/GD32F1x0_standard_peripheral/Source/gd32f1x0_timer.c ****         /* reset the CH1EN bit */
 770:Drivers/GD32F1x0_standard_peripheral/Source/gd32f1x0_timer.c ****         TIMER_CHCTL2(timer_periph) &=(uint32_t)(~TIMER_CHCTL2_CH1EN);
 1505              		.loc 1 770 9 is_stmt 1 view .LVU333
 1506              		.loc 1 770 36 is_stmt 0 view .LVU334
 1507 0090 036A     		ldr	r3, [r0, #32]
 771:Drivers/GD32F1x0_standard_peripheral/Source/gd32f1x0_timer.c ****         /* set the CH1EN bit */
 772:Drivers/GD32F1x0_standard_peripheral/Source/gd32f1x0_timer.c ****         TIMER_CHCTL2(timer_periph) |= (uint32_t)((uint32_t)ocpara->outputstate << 4);
 1508              		.loc 1 772 50 view .LVU335
 1509 0092 1188     		ldrh	r1, [r2]
 1510              	.LVL72:
 770:Drivers/GD32F1x0_standard_peripheral/Source/gd32f1x0_timer.c ****         /* set the CH1EN bit */
 1511              		.loc 1 770 36 view .LVU336
 1512 0094 23F01003 		bic	r3, r3, #16
 1513 0098 0362     		str	r3, [r0, #32]
 1514              		.loc 1 772 9 is_stmt 1 view .LVU337
 1515              		.loc 1 772 36 is_stmt 0 view .LVU338
 1516 009a 036A     		ldr	r3, [r0, #32]
 1517 009c 43EA0113 		orr	r3, r3, r1, lsl #4
 1518 00a0 0362     		str	r3, [r0, #32]
 773:Drivers/GD32F1x0_standard_peripheral/Source/gd32f1x0_timer.c ****         /* reset the CH1P bit */
 774:Drivers/GD32F1x0_standard_peripheral/Source/gd32f1x0_timer.c ****         TIMER_CHCTL2(timer_periph) &=(uint32_t)(~TIMER_CHCTL2_CH1P);
ARM GAS  /tmp/ccP4G5CZ.s 			page 41


 1519              		.loc 1 774 9 is_stmt 1 view .LVU339
 1520              		.loc 1 774 36 is_stmt 0 view .LVU340
 1521 00a2 036A     		ldr	r3, [r0, #32]
 775:Drivers/GD32F1x0_standard_peripheral/Source/gd32f1x0_timer.c ****         /* set the CH1P bit */
 776:Drivers/GD32F1x0_standard_peripheral/Source/gd32f1x0_timer.c ****         TIMER_CHCTL2(timer_periph) |= (uint32_t)((uint32_t)ocpara->ocpolarity << 4);
 1522              		.loc 1 776 50 view .LVU341
 1523 00a4 9188     		ldrh	r1, [r2, #4]
 774:Drivers/GD32F1x0_standard_peripheral/Source/gd32f1x0_timer.c ****         /* set the CH1P bit */
 1524              		.loc 1 774 36 view .LVU342
 1525 00a6 23F02003 		bic	r3, r3, #32
 1526 00aa 0362     		str	r3, [r0, #32]
 1527              		.loc 1 776 9 is_stmt 1 view .LVU343
 1528              		.loc 1 776 36 is_stmt 0 view .LVU344
 1529 00ac 036A     		ldr	r3, [r0, #32]
 1530 00ae 43EA0113 		orr	r3, r3, r1, lsl #4
 1531 00b2 0362     		str	r3, [r0, #32]
 777:Drivers/GD32F1x0_standard_peripheral/Source/gd32f1x0_timer.c **** 
 778:Drivers/GD32F1x0_standard_peripheral/Source/gd32f1x0_timer.c ****         if((TIMER0 == timer_periph)){
 1532              		.loc 1 778 9 is_stmt 1 view .LVU345
 1533              		.loc 1 778 11 is_stmt 0 view .LVU346
 1534 00b4 484B     		ldr	r3, .L93
 1535 00b6 9842     		cmp	r0, r3
 1536 00b8 40F08D80 		bne	.L83
 779:Drivers/GD32F1x0_standard_peripheral/Source/gd32f1x0_timer.c ****             /* reset the CH1NEN bit */
 780:Drivers/GD32F1x0_standard_peripheral/Source/gd32f1x0_timer.c ****             TIMER_CHCTL2(timer_periph) &=(uint32_t)(~TIMER_CHCTL2_CH1NEN);
 1537              		.loc 1 780 13 is_stmt 1 view .LVU347
 1538              		.loc 1 780 40 is_stmt 0 view .LVU348
 1539 00bc 036A     		ldr	r3, [r0, #32]
 781:Drivers/GD32F1x0_standard_peripheral/Source/gd32f1x0_timer.c ****             /* set the CH1NEN bit */
 782:Drivers/GD32F1x0_standard_peripheral/Source/gd32f1x0_timer.c ****             TIMER_CHCTL2(timer_periph) |= (uint32_t)((uint32_t)ocpara->outputnstate << 4);
 1540              		.loc 1 782 54 view .LVU349
 1541 00be 5188     		ldrh	r1, [r2, #2]
 780:Drivers/GD32F1x0_standard_peripheral/Source/gd32f1x0_timer.c ****             /* set the CH1NEN bit */
 1542              		.loc 1 780 40 view .LVU350
 1543 00c0 23F04003 		bic	r3, r3, #64
 1544 00c4 0362     		str	r3, [r0, #32]
 1545              		.loc 1 782 13 is_stmt 1 view .LVU351
 1546              		.loc 1 782 40 is_stmt 0 view .LVU352
 1547 00c6 036A     		ldr	r3, [r0, #32]
 1548 00c8 43EA0113 		orr	r3, r3, r1, lsl #4
 1549 00cc 0362     		str	r3, [r0, #32]
 783:Drivers/GD32F1x0_standard_peripheral/Source/gd32f1x0_timer.c ****             /* reset the CH1NP bit */
 784:Drivers/GD32F1x0_standard_peripheral/Source/gd32f1x0_timer.c ****             TIMER_CHCTL2(timer_periph) &=(uint32_t)(~TIMER_CHCTL2_CH1NP);
 1550              		.loc 1 784 13 is_stmt 1 view .LVU353
 1551              		.loc 1 784 40 is_stmt 0 view .LVU354
 1552 00ce 036A     		ldr	r3, [r0, #32]
 785:Drivers/GD32F1x0_standard_peripheral/Source/gd32f1x0_timer.c ****             /* set the CH1NP bit */
 786:Drivers/GD32F1x0_standard_peripheral/Source/gd32f1x0_timer.c ****             TIMER_CHCTL2(timer_periph) |= (uint32_t)((uint32_t)ocpara->ocnpolarity << 4);
 1553              		.loc 1 786 54 view .LVU355
 1554 00d0 D188     		ldrh	r1, [r2, #6]
 784:Drivers/GD32F1x0_standard_peripheral/Source/gd32f1x0_timer.c ****             /* set the CH1NP bit */
 1555              		.loc 1 784 40 view .LVU356
 1556 00d2 23F08003 		bic	r3, r3, #128
 1557 00d6 0362     		str	r3, [r0, #32]
 1558              		.loc 1 786 13 is_stmt 1 view .LVU357
 1559              		.loc 1 786 40 is_stmt 0 view .LVU358
 1560 00d8 036A     		ldr	r3, [r0, #32]
ARM GAS  /tmp/ccP4G5CZ.s 			page 42


 1561 00da 43EA0113 		orr	r3, r3, r1, lsl #4
 1562 00de 0362     		str	r3, [r0, #32]
 787:Drivers/GD32F1x0_standard_peripheral/Source/gd32f1x0_timer.c ****             /* reset the ISO1 bit */
 788:Drivers/GD32F1x0_standard_peripheral/Source/gd32f1x0_timer.c ****             TIMER_CTL1(timer_periph) &=(uint32_t)(~TIMER_CTL1_ISO1);
 1563              		.loc 1 788 13 is_stmt 1 view .LVU359
 1564              		.loc 1 788 38 is_stmt 0 view .LVU360
 1565 00e0 3E4B     		ldr	r3, .L93+4
 789:Drivers/GD32F1x0_standard_peripheral/Source/gd32f1x0_timer.c ****             /* set the ISO1 bit */
 790:Drivers/GD32F1x0_standard_peripheral/Source/gd32f1x0_timer.c ****             TIMER_CTL1(timer_periph) |= (uint32_t)((uint32_t)ocpara->ocidlestate << 2);
 1566              		.loc 1 790 52 view .LVU361
 1567 00e2 1089     		ldrh	r0, [r2, #8]
 1568              	.LVL73:
 788:Drivers/GD32F1x0_standard_peripheral/Source/gd32f1x0_timer.c ****             /* set the ISO1 bit */
 1569              		.loc 1 788 38 view .LVU362
 1570 00e4 D3F8041C 		ldr	r1, [r3, #3076]
 791:Drivers/GD32F1x0_standard_peripheral/Source/gd32f1x0_timer.c ****             /* reset the ISO1N bit */
 792:Drivers/GD32F1x0_standard_peripheral/Source/gd32f1x0_timer.c ****             TIMER_CTL1(timer_periph) &=(uint32_t)(~TIMER_CTL1_ISO1N);
 793:Drivers/GD32F1x0_standard_peripheral/Source/gd32f1x0_timer.c ****             /* set the ISO1N bit */
 794:Drivers/GD32F1x0_standard_peripheral/Source/gd32f1x0_timer.c ****             TIMER_CTL1(timer_periph) |= (uint32_t)((uint32_t)ocpara->ocnidlestate << 2);
 1571              		.loc 1 794 52 view .LVU363
 1572 00e8 5289     		ldrh	r2, [r2, #10]
 1573              	.LVL74:
 788:Drivers/GD32F1x0_standard_peripheral/Source/gd32f1x0_timer.c ****             /* set the ISO1 bit */
 1574              		.loc 1 788 38 view .LVU364
 1575 00ea 21F48061 		bic	r1, r1, #1024
 1576 00ee C3F8041C 		str	r1, [r3, #3076]
 790:Drivers/GD32F1x0_standard_peripheral/Source/gd32f1x0_timer.c ****             /* reset the ISO1N bit */
 1577              		.loc 1 790 13 is_stmt 1 view .LVU365
 790:Drivers/GD32F1x0_standard_peripheral/Source/gd32f1x0_timer.c ****             /* reset the ISO1N bit */
 1578              		.loc 1 790 38 is_stmt 0 view .LVU366
 1579 00f2 D3F8041C 		ldr	r1, [r3, #3076]
 1580 00f6 41EA8001 		orr	r1, r1, r0, lsl #2
 1581 00fa C3F8041C 		str	r1, [r3, #3076]
 792:Drivers/GD32F1x0_standard_peripheral/Source/gd32f1x0_timer.c ****             /* set the ISO1N bit */
 1582              		.loc 1 792 13 is_stmt 1 view .LVU367
 792:Drivers/GD32F1x0_standard_peripheral/Source/gd32f1x0_timer.c ****             /* set the ISO1N bit */
 1583              		.loc 1 792 38 is_stmt 0 view .LVU368
 1584 00fe D3F8041C 		ldr	r1, [r3, #3076]
 1585 0102 21F40061 		bic	r1, r1, #2048
 1586 0106 C3F8041C 		str	r1, [r3, #3076]
 1587              		.loc 1 794 13 is_stmt 1 view .LVU369
 1588              		.loc 1 794 38 is_stmt 0 view .LVU370
 1589 010a D3F8041C 		ldr	r1, [r3, #3076]
 1590 010e 41EA8202 		orr	r2, r1, r2, lsl #2
 1591              	.L92:
 795:Drivers/GD32F1x0_standard_peripheral/Source/gd32f1x0_timer.c ****         }
 796:Drivers/GD32F1x0_standard_peripheral/Source/gd32f1x0_timer.c ****         break;
 797:Drivers/GD32F1x0_standard_peripheral/Source/gd32f1x0_timer.c ****     /* configure TIMER_CH_2 */
 798:Drivers/GD32F1x0_standard_peripheral/Source/gd32f1x0_timer.c ****     case TIMER_CH_2:
 799:Drivers/GD32F1x0_standard_peripheral/Source/gd32f1x0_timer.c ****         /* reset the CH2EN bit */
 800:Drivers/GD32F1x0_standard_peripheral/Source/gd32f1x0_timer.c ****         TIMER_CHCTL2(timer_periph) &=(uint32_t)(~TIMER_CHCTL2_CH2EN);
 801:Drivers/GD32F1x0_standard_peripheral/Source/gd32f1x0_timer.c ****         /* set the CH2EN bit */
 802:Drivers/GD32F1x0_standard_peripheral/Source/gd32f1x0_timer.c ****         TIMER_CHCTL2(timer_periph) |= (uint32_t)((uint32_t)ocpara->outputstate << 8);
 803:Drivers/GD32F1x0_standard_peripheral/Source/gd32f1x0_timer.c ****         /* reset the CH2P bit */
 804:Drivers/GD32F1x0_standard_peripheral/Source/gd32f1x0_timer.c ****         TIMER_CHCTL2(timer_periph) &=(uint32_t)(~TIMER_CHCTL2_CH2P);
 805:Drivers/GD32F1x0_standard_peripheral/Source/gd32f1x0_timer.c ****         /* set the CH2P bit */
 806:Drivers/GD32F1x0_standard_peripheral/Source/gd32f1x0_timer.c ****         TIMER_CHCTL2(timer_periph) |= (uint32_t)((uint32_t)ocpara->ocpolarity << 8);
ARM GAS  /tmp/ccP4G5CZ.s 			page 43


 807:Drivers/GD32F1x0_standard_peripheral/Source/gd32f1x0_timer.c **** 
 808:Drivers/GD32F1x0_standard_peripheral/Source/gd32f1x0_timer.c ****         if((TIMER0 == timer_periph)){
 809:Drivers/GD32F1x0_standard_peripheral/Source/gd32f1x0_timer.c ****             /* reset the CH2NEN bit */
 810:Drivers/GD32F1x0_standard_peripheral/Source/gd32f1x0_timer.c ****             TIMER_CHCTL2(timer_periph) &=(uint32_t)(~TIMER_CHCTL2_CH2NEN);
 811:Drivers/GD32F1x0_standard_peripheral/Source/gd32f1x0_timer.c ****             /* set the CH2NEN bit */
 812:Drivers/GD32F1x0_standard_peripheral/Source/gd32f1x0_timer.c ****             TIMER_CHCTL2(timer_periph) |= (uint32_t)((uint32_t)ocpara->outputnstate << 8);
 813:Drivers/GD32F1x0_standard_peripheral/Source/gd32f1x0_timer.c ****             /* reset the CH2NP bit */
 814:Drivers/GD32F1x0_standard_peripheral/Source/gd32f1x0_timer.c ****             TIMER_CHCTL2(timer_periph) &=(uint32_t)(~TIMER_CHCTL2_CH2NP);
 815:Drivers/GD32F1x0_standard_peripheral/Source/gd32f1x0_timer.c ****             /* set the CH2NP bit */
 816:Drivers/GD32F1x0_standard_peripheral/Source/gd32f1x0_timer.c ****             TIMER_CHCTL2(timer_periph) |= (uint32_t)((uint32_t)ocpara->ocnpolarity << 8);
 817:Drivers/GD32F1x0_standard_peripheral/Source/gd32f1x0_timer.c ****             /* reset the ISO2 bit */
 818:Drivers/GD32F1x0_standard_peripheral/Source/gd32f1x0_timer.c ****             TIMER_CTL1(timer_periph) &=(uint32_t)(~TIMER_CTL1_ISO2);
 819:Drivers/GD32F1x0_standard_peripheral/Source/gd32f1x0_timer.c ****             /* set the ISO2 bit */
 820:Drivers/GD32F1x0_standard_peripheral/Source/gd32f1x0_timer.c ****             TIMER_CTL1(timer_periph) |= (uint32_t)((uint32_t)ocpara->ocidlestate << 4);
 821:Drivers/GD32F1x0_standard_peripheral/Source/gd32f1x0_timer.c ****             /* reset the ISO2N bit */
 822:Drivers/GD32F1x0_standard_peripheral/Source/gd32f1x0_timer.c ****             TIMER_CTL1(timer_periph) &=(uint32_t)(~TIMER_CTL1_ISO2N);
 823:Drivers/GD32F1x0_standard_peripheral/Source/gd32f1x0_timer.c ****             /* set the ISO2N bit */
 824:Drivers/GD32F1x0_standard_peripheral/Source/gd32f1x0_timer.c ****             TIMER_CTL1(timer_periph) |= (uint32_t)((uint32_t)ocpara->ocnidlestate << 4);
 1592              		.loc 1 824 38 view .LVU371
 1593 0112 C3F8042C 		str	r2, [r3, #3076]
 1594 0116 7047     		bx	lr
 1595              	.LVL75:
 1596              	.L87:
 800:Drivers/GD32F1x0_standard_peripheral/Source/gd32f1x0_timer.c ****         /* set the CH2EN bit */
 1597              		.loc 1 800 9 is_stmt 1 view .LVU372
 800:Drivers/GD32F1x0_standard_peripheral/Source/gd32f1x0_timer.c ****         /* set the CH2EN bit */
 1598              		.loc 1 800 36 is_stmt 0 view .LVU373
 1599 0118 036A     		ldr	r3, [r0, #32]
 802:Drivers/GD32F1x0_standard_peripheral/Source/gd32f1x0_timer.c ****         /* reset the CH2P bit */
 1600              		.loc 1 802 50 view .LVU374
 1601 011a 1188     		ldrh	r1, [r2]
 1602              	.LVL76:
 800:Drivers/GD32F1x0_standard_peripheral/Source/gd32f1x0_timer.c ****         /* set the CH2EN bit */
 1603              		.loc 1 800 36 view .LVU375
 1604 011c 23F48073 		bic	r3, r3, #256
 1605 0120 0362     		str	r3, [r0, #32]
 802:Drivers/GD32F1x0_standard_peripheral/Source/gd32f1x0_timer.c ****         /* reset the CH2P bit */
 1606              		.loc 1 802 9 is_stmt 1 view .LVU376
 802:Drivers/GD32F1x0_standard_peripheral/Source/gd32f1x0_timer.c ****         /* reset the CH2P bit */
 1607              		.loc 1 802 36 is_stmt 0 view .LVU377
 1608 0122 036A     		ldr	r3, [r0, #32]
 1609 0124 43EA0123 		orr	r3, r3, r1, lsl #8
 1610 0128 0362     		str	r3, [r0, #32]
 804:Drivers/GD32F1x0_standard_peripheral/Source/gd32f1x0_timer.c ****         /* set the CH2P bit */
 1611              		.loc 1 804 9 is_stmt 1 view .LVU378
 804:Drivers/GD32F1x0_standard_peripheral/Source/gd32f1x0_timer.c ****         /* set the CH2P bit */
 1612              		.loc 1 804 36 is_stmt 0 view .LVU379
 1613 012a 036A     		ldr	r3, [r0, #32]
 806:Drivers/GD32F1x0_standard_peripheral/Source/gd32f1x0_timer.c **** 
 1614              		.loc 1 806 50 view .LVU380
 1615 012c 9188     		ldrh	r1, [r2, #4]
 804:Drivers/GD32F1x0_standard_peripheral/Source/gd32f1x0_timer.c ****         /* set the CH2P bit */
 1616              		.loc 1 804 36 view .LVU381
 1617 012e 23F40073 		bic	r3, r3, #512
 1618 0132 0362     		str	r3, [r0, #32]
 806:Drivers/GD32F1x0_standard_peripheral/Source/gd32f1x0_timer.c **** 
 1619              		.loc 1 806 9 is_stmt 1 view .LVU382
ARM GAS  /tmp/ccP4G5CZ.s 			page 44


 806:Drivers/GD32F1x0_standard_peripheral/Source/gd32f1x0_timer.c **** 
 1620              		.loc 1 806 36 is_stmt 0 view .LVU383
 1621 0134 036A     		ldr	r3, [r0, #32]
 1622 0136 43EA0123 		orr	r3, r3, r1, lsl #8
 1623 013a 0362     		str	r3, [r0, #32]
 808:Drivers/GD32F1x0_standard_peripheral/Source/gd32f1x0_timer.c ****             /* reset the CH2NEN bit */
 1624              		.loc 1 808 9 is_stmt 1 view .LVU384
 808:Drivers/GD32F1x0_standard_peripheral/Source/gd32f1x0_timer.c ****             /* reset the CH2NEN bit */
 1625              		.loc 1 808 11 is_stmt 0 view .LVU385
 1626 013c 264B     		ldr	r3, .L93
 1627 013e 9842     		cmp	r0, r3
 1628 0140 49D1     		bne	.L83
 810:Drivers/GD32F1x0_standard_peripheral/Source/gd32f1x0_timer.c ****             /* set the CH2NEN bit */
 1629              		.loc 1 810 13 is_stmt 1 view .LVU386
 810:Drivers/GD32F1x0_standard_peripheral/Source/gd32f1x0_timer.c ****             /* set the CH2NEN bit */
 1630              		.loc 1 810 40 is_stmt 0 view .LVU387
 1631 0142 036A     		ldr	r3, [r0, #32]
 812:Drivers/GD32F1x0_standard_peripheral/Source/gd32f1x0_timer.c ****             /* reset the CH2NP bit */
 1632              		.loc 1 812 54 view .LVU388
 1633 0144 5188     		ldrh	r1, [r2, #2]
 810:Drivers/GD32F1x0_standard_peripheral/Source/gd32f1x0_timer.c ****             /* set the CH2NEN bit */
 1634              		.loc 1 810 40 view .LVU389
 1635 0146 23F48063 		bic	r3, r3, #1024
 1636 014a 0362     		str	r3, [r0, #32]
 812:Drivers/GD32F1x0_standard_peripheral/Source/gd32f1x0_timer.c ****             /* reset the CH2NP bit */
 1637              		.loc 1 812 13 is_stmt 1 view .LVU390
 812:Drivers/GD32F1x0_standard_peripheral/Source/gd32f1x0_timer.c ****             /* reset the CH2NP bit */
 1638              		.loc 1 812 40 is_stmt 0 view .LVU391
 1639 014c 036A     		ldr	r3, [r0, #32]
 1640 014e 43EA0123 		orr	r3, r3, r1, lsl #8
 1641 0152 0362     		str	r3, [r0, #32]
 814:Drivers/GD32F1x0_standard_peripheral/Source/gd32f1x0_timer.c ****             /* set the CH2NP bit */
 1642              		.loc 1 814 13 is_stmt 1 view .LVU392
 814:Drivers/GD32F1x0_standard_peripheral/Source/gd32f1x0_timer.c ****             /* set the CH2NP bit */
 1643              		.loc 1 814 40 is_stmt 0 view .LVU393
 1644 0154 036A     		ldr	r3, [r0, #32]
 816:Drivers/GD32F1x0_standard_peripheral/Source/gd32f1x0_timer.c ****             /* reset the ISO2 bit */
 1645              		.loc 1 816 54 view .LVU394
 1646 0156 D188     		ldrh	r1, [r2, #6]
 814:Drivers/GD32F1x0_standard_peripheral/Source/gd32f1x0_timer.c ****             /* set the CH2NP bit */
 1647              		.loc 1 814 40 view .LVU395
 1648 0158 23F40063 		bic	r3, r3, #2048
 1649 015c 0362     		str	r3, [r0, #32]
 816:Drivers/GD32F1x0_standard_peripheral/Source/gd32f1x0_timer.c ****             /* reset the ISO2 bit */
 1650              		.loc 1 816 13 is_stmt 1 view .LVU396
 816:Drivers/GD32F1x0_standard_peripheral/Source/gd32f1x0_timer.c ****             /* reset the ISO2 bit */
 1651              		.loc 1 816 40 is_stmt 0 view .LVU397
 1652 015e 036A     		ldr	r3, [r0, #32]
 1653 0160 43EA0123 		orr	r3, r3, r1, lsl #8
 1654 0164 0362     		str	r3, [r0, #32]
 818:Drivers/GD32F1x0_standard_peripheral/Source/gd32f1x0_timer.c ****             /* set the ISO2 bit */
 1655              		.loc 1 818 13 is_stmt 1 view .LVU398
 818:Drivers/GD32F1x0_standard_peripheral/Source/gd32f1x0_timer.c ****             /* set the ISO2 bit */
 1656              		.loc 1 818 38 is_stmt 0 view .LVU399
 1657 0166 1D4B     		ldr	r3, .L93+4
 820:Drivers/GD32F1x0_standard_peripheral/Source/gd32f1x0_timer.c ****             /* reset the ISO2N bit */
 1658              		.loc 1 820 52 view .LVU400
ARM GAS  /tmp/ccP4G5CZ.s 			page 45


 1659 0168 1089     		ldrh	r0, [r2, #8]
 1660              	.LVL77:
 818:Drivers/GD32F1x0_standard_peripheral/Source/gd32f1x0_timer.c ****             /* set the ISO2 bit */
 1661              		.loc 1 818 38 view .LVU401
 1662 016a D3F8041C 		ldr	r1, [r3, #3076]
 1663              		.loc 1 824 52 view .LVU402
 1664 016e 5289     		ldrh	r2, [r2, #10]
 1665              	.LVL78:
 818:Drivers/GD32F1x0_standard_peripheral/Source/gd32f1x0_timer.c ****             /* set the ISO2 bit */
 1666              		.loc 1 818 38 view .LVU403
 1667 0170 21F48051 		bic	r1, r1, #4096
 1668 0174 C3F8041C 		str	r1, [r3, #3076]
 820:Drivers/GD32F1x0_standard_peripheral/Source/gd32f1x0_timer.c ****             /* reset the ISO2N bit */
 1669              		.loc 1 820 13 is_stmt 1 view .LVU404
 820:Drivers/GD32F1x0_standard_peripheral/Source/gd32f1x0_timer.c ****             /* reset the ISO2N bit */
 1670              		.loc 1 820 38 is_stmt 0 view .LVU405
 1671 0178 D3F8041C 		ldr	r1, [r3, #3076]
 1672 017c 41EA0011 		orr	r1, r1, r0, lsl #4
 1673 0180 C3F8041C 		str	r1, [r3, #3076]
 822:Drivers/GD32F1x0_standard_peripheral/Source/gd32f1x0_timer.c ****             /* set the ISO2N bit */
 1674              		.loc 1 822 13 is_stmt 1 view .LVU406
 822:Drivers/GD32F1x0_standard_peripheral/Source/gd32f1x0_timer.c ****             /* set the ISO2N bit */
 1675              		.loc 1 822 38 is_stmt 0 view .LVU407
 1676 0184 D3F8041C 		ldr	r1, [r3, #3076]
 1677 0188 21F40051 		bic	r1, r1, #8192
 1678 018c C3F8041C 		str	r1, [r3, #3076]
 1679              		.loc 1 824 13 is_stmt 1 view .LVU408
 1680              		.loc 1 824 38 is_stmt 0 view .LVU409
 1681 0190 D3F8041C 		ldr	r1, [r3, #3076]
 1682 0194 41EA0212 		orr	r2, r1, r2, lsl #4
 1683 0198 BBE7     		b	.L92
 1684              	.LVL79:
 1685              	.L85:
 825:Drivers/GD32F1x0_standard_peripheral/Source/gd32f1x0_timer.c ****         }
 826:Drivers/GD32F1x0_standard_peripheral/Source/gd32f1x0_timer.c ****         break;
 827:Drivers/GD32F1x0_standard_peripheral/Source/gd32f1x0_timer.c ****     /* configure TIMER_CH_3 */
 828:Drivers/GD32F1x0_standard_peripheral/Source/gd32f1x0_timer.c ****     case TIMER_CH_3:
 829:Drivers/GD32F1x0_standard_peripheral/Source/gd32f1x0_timer.c ****         /* reset the CH3EN bit */
 830:Drivers/GD32F1x0_standard_peripheral/Source/gd32f1x0_timer.c ****         TIMER_CHCTL2(timer_periph) &=(uint32_t)(~TIMER_CHCTL2_CH3EN);
 1686              		.loc 1 830 9 is_stmt 1 view .LVU410
 1687              		.loc 1 830 36 is_stmt 0 view .LVU411
 1688 019a 036A     		ldr	r3, [r0, #32]
 831:Drivers/GD32F1x0_standard_peripheral/Source/gd32f1x0_timer.c ****         /* set the CH3EN bit */
 832:Drivers/GD32F1x0_standard_peripheral/Source/gd32f1x0_timer.c ****         TIMER_CHCTL2(timer_periph) |= (uint32_t)((uint32_t)ocpara->outputstate << 12);
 1689              		.loc 1 832 50 view .LVU412
 1690 019c 1188     		ldrh	r1, [r2]
 1691              	.LVL80:
 830:Drivers/GD32F1x0_standard_peripheral/Source/gd32f1x0_timer.c ****         /* set the CH3EN bit */
 1692              		.loc 1 830 36 view .LVU413
 1693 019e 23F48053 		bic	r3, r3, #4096
 1694 01a2 0362     		str	r3, [r0, #32]
 1695              		.loc 1 832 9 is_stmt 1 view .LVU414
 1696              		.loc 1 832 36 is_stmt 0 view .LVU415
 1697 01a4 036A     		ldr	r3, [r0, #32]
 1698 01a6 43EA0133 		orr	r3, r3, r1, lsl #12
 1699 01aa 0362     		str	r3, [r0, #32]
 833:Drivers/GD32F1x0_standard_peripheral/Source/gd32f1x0_timer.c ****         /* reset the CH3P bit */
ARM GAS  /tmp/ccP4G5CZ.s 			page 46


 834:Drivers/GD32F1x0_standard_peripheral/Source/gd32f1x0_timer.c ****         TIMER_CHCTL2(timer_periph) &=(uint32_t)(~TIMER_CHCTL2_CH3P);
 1700              		.loc 1 834 9 is_stmt 1 view .LVU416
 1701              		.loc 1 834 36 is_stmt 0 view .LVU417
 1702 01ac 036A     		ldr	r3, [r0, #32]
 835:Drivers/GD32F1x0_standard_peripheral/Source/gd32f1x0_timer.c ****         /* set the CH3P bit */
 836:Drivers/GD32F1x0_standard_peripheral/Source/gd32f1x0_timer.c ****         TIMER_CHCTL2(timer_periph) |= (uint32_t)((uint32_t)ocpara->ocpolarity << 12);
 1703              		.loc 1 836 50 view .LVU418
 1704 01ae 9188     		ldrh	r1, [r2, #4]
 834:Drivers/GD32F1x0_standard_peripheral/Source/gd32f1x0_timer.c ****         /* set the CH3P bit */
 1705              		.loc 1 834 36 view .LVU419
 1706 01b0 23F40053 		bic	r3, r3, #8192
 1707 01b4 0362     		str	r3, [r0, #32]
 1708              		.loc 1 836 9 is_stmt 1 view .LVU420
 1709              		.loc 1 836 36 is_stmt 0 view .LVU421
 1710 01b6 036A     		ldr	r3, [r0, #32]
 1711 01b8 43EA0133 		orr	r3, r3, r1, lsl #12
 1712 01bc 0362     		str	r3, [r0, #32]
 837:Drivers/GD32F1x0_standard_peripheral/Source/gd32f1x0_timer.c **** 
 838:Drivers/GD32F1x0_standard_peripheral/Source/gd32f1x0_timer.c ****         if((TIMER0 == timer_periph)){
 1713              		.loc 1 838 9 is_stmt 1 view .LVU422
 1714              		.loc 1 838 11 is_stmt 0 view .LVU423
 1715 01be 064B     		ldr	r3, .L93
 1716 01c0 9842     		cmp	r0, r3
 1717 01c2 08D1     		bne	.L83
 839:Drivers/GD32F1x0_standard_peripheral/Source/gd32f1x0_timer.c ****             /* reset the ISO3 bit */
 840:Drivers/GD32F1x0_standard_peripheral/Source/gd32f1x0_timer.c ****             TIMER_CTL1(timer_periph) &=(uint32_t)(~TIMER_CTL1_ISO3);
 1718              		.loc 1 840 13 is_stmt 1 view .LVU424
 1719              		.loc 1 840 38 is_stmt 0 view .LVU425
 1720 01c4 5968     		ldr	r1, [r3, #4]
 841:Drivers/GD32F1x0_standard_peripheral/Source/gd32f1x0_timer.c ****             /* set the ISO3 bit */
 842:Drivers/GD32F1x0_standard_peripheral/Source/gd32f1x0_timer.c ****             TIMER_CTL1(timer_periph) |= (uint32_t)((uint32_t)ocpara->ocidlestate << 6);
 1721              		.loc 1 842 52 view .LVU426
 1722 01c6 1289     		ldrh	r2, [r2, #8]
 1723              	.LVL81:
 840:Drivers/GD32F1x0_standard_peripheral/Source/gd32f1x0_timer.c ****             /* set the ISO3 bit */
 1724              		.loc 1 840 38 view .LVU427
 1725 01c8 21F48041 		bic	r1, r1, #16384
 1726 01cc 5960     		str	r1, [r3, #4]
 1727              		.loc 1 842 13 is_stmt 1 view .LVU428
 1728              		.loc 1 842 38 is_stmt 0 view .LVU429
 1729 01ce 5968     		ldr	r1, [r3, #4]
 1730 01d0 41EA8212 		orr	r2, r1, r2, lsl #6
 1731 01d4 5A60     		str	r2, [r3, #4]
 1732              	.L83:
 843:Drivers/GD32F1x0_standard_peripheral/Source/gd32f1x0_timer.c ****         }
 844:Drivers/GD32F1x0_standard_peripheral/Source/gd32f1x0_timer.c ****         break;
 845:Drivers/GD32F1x0_standard_peripheral/Source/gd32f1x0_timer.c ****     default:
 846:Drivers/GD32F1x0_standard_peripheral/Source/gd32f1x0_timer.c ****         break;
 847:Drivers/GD32F1x0_standard_peripheral/Source/gd32f1x0_timer.c ****     }
 848:Drivers/GD32F1x0_standard_peripheral/Source/gd32f1x0_timer.c **** }
 1733              		.loc 1 848 1 view .LVU430
 1734 01d6 7047     		bx	lr
 1735              	.L94:
 1736              		.align	2
 1737              	.L93:
 1738 01d8 002C0140 		.word	1073818624
 1739 01dc 00200140 		.word	1073815552
ARM GAS  /tmp/ccP4G5CZ.s 			page 47


 1740              		.cfi_endproc
 1741              	.LFE94:
 1743              		.section	.text.timer_channel_output_mode_config,"ax",%progbits
 1744              		.align	1
 1745              		.global	timer_channel_output_mode_config
 1746              		.syntax unified
 1747              		.thumb
 1748              		.thumb_func
 1749              		.fpu softvfp
 1751              	timer_channel_output_mode_config:
 1752              	.LVL82:
 1753              	.LFB95:
 849:Drivers/GD32F1x0_standard_peripheral/Source/gd32f1x0_timer.c **** 
 850:Drivers/GD32F1x0_standard_peripheral/Source/gd32f1x0_timer.c **** /*!
 851:Drivers/GD32F1x0_standard_peripheral/Source/gd32f1x0_timer.c ****     \brief      configure TIMER channel output compare mode
 852:Drivers/GD32F1x0_standard_peripheral/Source/gd32f1x0_timer.c ****     \param[in]  timer_periph: TIMERx(x=0,1,2,13,14,15,16)
 853:Drivers/GD32F1x0_standard_peripheral/Source/gd32f1x0_timer.c ****     \param[in]  channel: 
 854:Drivers/GD32F1x0_standard_peripheral/Source/gd32f1x0_timer.c ****       \arg        TIMER_CH_0: TIMER channel0(TIMERx(x=0,1,2,13,14,15,16))
 855:Drivers/GD32F1x0_standard_peripheral/Source/gd32f1x0_timer.c ****       \arg        TIMER_CH_1: TIMER channel1(TIMERx(x=0,1,2,14))
 856:Drivers/GD32F1x0_standard_peripheral/Source/gd32f1x0_timer.c ****       \arg        TIMER_CH_2: TIMER channel2(TIMERx(x=0,1,2))
 857:Drivers/GD32F1x0_standard_peripheral/Source/gd32f1x0_timer.c ****       \arg        TIMER_CH_3: TIMER channel3(TIMERx(x=0,1,2))
 858:Drivers/GD32F1x0_standard_peripheral/Source/gd32f1x0_timer.c ****     \param[in]  ocmode: channel output compare mode
 859:Drivers/GD32F1x0_standard_peripheral/Source/gd32f1x0_timer.c ****       \arg        TIMER_OC_MODE_TIMING: timing mode
 860:Drivers/GD32F1x0_standard_peripheral/Source/gd32f1x0_timer.c ****       \arg        TIMER_OC_MODE_ACTIVE: active mode
 861:Drivers/GD32F1x0_standard_peripheral/Source/gd32f1x0_timer.c ****       \arg        TIMER_OC_MODE_INACTIVE: inactive mode
 862:Drivers/GD32F1x0_standard_peripheral/Source/gd32f1x0_timer.c ****       \arg        TIMER_OC_MODE_TOGGLE: toggle mode
 863:Drivers/GD32F1x0_standard_peripheral/Source/gd32f1x0_timer.c ****       \arg        TIMER_OC_MODE_LOW: force low mode
 864:Drivers/GD32F1x0_standard_peripheral/Source/gd32f1x0_timer.c ****       \arg        TIMER_OC_MODE_HIGH: force high mode
 865:Drivers/GD32F1x0_standard_peripheral/Source/gd32f1x0_timer.c ****       \arg        TIMER_OC_MODE_PWM0: PWM0 mode
 866:Drivers/GD32F1x0_standard_peripheral/Source/gd32f1x0_timer.c ****       \arg        TIMER_OC_MODE_PWM1: PWM1 mode
 867:Drivers/GD32F1x0_standard_peripheral/Source/gd32f1x0_timer.c ****     \param[out] none
 868:Drivers/GD32F1x0_standard_peripheral/Source/gd32f1x0_timer.c ****     \retval     none
 869:Drivers/GD32F1x0_standard_peripheral/Source/gd32f1x0_timer.c **** */
 870:Drivers/GD32F1x0_standard_peripheral/Source/gd32f1x0_timer.c **** void timer_channel_output_mode_config(uint32_t timer_periph, uint16_t channel, uint16_t ocmode)
 871:Drivers/GD32F1x0_standard_peripheral/Source/gd32f1x0_timer.c **** {
 1754              		.loc 1 871 1 is_stmt 1 view -0
 1755              		.cfi_startproc
 1756              		@ args = 0, pretend = 0, frame = 0
 1757              		@ frame_needed = 0, uses_anonymous_args = 0
 1758              		@ link register save eliminated.
 872:Drivers/GD32F1x0_standard_peripheral/Source/gd32f1x0_timer.c ****     switch(channel){
 1759              		.loc 1 872 5 view .LVU432
 1760 0000 0329     		cmp	r1, #3
 1761 0002 1AD8     		bhi	.L95
 1762 0004 DFE801F0 		tbb	[pc, r1]
 1763              	.L98:
 1764 0008 02       		.byte	(.L101-.L98)/2
 1765 0009 0A       		.byte	(.L100-.L98)/2
 1766 000a 12       		.byte	(.L99-.L98)/2
 1767 000b 1A       		.byte	(.L97-.L98)/2
 1768              		.p2align 1
 1769              	.L101:
 873:Drivers/GD32F1x0_standard_peripheral/Source/gd32f1x0_timer.c ****     /* configure TIMER_CH_0 */
 874:Drivers/GD32F1x0_standard_peripheral/Source/gd32f1x0_timer.c ****     case TIMER_CH_0:
 875:Drivers/GD32F1x0_standard_peripheral/Source/gd32f1x0_timer.c ****         TIMER_CHCTL0(timer_periph) &=(uint32_t)(~TIMER_CHCTL0_CH0COMCTL);
 1770              		.loc 1 875 9 view .LVU433
 1771              		.loc 1 875 36 is_stmt 0 view .LVU434
ARM GAS  /tmp/ccP4G5CZ.s 			page 48


 1772 000c 8369     		ldr	r3, [r0, #24]
 1773 000e 23F07003 		bic	r3, r3, #112
 1774 0012 8361     		str	r3, [r0, #24]
 876:Drivers/GD32F1x0_standard_peripheral/Source/gd32f1x0_timer.c ****         TIMER_CHCTL0(timer_periph) |= (uint32_t)ocmode;
 1775              		.loc 1 876 9 is_stmt 1 view .LVU435
 1776              		.loc 1 876 36 is_stmt 0 view .LVU436
 1777 0014 8369     		ldr	r3, [r0, #24]
 1778 0016 1A43     		orrs	r2, r2, r3
 1779              	.LVL83:
 1780              	.L102:
 877:Drivers/GD32F1x0_standard_peripheral/Source/gd32f1x0_timer.c ****         break;
 878:Drivers/GD32F1x0_standard_peripheral/Source/gd32f1x0_timer.c ****     /* configure TIMER_CH_1 */
 879:Drivers/GD32F1x0_standard_peripheral/Source/gd32f1x0_timer.c ****     case TIMER_CH_1:
 880:Drivers/GD32F1x0_standard_peripheral/Source/gd32f1x0_timer.c ****         TIMER_CHCTL0(timer_periph) &=(uint32_t)(~TIMER_CHCTL0_CH1COMCTL);
 881:Drivers/GD32F1x0_standard_peripheral/Source/gd32f1x0_timer.c ****         TIMER_CHCTL0(timer_periph) |= (uint32_t)((uint32_t)ocmode << 8);
 1781              		.loc 1 881 36 view .LVU437
 1782 0018 8261     		str	r2, [r0, #24]
 882:Drivers/GD32F1x0_standard_peripheral/Source/gd32f1x0_timer.c ****         break;
 1783              		.loc 1 882 9 is_stmt 1 view .LVU438
 1784 001a 7047     		bx	lr
 1785              	.LVL84:
 1786              	.L100:
 880:Drivers/GD32F1x0_standard_peripheral/Source/gd32f1x0_timer.c ****         TIMER_CHCTL0(timer_periph) |= (uint32_t)((uint32_t)ocmode << 8);
 1787              		.loc 1 880 9 view .LVU439
 880:Drivers/GD32F1x0_standard_peripheral/Source/gd32f1x0_timer.c ****         TIMER_CHCTL0(timer_periph) |= (uint32_t)((uint32_t)ocmode << 8);
 1788              		.loc 1 880 36 is_stmt 0 view .LVU440
 1789 001c 8369     		ldr	r3, [r0, #24]
 1790 001e 23F4E043 		bic	r3, r3, #28672
 1791 0022 8361     		str	r3, [r0, #24]
 881:Drivers/GD32F1x0_standard_peripheral/Source/gd32f1x0_timer.c ****         break;
 1792              		.loc 1 881 9 is_stmt 1 view .LVU441
 881:Drivers/GD32F1x0_standard_peripheral/Source/gd32f1x0_timer.c ****         break;
 1793              		.loc 1 881 36 is_stmt 0 view .LVU442
 1794 0024 8369     		ldr	r3, [r0, #24]
 1795 0026 43EA0222 		orr	r2, r3, r2, lsl #8
 1796              	.LVL85:
 881:Drivers/GD32F1x0_standard_peripheral/Source/gd32f1x0_timer.c ****         break;
 1797              		.loc 1 881 36 view .LVU443
 1798 002a F5E7     		b	.L102
 1799              	.LVL86:
 1800              	.L99:
 883:Drivers/GD32F1x0_standard_peripheral/Source/gd32f1x0_timer.c ****     /* configure TIMER_CH_2 */
 884:Drivers/GD32F1x0_standard_peripheral/Source/gd32f1x0_timer.c ****     case TIMER_CH_2:
 885:Drivers/GD32F1x0_standard_peripheral/Source/gd32f1x0_timer.c ****         TIMER_CHCTL1(timer_periph) &=(uint32_t)(~TIMER_CHCTL1_CH2COMCTL);
 1801              		.loc 1 885 9 is_stmt 1 view .LVU444
 1802              		.loc 1 885 36 is_stmt 0 view .LVU445
 1803 002c C369     		ldr	r3, [r0, #28]
 1804 002e 23F07003 		bic	r3, r3, #112
 1805 0032 C361     		str	r3, [r0, #28]
 886:Drivers/GD32F1x0_standard_peripheral/Source/gd32f1x0_timer.c ****         TIMER_CHCTL1(timer_periph) |= (uint32_t)ocmode;
 1806              		.loc 1 886 9 is_stmt 1 view .LVU446
 1807              		.loc 1 886 36 is_stmt 0 view .LVU447
 1808 0034 C369     		ldr	r3, [r0, #28]
 1809 0036 1A43     		orrs	r2, r2, r3
 1810              	.LVL87:
 1811              	.L103:
 887:Drivers/GD32F1x0_standard_peripheral/Source/gd32f1x0_timer.c ****         break;
ARM GAS  /tmp/ccP4G5CZ.s 			page 49


 888:Drivers/GD32F1x0_standard_peripheral/Source/gd32f1x0_timer.c ****     /* configure TIMER_CH_3 */
 889:Drivers/GD32F1x0_standard_peripheral/Source/gd32f1x0_timer.c ****     case TIMER_CH_3:
 890:Drivers/GD32F1x0_standard_peripheral/Source/gd32f1x0_timer.c ****         TIMER_CHCTL1(timer_periph) &=(uint32_t)(~TIMER_CHCTL1_CH3COMCTL);
 891:Drivers/GD32F1x0_standard_peripheral/Source/gd32f1x0_timer.c ****         TIMER_CHCTL1(timer_periph) |= (uint32_t)((uint32_t)ocmode << 8);
 1812              		.loc 1 891 36 view .LVU448
 1813 0038 C261     		str	r2, [r0, #28]
 892:Drivers/GD32F1x0_standard_peripheral/Source/gd32f1x0_timer.c ****         break;
 1814              		.loc 1 892 9 is_stmt 1 view .LVU449
 1815              	.L95:
 893:Drivers/GD32F1x0_standard_peripheral/Source/gd32f1x0_timer.c ****     default:
 894:Drivers/GD32F1x0_standard_peripheral/Source/gd32f1x0_timer.c ****         break;
 895:Drivers/GD32F1x0_standard_peripheral/Source/gd32f1x0_timer.c ****     }
 896:Drivers/GD32F1x0_standard_peripheral/Source/gd32f1x0_timer.c **** }
 1816              		.loc 1 896 1 is_stmt 0 view .LVU450
 1817 003a 7047     		bx	lr
 1818              	.LVL88:
 1819              	.L97:
 890:Drivers/GD32F1x0_standard_peripheral/Source/gd32f1x0_timer.c ****         TIMER_CHCTL1(timer_periph) |= (uint32_t)((uint32_t)ocmode << 8);
 1820              		.loc 1 890 9 is_stmt 1 view .LVU451
 890:Drivers/GD32F1x0_standard_peripheral/Source/gd32f1x0_timer.c ****         TIMER_CHCTL1(timer_periph) |= (uint32_t)((uint32_t)ocmode << 8);
 1821              		.loc 1 890 36 is_stmt 0 view .LVU452
 1822 003c C369     		ldr	r3, [r0, #28]
 1823 003e 23F4E043 		bic	r3, r3, #28672
 1824 0042 C361     		str	r3, [r0, #28]
 891:Drivers/GD32F1x0_standard_peripheral/Source/gd32f1x0_timer.c ****         break;
 1825              		.loc 1 891 9 is_stmt 1 view .LVU453
 891:Drivers/GD32F1x0_standard_peripheral/Source/gd32f1x0_timer.c ****         break;
 1826              		.loc 1 891 36 is_stmt 0 view .LVU454
 1827 0044 C369     		ldr	r3, [r0, #28]
 1828 0046 43EA0222 		orr	r2, r3, r2, lsl #8
 1829              	.LVL89:
 891:Drivers/GD32F1x0_standard_peripheral/Source/gd32f1x0_timer.c ****         break;
 1830              		.loc 1 891 36 view .LVU455
 1831 004a F5E7     		b	.L103
 1832              		.cfi_endproc
 1833              	.LFE95:
 1835              		.section	.text.timer_channel_output_pulse_value_config,"ax",%progbits
 1836              		.align	1
 1837              		.global	timer_channel_output_pulse_value_config
 1838              		.syntax unified
 1839              		.thumb
 1840              		.thumb_func
 1841              		.fpu softvfp
 1843              	timer_channel_output_pulse_value_config:
 1844              	.LVL90:
 1845              	.LFB96:
 897:Drivers/GD32F1x0_standard_peripheral/Source/gd32f1x0_timer.c **** 
 898:Drivers/GD32F1x0_standard_peripheral/Source/gd32f1x0_timer.c **** /*!
 899:Drivers/GD32F1x0_standard_peripheral/Source/gd32f1x0_timer.c ****     \brief      configure TIMER channel output pulse value
 900:Drivers/GD32F1x0_standard_peripheral/Source/gd32f1x0_timer.c ****     \param[in]  timer_periph: TIMERx(x=0,1,2,13,14,15,16)
 901:Drivers/GD32F1x0_standard_peripheral/Source/gd32f1x0_timer.c ****     \param[in]  channel: 
 902:Drivers/GD32F1x0_standard_peripheral/Source/gd32f1x0_timer.c ****       \arg        TIMER_CH_0: TIMER channel0(TIMERx(x=0,1,2,13,14,15,16))
 903:Drivers/GD32F1x0_standard_peripheral/Source/gd32f1x0_timer.c ****       \arg        TIMER_CH_1: TIMER channel1(TIMERx(x=0,1,2,14))
 904:Drivers/GD32F1x0_standard_peripheral/Source/gd32f1x0_timer.c ****       \arg        TIMER_CH_2: TIMER channel2(TIMERx(x=0,1,2))
 905:Drivers/GD32F1x0_standard_peripheral/Source/gd32f1x0_timer.c ****       \arg        TIMER_CH_3: TIMER channel3(TIMERx(x=0,1,2))
 906:Drivers/GD32F1x0_standard_peripheral/Source/gd32f1x0_timer.c ****     \param[in]  pulse: channel output pulse value
 907:Drivers/GD32F1x0_standard_peripheral/Source/gd32f1x0_timer.c ****     \param[out] none
ARM GAS  /tmp/ccP4G5CZ.s 			page 50


 908:Drivers/GD32F1x0_standard_peripheral/Source/gd32f1x0_timer.c ****     \retval     none
 909:Drivers/GD32F1x0_standard_peripheral/Source/gd32f1x0_timer.c **** */
 910:Drivers/GD32F1x0_standard_peripheral/Source/gd32f1x0_timer.c **** void timer_channel_output_pulse_value_config(uint32_t timer_periph, uint16_t channel, uint32_t puls
 911:Drivers/GD32F1x0_standard_peripheral/Source/gd32f1x0_timer.c **** {
 1846              		.loc 1 911 1 is_stmt 1 view -0
 1847              		.cfi_startproc
 1848              		@ args = 0, pretend = 0, frame = 0
 1849              		@ frame_needed = 0, uses_anonymous_args = 0
 1850              		@ link register save eliminated.
 912:Drivers/GD32F1x0_standard_peripheral/Source/gd32f1x0_timer.c ****     switch(channel){
 1851              		.loc 1 912 5 view .LVU457
 1852 0000 0329     		cmp	r1, #3
 1853 0002 0AD8     		bhi	.L104
 1854 0004 DFE801F0 		tbb	[pc, r1]
 1855              	.L107:
 1856 0008 02       		.byte	(.L110-.L107)/2
 1857 0009 04       		.byte	(.L109-.L107)/2
 1858 000a 06       		.byte	(.L108-.L107)/2
 1859 000b 08       		.byte	(.L106-.L107)/2
 1860              		.p2align 1
 1861              	.L110:
 913:Drivers/GD32F1x0_standard_peripheral/Source/gd32f1x0_timer.c ****     /* configure TIMER_CH_0 */
 914:Drivers/GD32F1x0_standard_peripheral/Source/gd32f1x0_timer.c ****     case TIMER_CH_0:
 915:Drivers/GD32F1x0_standard_peripheral/Source/gd32f1x0_timer.c ****         TIMER_CH0CV(timer_periph) = (uint32_t)pulse;
 1862              		.loc 1 915 9 view .LVU458
 1863              		.loc 1 915 35 is_stmt 0 view .LVU459
 1864 000c 4263     		str	r2, [r0, #52]
 916:Drivers/GD32F1x0_standard_peripheral/Source/gd32f1x0_timer.c ****         break;
 1865              		.loc 1 916 9 is_stmt 1 view .LVU460
 1866 000e 7047     		bx	lr
 1867              	.L109:
 917:Drivers/GD32F1x0_standard_peripheral/Source/gd32f1x0_timer.c ****     /* configure TIMER_CH_1 */
 918:Drivers/GD32F1x0_standard_peripheral/Source/gd32f1x0_timer.c ****     case TIMER_CH_1:
 919:Drivers/GD32F1x0_standard_peripheral/Source/gd32f1x0_timer.c ****         TIMER_CH1CV(timer_periph) = (uint32_t)pulse;
 1868              		.loc 1 919 9 view .LVU461
 1869              		.loc 1 919 35 is_stmt 0 view .LVU462
 1870 0010 8263     		str	r2, [r0, #56]
 920:Drivers/GD32F1x0_standard_peripheral/Source/gd32f1x0_timer.c ****         break;
 1871              		.loc 1 920 9 is_stmt 1 view .LVU463
 1872 0012 7047     		bx	lr
 1873              	.L108:
 921:Drivers/GD32F1x0_standard_peripheral/Source/gd32f1x0_timer.c ****     /* configure TIMER_CH_2 */
 922:Drivers/GD32F1x0_standard_peripheral/Source/gd32f1x0_timer.c ****     case TIMER_CH_2:
 923:Drivers/GD32F1x0_standard_peripheral/Source/gd32f1x0_timer.c ****         TIMER_CH2CV(timer_periph) = (uint32_t)pulse;
 1874              		.loc 1 923 9 view .LVU464
 1875              		.loc 1 923 35 is_stmt 0 view .LVU465
 1876 0014 C263     		str	r2, [r0, #60]
 924:Drivers/GD32F1x0_standard_peripheral/Source/gd32f1x0_timer.c ****         break;
 1877              		.loc 1 924 9 is_stmt 1 view .LVU466
 1878 0016 7047     		bx	lr
 1879              	.L106:
 925:Drivers/GD32F1x0_standard_peripheral/Source/gd32f1x0_timer.c ****     /* configure TIMER_CH_3 */
 926:Drivers/GD32F1x0_standard_peripheral/Source/gd32f1x0_timer.c ****     case TIMER_CH_3:
 927:Drivers/GD32F1x0_standard_peripheral/Source/gd32f1x0_timer.c ****          TIMER_CH3CV(timer_periph) = (uint32_t)pulse;
 1880              		.loc 1 927 10 view .LVU467
 1881              		.loc 1 927 36 is_stmt 0 view .LVU468
 1882 0018 0264     		str	r2, [r0, #64]
ARM GAS  /tmp/ccP4G5CZ.s 			page 51


 928:Drivers/GD32F1x0_standard_peripheral/Source/gd32f1x0_timer.c ****         break;
 1883              		.loc 1 928 9 is_stmt 1 view .LVU469
 1884              	.L104:
 929:Drivers/GD32F1x0_standard_peripheral/Source/gd32f1x0_timer.c ****     default:
 930:Drivers/GD32F1x0_standard_peripheral/Source/gd32f1x0_timer.c ****         break;
 931:Drivers/GD32F1x0_standard_peripheral/Source/gd32f1x0_timer.c ****     }
 932:Drivers/GD32F1x0_standard_peripheral/Source/gd32f1x0_timer.c **** }
 1885              		.loc 1 932 1 is_stmt 0 view .LVU470
 1886 001a 7047     		bx	lr
 1887              		.cfi_endproc
 1888              	.LFE96:
 1890              		.section	.text.timer_channel_output_shadow_config,"ax",%progbits
 1891              		.align	1
 1892              		.global	timer_channel_output_shadow_config
 1893              		.syntax unified
 1894              		.thumb
 1895              		.thumb_func
 1896              		.fpu softvfp
 1898              	timer_channel_output_shadow_config:
 1899              	.LVL91:
 1900              	.LFB97:
 933:Drivers/GD32F1x0_standard_peripheral/Source/gd32f1x0_timer.c **** 
 934:Drivers/GD32F1x0_standard_peripheral/Source/gd32f1x0_timer.c **** /*!
 935:Drivers/GD32F1x0_standard_peripheral/Source/gd32f1x0_timer.c ****     \brief      configure TIMER channel output shadow function
 936:Drivers/GD32F1x0_standard_peripheral/Source/gd32f1x0_timer.c ****     \param[in]  timer_periph: TIMERx(x=0,1,2,13,14,15,16)
 937:Drivers/GD32F1x0_standard_peripheral/Source/gd32f1x0_timer.c ****     \param[in]  channel: 
 938:Drivers/GD32F1x0_standard_peripheral/Source/gd32f1x0_timer.c ****       \arg        TIMER_CH_0: TIMER channel0(TIMERx(x=0,1,2,13,14,15,16))
 939:Drivers/GD32F1x0_standard_peripheral/Source/gd32f1x0_timer.c ****       \arg        TIMER_CH_1: TIMER channel1(TIMERx(x=0,1,2,14))
 940:Drivers/GD32F1x0_standard_peripheral/Source/gd32f1x0_timer.c ****       \arg        TIMER_CH_2: TIMER channel2(TIMERx(x=0,1,2))
 941:Drivers/GD32F1x0_standard_peripheral/Source/gd32f1x0_timer.c ****       \arg        TIMER_CH_3: TIMER channel3(TIMERx(x=0,1,2))
 942:Drivers/GD32F1x0_standard_peripheral/Source/gd32f1x0_timer.c ****     \param[in]  ocshadow: channel output shadow state
 943:Drivers/GD32F1x0_standard_peripheral/Source/gd32f1x0_timer.c ****       \arg        TIMER_OC_SHADOW_ENABLE: channel output shadow state enable
 944:Drivers/GD32F1x0_standard_peripheral/Source/gd32f1x0_timer.c ****       \arg        TIMER_OC_SHADOW_DISABLE: channel output shadow state disable
 945:Drivers/GD32F1x0_standard_peripheral/Source/gd32f1x0_timer.c ****     \param[out] none
 946:Drivers/GD32F1x0_standard_peripheral/Source/gd32f1x0_timer.c ****     \retval     none
 947:Drivers/GD32F1x0_standard_peripheral/Source/gd32f1x0_timer.c **** */
 948:Drivers/GD32F1x0_standard_peripheral/Source/gd32f1x0_timer.c **** void timer_channel_output_shadow_config(uint32_t timer_periph, uint16_t channel, uint16_t ocshadow)
 949:Drivers/GD32F1x0_standard_peripheral/Source/gd32f1x0_timer.c **** {
 1901              		.loc 1 949 1 is_stmt 1 view -0
 1902              		.cfi_startproc
 1903              		@ args = 0, pretend = 0, frame = 0
 1904              		@ frame_needed = 0, uses_anonymous_args = 0
 1905              		@ link register save eliminated.
 950:Drivers/GD32F1x0_standard_peripheral/Source/gd32f1x0_timer.c ****     switch(channel){
 1906              		.loc 1 950 5 view .LVU472
 1907 0000 0329     		cmp	r1, #3
 1908 0002 1AD8     		bhi	.L111
 1909 0004 DFE801F0 		tbb	[pc, r1]
 1910              	.L114:
 1911 0008 02       		.byte	(.L117-.L114)/2
 1912 0009 0A       		.byte	(.L116-.L114)/2
 1913 000a 12       		.byte	(.L115-.L114)/2
 1914 000b 1A       		.byte	(.L113-.L114)/2
 1915              		.p2align 1
 1916              	.L117:
 951:Drivers/GD32F1x0_standard_peripheral/Source/gd32f1x0_timer.c ****     /* configure TIMER_CH_0 */
 952:Drivers/GD32F1x0_standard_peripheral/Source/gd32f1x0_timer.c ****     case TIMER_CH_0:
ARM GAS  /tmp/ccP4G5CZ.s 			page 52


 953:Drivers/GD32F1x0_standard_peripheral/Source/gd32f1x0_timer.c ****         TIMER_CHCTL0(timer_periph) &=(uint32_t)(~TIMER_CHCTL0_CH0COMSEN);
 1917              		.loc 1 953 9 view .LVU473
 1918              		.loc 1 953 36 is_stmt 0 view .LVU474
 1919 000c 8369     		ldr	r3, [r0, #24]
 1920 000e 23F00803 		bic	r3, r3, #8
 1921 0012 8361     		str	r3, [r0, #24]
 954:Drivers/GD32F1x0_standard_peripheral/Source/gd32f1x0_timer.c ****         TIMER_CHCTL0(timer_periph) |= (uint32_t)ocshadow;
 1922              		.loc 1 954 9 is_stmt 1 view .LVU475
 1923              		.loc 1 954 36 is_stmt 0 view .LVU476
 1924 0014 8369     		ldr	r3, [r0, #24]
 1925 0016 1A43     		orrs	r2, r2, r3
 1926              	.LVL92:
 1927              	.L118:
 955:Drivers/GD32F1x0_standard_peripheral/Source/gd32f1x0_timer.c ****         break;
 956:Drivers/GD32F1x0_standard_peripheral/Source/gd32f1x0_timer.c ****     /* configure TIMER_CH_1 */
 957:Drivers/GD32F1x0_standard_peripheral/Source/gd32f1x0_timer.c ****     case TIMER_CH_1:
 958:Drivers/GD32F1x0_standard_peripheral/Source/gd32f1x0_timer.c ****         TIMER_CHCTL0(timer_periph) &=(uint32_t)(~TIMER_CHCTL0_CH1COMSEN);
 959:Drivers/GD32F1x0_standard_peripheral/Source/gd32f1x0_timer.c ****         TIMER_CHCTL0(timer_periph) |= (uint32_t)((uint32_t)ocshadow << 8);
 1928              		.loc 1 959 36 view .LVU477
 1929 0018 8261     		str	r2, [r0, #24]
 960:Drivers/GD32F1x0_standard_peripheral/Source/gd32f1x0_timer.c ****         break;
 1930              		.loc 1 960 9 is_stmt 1 view .LVU478
 1931 001a 7047     		bx	lr
 1932              	.LVL93:
 1933              	.L116:
 958:Drivers/GD32F1x0_standard_peripheral/Source/gd32f1x0_timer.c ****         TIMER_CHCTL0(timer_periph) |= (uint32_t)((uint32_t)ocshadow << 8);
 1934              		.loc 1 958 9 view .LVU479
 958:Drivers/GD32F1x0_standard_peripheral/Source/gd32f1x0_timer.c ****         TIMER_CHCTL0(timer_periph) |= (uint32_t)((uint32_t)ocshadow << 8);
 1935              		.loc 1 958 36 is_stmt 0 view .LVU480
 1936 001c 8369     		ldr	r3, [r0, #24]
 1937 001e 23F40063 		bic	r3, r3, #2048
 1938 0022 8361     		str	r3, [r0, #24]
 959:Drivers/GD32F1x0_standard_peripheral/Source/gd32f1x0_timer.c ****         break;
 1939              		.loc 1 959 9 is_stmt 1 view .LVU481
 959:Drivers/GD32F1x0_standard_peripheral/Source/gd32f1x0_timer.c ****         break;
 1940              		.loc 1 959 36 is_stmt 0 view .LVU482
 1941 0024 8369     		ldr	r3, [r0, #24]
 1942 0026 43EA0222 		orr	r2, r3, r2, lsl #8
 1943              	.LVL94:
 959:Drivers/GD32F1x0_standard_peripheral/Source/gd32f1x0_timer.c ****         break;
 1944              		.loc 1 959 36 view .LVU483
 1945 002a F5E7     		b	.L118
 1946              	.LVL95:
 1947              	.L115:
 961:Drivers/GD32F1x0_standard_peripheral/Source/gd32f1x0_timer.c ****     /* configure TIMER_CH_2 */
 962:Drivers/GD32F1x0_standard_peripheral/Source/gd32f1x0_timer.c ****     case TIMER_CH_2:
 963:Drivers/GD32F1x0_standard_peripheral/Source/gd32f1x0_timer.c ****         TIMER_CHCTL1(timer_periph) &=(uint32_t)(~TIMER_CHCTL1_CH2COMSEN);
 1948              		.loc 1 963 9 is_stmt 1 view .LVU484
 1949              		.loc 1 963 36 is_stmt 0 view .LVU485
 1950 002c C369     		ldr	r3, [r0, #28]
 1951 002e 23F00803 		bic	r3, r3, #8
 1952 0032 C361     		str	r3, [r0, #28]
 964:Drivers/GD32F1x0_standard_peripheral/Source/gd32f1x0_timer.c ****         TIMER_CHCTL1(timer_periph) |= (uint32_t)ocshadow;
 1953              		.loc 1 964 9 is_stmt 1 view .LVU486
 1954              		.loc 1 964 36 is_stmt 0 view .LVU487
 1955 0034 C369     		ldr	r3, [r0, #28]
 1956 0036 1A43     		orrs	r2, r2, r3
ARM GAS  /tmp/ccP4G5CZ.s 			page 53


 1957              	.LVL96:
 1958              	.L119:
 965:Drivers/GD32F1x0_standard_peripheral/Source/gd32f1x0_timer.c ****         break;
 966:Drivers/GD32F1x0_standard_peripheral/Source/gd32f1x0_timer.c ****     /* configure TIMER_CH_3 */
 967:Drivers/GD32F1x0_standard_peripheral/Source/gd32f1x0_timer.c ****     case TIMER_CH_3:
 968:Drivers/GD32F1x0_standard_peripheral/Source/gd32f1x0_timer.c ****         TIMER_CHCTL1(timer_periph) &=(uint32_t)(~TIMER_CHCTL1_CH3COMSEN);
 969:Drivers/GD32F1x0_standard_peripheral/Source/gd32f1x0_timer.c ****         TIMER_CHCTL1(timer_periph) |= (uint32_t)((uint32_t)ocshadow << 8);
 1959              		.loc 1 969 36 view .LVU488
 1960 0038 C261     		str	r2, [r0, #28]
 970:Drivers/GD32F1x0_standard_peripheral/Source/gd32f1x0_timer.c ****         break;
 1961              		.loc 1 970 9 is_stmt 1 view .LVU489
 1962              	.L111:
 971:Drivers/GD32F1x0_standard_peripheral/Source/gd32f1x0_timer.c ****     default:
 972:Drivers/GD32F1x0_standard_peripheral/Source/gd32f1x0_timer.c ****         break;
 973:Drivers/GD32F1x0_standard_peripheral/Source/gd32f1x0_timer.c ****     }
 974:Drivers/GD32F1x0_standard_peripheral/Source/gd32f1x0_timer.c **** }
 1963              		.loc 1 974 1 is_stmt 0 view .LVU490
 1964 003a 7047     		bx	lr
 1965              	.LVL97:
 1966              	.L113:
 968:Drivers/GD32F1x0_standard_peripheral/Source/gd32f1x0_timer.c ****         TIMER_CHCTL1(timer_periph) |= (uint32_t)((uint32_t)ocshadow << 8);
 1967              		.loc 1 968 9 is_stmt 1 view .LVU491
 968:Drivers/GD32F1x0_standard_peripheral/Source/gd32f1x0_timer.c ****         TIMER_CHCTL1(timer_periph) |= (uint32_t)((uint32_t)ocshadow << 8);
 1968              		.loc 1 968 36 is_stmt 0 view .LVU492
 1969 003c C369     		ldr	r3, [r0, #28]
 1970 003e 23F40063 		bic	r3, r3, #2048
 1971 0042 C361     		str	r3, [r0, #28]
 969:Drivers/GD32F1x0_standard_peripheral/Source/gd32f1x0_timer.c ****         break;
 1972              		.loc 1 969 9 is_stmt 1 view .LVU493
 969:Drivers/GD32F1x0_standard_peripheral/Source/gd32f1x0_timer.c ****         break;
 1973              		.loc 1 969 36 is_stmt 0 view .LVU494
 1974 0044 C369     		ldr	r3, [r0, #28]
 1975 0046 43EA0222 		orr	r2, r3, r2, lsl #8
 1976              	.LVL98:
 969:Drivers/GD32F1x0_standard_peripheral/Source/gd32f1x0_timer.c ****         break;
 1977              		.loc 1 969 36 view .LVU495
 1978 004a F5E7     		b	.L119
 1979              		.cfi_endproc
 1980              	.LFE97:
 1982              		.section	.text.timer_channel_output_fast_config,"ax",%progbits
 1983              		.align	1
 1984              		.global	timer_channel_output_fast_config
 1985              		.syntax unified
 1986              		.thumb
 1987              		.thumb_func
 1988              		.fpu softvfp
 1990              	timer_channel_output_fast_config:
 1991              	.LVL99:
 1992              	.LFB98:
 975:Drivers/GD32F1x0_standard_peripheral/Source/gd32f1x0_timer.c **** 
 976:Drivers/GD32F1x0_standard_peripheral/Source/gd32f1x0_timer.c **** /*!
 977:Drivers/GD32F1x0_standard_peripheral/Source/gd32f1x0_timer.c ****     \brief      configure TIMER channel output fast function
 978:Drivers/GD32F1x0_standard_peripheral/Source/gd32f1x0_timer.c ****     \param[in]  timer_periph: TIMERx(x=0,1,2,13,14,15,16)
 979:Drivers/GD32F1x0_standard_peripheral/Source/gd32f1x0_timer.c ****     \param[in]  channel: 
 980:Drivers/GD32F1x0_standard_peripheral/Source/gd32f1x0_timer.c ****       \arg        TIMER_CH_0: TIMER channel0(TIMERx(x=0,1,2,13,14,15,16))
 981:Drivers/GD32F1x0_standard_peripheral/Source/gd32f1x0_timer.c ****       \arg        TIMER_CH_1: TIMER channel1(TIMERx(x=0,1,2,14))
 982:Drivers/GD32F1x0_standard_peripheral/Source/gd32f1x0_timer.c ****       \arg        TIMER_CH_2: TIMER channel2(TIMERx(x=0,1,2))
ARM GAS  /tmp/ccP4G5CZ.s 			page 54


 983:Drivers/GD32F1x0_standard_peripheral/Source/gd32f1x0_timer.c ****       \arg        TIMER_CH_3: TIMER channel3(TIMERx(x=0,1,2))
 984:Drivers/GD32F1x0_standard_peripheral/Source/gd32f1x0_timer.c ****     \param[in]  ocfast: channel output fast function
 985:Drivers/GD32F1x0_standard_peripheral/Source/gd32f1x0_timer.c ****       \arg        TIMER_OC_FAST_ENABLE: channel output fast function enable
 986:Drivers/GD32F1x0_standard_peripheral/Source/gd32f1x0_timer.c ****       \arg        TIMER_OC_FAST_DISABLE: channel output fast function disable
 987:Drivers/GD32F1x0_standard_peripheral/Source/gd32f1x0_timer.c ****     \param[out] none
 988:Drivers/GD32F1x0_standard_peripheral/Source/gd32f1x0_timer.c ****     \retval     none
 989:Drivers/GD32F1x0_standard_peripheral/Source/gd32f1x0_timer.c **** */
 990:Drivers/GD32F1x0_standard_peripheral/Source/gd32f1x0_timer.c **** void timer_channel_output_fast_config(uint32_t timer_periph, uint16_t channel, uint16_t ocfast)
 991:Drivers/GD32F1x0_standard_peripheral/Source/gd32f1x0_timer.c **** {
 1993              		.loc 1 991 1 is_stmt 1 view -0
 1994              		.cfi_startproc
 1995              		@ args = 0, pretend = 0, frame = 0
 1996              		@ frame_needed = 0, uses_anonymous_args = 0
 1997              		@ link register save eliminated.
 992:Drivers/GD32F1x0_standard_peripheral/Source/gd32f1x0_timer.c ****     switch(channel){
 1998              		.loc 1 992 5 view .LVU497
 1999 0000 0329     		cmp	r1, #3
 2000 0002 1AD8     		bhi	.L120
 2001 0004 DFE801F0 		tbb	[pc, r1]
 2002              	.L123:
 2003 0008 02       		.byte	(.L126-.L123)/2
 2004 0009 0A       		.byte	(.L125-.L123)/2
 2005 000a 12       		.byte	(.L124-.L123)/2
 2006 000b 1A       		.byte	(.L122-.L123)/2
 2007              		.p2align 1
 2008              	.L126:
 993:Drivers/GD32F1x0_standard_peripheral/Source/gd32f1x0_timer.c ****     /* configure TIMER_CH_0 */
 994:Drivers/GD32F1x0_standard_peripheral/Source/gd32f1x0_timer.c ****     case TIMER_CH_0:
 995:Drivers/GD32F1x0_standard_peripheral/Source/gd32f1x0_timer.c ****         TIMER_CHCTL0(timer_periph) &=(uint32_t)(~TIMER_CHCTL0_CH0COMFEN);
 2009              		.loc 1 995 9 view .LVU498
 2010              		.loc 1 995 36 is_stmt 0 view .LVU499
 2011 000c 8369     		ldr	r3, [r0, #24]
 2012 000e 23F00403 		bic	r3, r3, #4
 2013 0012 8361     		str	r3, [r0, #24]
 996:Drivers/GD32F1x0_standard_peripheral/Source/gd32f1x0_timer.c ****         TIMER_CHCTL0(timer_periph) |= (uint32_t)ocfast;
 2014              		.loc 1 996 9 is_stmt 1 view .LVU500
 2015              		.loc 1 996 36 is_stmt 0 view .LVU501
 2016 0014 8369     		ldr	r3, [r0, #24]
 2017 0016 1A43     		orrs	r2, r2, r3
 2018              	.LVL100:
 2019              	.L127:
 997:Drivers/GD32F1x0_standard_peripheral/Source/gd32f1x0_timer.c ****         break;
 998:Drivers/GD32F1x0_standard_peripheral/Source/gd32f1x0_timer.c ****     /* configure TIMER_CH_1 */
 999:Drivers/GD32F1x0_standard_peripheral/Source/gd32f1x0_timer.c ****     case TIMER_CH_1:
1000:Drivers/GD32F1x0_standard_peripheral/Source/gd32f1x0_timer.c ****         TIMER_CHCTL0(timer_periph) &=(uint32_t)(~TIMER_CHCTL0_CH1COMFEN);
1001:Drivers/GD32F1x0_standard_peripheral/Source/gd32f1x0_timer.c ****         TIMER_CHCTL0(timer_periph) |= (uint32_t)((uint32_t)ocfast << 8);
 2020              		.loc 1 1001 36 view .LVU502
 2021 0018 8261     		str	r2, [r0, #24]
1002:Drivers/GD32F1x0_standard_peripheral/Source/gd32f1x0_timer.c ****         break;
 2022              		.loc 1 1002 9 is_stmt 1 view .LVU503
 2023 001a 7047     		bx	lr
 2024              	.LVL101:
 2025              	.L125:
1000:Drivers/GD32F1x0_standard_peripheral/Source/gd32f1x0_timer.c ****         TIMER_CHCTL0(timer_periph) |= (uint32_t)((uint32_t)ocfast << 8);
 2026              		.loc 1 1000 9 view .LVU504
1000:Drivers/GD32F1x0_standard_peripheral/Source/gd32f1x0_timer.c ****         TIMER_CHCTL0(timer_periph) |= (uint32_t)((uint32_t)ocfast << 8);
 2027              		.loc 1 1000 36 is_stmt 0 view .LVU505
ARM GAS  /tmp/ccP4G5CZ.s 			page 55


 2028 001c 8369     		ldr	r3, [r0, #24]
 2029 001e 23F48063 		bic	r3, r3, #1024
 2030 0022 8361     		str	r3, [r0, #24]
1001:Drivers/GD32F1x0_standard_peripheral/Source/gd32f1x0_timer.c ****         break;
 2031              		.loc 1 1001 9 is_stmt 1 view .LVU506
1001:Drivers/GD32F1x0_standard_peripheral/Source/gd32f1x0_timer.c ****         break;
 2032              		.loc 1 1001 36 is_stmt 0 view .LVU507
 2033 0024 8369     		ldr	r3, [r0, #24]
 2034 0026 43EA0222 		orr	r2, r3, r2, lsl #8
 2035              	.LVL102:
1001:Drivers/GD32F1x0_standard_peripheral/Source/gd32f1x0_timer.c ****         break;
 2036              		.loc 1 1001 36 view .LVU508
 2037 002a F5E7     		b	.L127
 2038              	.LVL103:
 2039              	.L124:
1003:Drivers/GD32F1x0_standard_peripheral/Source/gd32f1x0_timer.c ****     /* configure TIMER_CH_2 */
1004:Drivers/GD32F1x0_standard_peripheral/Source/gd32f1x0_timer.c ****     case TIMER_CH_2:
1005:Drivers/GD32F1x0_standard_peripheral/Source/gd32f1x0_timer.c ****         TIMER_CHCTL1(timer_periph) &=(uint32_t)(~TIMER_CHCTL1_CH2COMFEN);
 2040              		.loc 1 1005 9 is_stmt 1 view .LVU509
 2041              		.loc 1 1005 36 is_stmt 0 view .LVU510
 2042 002c C369     		ldr	r3, [r0, #28]
 2043 002e 23F00403 		bic	r3, r3, #4
 2044 0032 C361     		str	r3, [r0, #28]
1006:Drivers/GD32F1x0_standard_peripheral/Source/gd32f1x0_timer.c ****         TIMER_CHCTL1(timer_periph) |= (uint32_t)ocfast;
 2045              		.loc 1 1006 9 is_stmt 1 view .LVU511
 2046              		.loc 1 1006 36 is_stmt 0 view .LVU512
 2047 0034 C369     		ldr	r3, [r0, #28]
 2048 0036 1A43     		orrs	r2, r2, r3
 2049              	.LVL104:
 2050              	.L128:
1007:Drivers/GD32F1x0_standard_peripheral/Source/gd32f1x0_timer.c ****         break;
1008:Drivers/GD32F1x0_standard_peripheral/Source/gd32f1x0_timer.c ****     /* configure TIMER_CH_3 */
1009:Drivers/GD32F1x0_standard_peripheral/Source/gd32f1x0_timer.c ****     case TIMER_CH_3:
1010:Drivers/GD32F1x0_standard_peripheral/Source/gd32f1x0_timer.c ****         TIMER_CHCTL1(timer_periph) &=(uint32_t)(~TIMER_CHCTL1_CH3COMFEN);
1011:Drivers/GD32F1x0_standard_peripheral/Source/gd32f1x0_timer.c ****         TIMER_CHCTL1(timer_periph) |= (uint32_t)((uint32_t)ocfast << 8);
 2051              		.loc 1 1011 36 view .LVU513
 2052 0038 C261     		str	r2, [r0, #28]
1012:Drivers/GD32F1x0_standard_peripheral/Source/gd32f1x0_timer.c ****         break;
 2053              		.loc 1 1012 9 is_stmt 1 view .LVU514
 2054              	.L120:
1013:Drivers/GD32F1x0_standard_peripheral/Source/gd32f1x0_timer.c ****     default:
1014:Drivers/GD32F1x0_standard_peripheral/Source/gd32f1x0_timer.c ****         break;
1015:Drivers/GD32F1x0_standard_peripheral/Source/gd32f1x0_timer.c ****     }
1016:Drivers/GD32F1x0_standard_peripheral/Source/gd32f1x0_timer.c **** }
 2055              		.loc 1 1016 1 is_stmt 0 view .LVU515
 2056 003a 7047     		bx	lr
 2057              	.LVL105:
 2058              	.L122:
1010:Drivers/GD32F1x0_standard_peripheral/Source/gd32f1x0_timer.c ****         TIMER_CHCTL1(timer_periph) |= (uint32_t)((uint32_t)ocfast << 8);
 2059              		.loc 1 1010 9 is_stmt 1 view .LVU516
1010:Drivers/GD32F1x0_standard_peripheral/Source/gd32f1x0_timer.c ****         TIMER_CHCTL1(timer_periph) |= (uint32_t)((uint32_t)ocfast << 8);
 2060              		.loc 1 1010 36 is_stmt 0 view .LVU517
 2061 003c C369     		ldr	r3, [r0, #28]
 2062 003e 23F48063 		bic	r3, r3, #1024
 2063 0042 C361     		str	r3, [r0, #28]
1011:Drivers/GD32F1x0_standard_peripheral/Source/gd32f1x0_timer.c ****         break;
 2064              		.loc 1 1011 9 is_stmt 1 view .LVU518
ARM GAS  /tmp/ccP4G5CZ.s 			page 56


1011:Drivers/GD32F1x0_standard_peripheral/Source/gd32f1x0_timer.c ****         break;
 2065              		.loc 1 1011 36 is_stmt 0 view .LVU519
 2066 0044 C369     		ldr	r3, [r0, #28]
 2067 0046 43EA0222 		orr	r2, r3, r2, lsl #8
 2068              	.LVL106:
1011:Drivers/GD32F1x0_standard_peripheral/Source/gd32f1x0_timer.c ****         break;
 2069              		.loc 1 1011 36 view .LVU520
 2070 004a F5E7     		b	.L128
 2071              		.cfi_endproc
 2072              	.LFE98:
 2074              		.section	.text.timer_channel_output_clear_config,"ax",%progbits
 2075              		.align	1
 2076              		.global	timer_channel_output_clear_config
 2077              		.syntax unified
 2078              		.thumb
 2079              		.thumb_func
 2080              		.fpu softvfp
 2082              	timer_channel_output_clear_config:
 2083              	.LVL107:
 2084              	.LFB99:
1017:Drivers/GD32F1x0_standard_peripheral/Source/gd32f1x0_timer.c **** 
1018:Drivers/GD32F1x0_standard_peripheral/Source/gd32f1x0_timer.c **** /*!
1019:Drivers/GD32F1x0_standard_peripheral/Source/gd32f1x0_timer.c ****     \brief      configure TIMER channel output clear function
1020:Drivers/GD32F1x0_standard_peripheral/Source/gd32f1x0_timer.c ****     \param[in]  timer_periph: TIMERx(x=0,1,2,13,14,15,16)
1021:Drivers/GD32F1x0_standard_peripheral/Source/gd32f1x0_timer.c ****     \param[in]  channel: 
1022:Drivers/GD32F1x0_standard_peripheral/Source/gd32f1x0_timer.c ****       \arg        TIMER_CH_0: TIMER channel0(TIMERx(x=0,1,2,13,14,15,16))
1023:Drivers/GD32F1x0_standard_peripheral/Source/gd32f1x0_timer.c ****       \arg        TIMER_CH_1: TIMER channel1(TIMERx(x=0,1,2,14))
1024:Drivers/GD32F1x0_standard_peripheral/Source/gd32f1x0_timer.c ****       \arg        TIMER_CH_2: TIMER channel2(TIMERx(x=0,1,2))
1025:Drivers/GD32F1x0_standard_peripheral/Source/gd32f1x0_timer.c ****       \arg        TIMER_CH_3: TIMER channel3(TIMERx(x=0,1,2))
1026:Drivers/GD32F1x0_standard_peripheral/Source/gd32f1x0_timer.c ****     \param[in]  occlear: channel output clear function
1027:Drivers/GD32F1x0_standard_peripheral/Source/gd32f1x0_timer.c ****       \arg        TIMER_OC_CLEAR_ENABLE: channel output clear function enable
1028:Drivers/GD32F1x0_standard_peripheral/Source/gd32f1x0_timer.c ****       \arg        TIMER_OC_CLEAR_DISABLE: channel output clear function disable
1029:Drivers/GD32F1x0_standard_peripheral/Source/gd32f1x0_timer.c ****     \param[out] none
1030:Drivers/GD32F1x0_standard_peripheral/Source/gd32f1x0_timer.c ****     \retval     none
1031:Drivers/GD32F1x0_standard_peripheral/Source/gd32f1x0_timer.c **** */
1032:Drivers/GD32F1x0_standard_peripheral/Source/gd32f1x0_timer.c **** void timer_channel_output_clear_config(uint32_t timer_periph, uint16_t channel, uint16_t occlear)
1033:Drivers/GD32F1x0_standard_peripheral/Source/gd32f1x0_timer.c **** {
 2085              		.loc 1 1033 1 is_stmt 1 view -0
 2086              		.cfi_startproc
 2087              		@ args = 0, pretend = 0, frame = 0
 2088              		@ frame_needed = 0, uses_anonymous_args = 0
 2089              		@ link register save eliminated.
1034:Drivers/GD32F1x0_standard_peripheral/Source/gd32f1x0_timer.c ****     switch(channel){
 2090              		.loc 1 1034 5 view .LVU522
 2091 0000 0329     		cmp	r1, #3
 2092 0002 1AD8     		bhi	.L129
 2093 0004 DFE801F0 		tbb	[pc, r1]
 2094              	.L132:
 2095 0008 02       		.byte	(.L135-.L132)/2
 2096 0009 0A       		.byte	(.L134-.L132)/2
 2097 000a 12       		.byte	(.L133-.L132)/2
 2098 000b 1A       		.byte	(.L131-.L132)/2
 2099              		.p2align 1
 2100              	.L135:
1035:Drivers/GD32F1x0_standard_peripheral/Source/gd32f1x0_timer.c ****     /* configure TIMER_CH_0 */
1036:Drivers/GD32F1x0_standard_peripheral/Source/gd32f1x0_timer.c ****     case TIMER_CH_0:
1037:Drivers/GD32F1x0_standard_peripheral/Source/gd32f1x0_timer.c ****         TIMER_CHCTL0(timer_periph) &=(uint32_t)(~TIMER_CHCTL0_CH0COMCEN);
ARM GAS  /tmp/ccP4G5CZ.s 			page 57


 2101              		.loc 1 1037 9 view .LVU523
 2102              		.loc 1 1037 36 is_stmt 0 view .LVU524
 2103 000c 8369     		ldr	r3, [r0, #24]
 2104 000e 23F08003 		bic	r3, r3, #128
 2105 0012 8361     		str	r3, [r0, #24]
1038:Drivers/GD32F1x0_standard_peripheral/Source/gd32f1x0_timer.c ****         TIMER_CHCTL0(timer_periph) |= (uint32_t)occlear;
 2106              		.loc 1 1038 9 is_stmt 1 view .LVU525
 2107              		.loc 1 1038 36 is_stmt 0 view .LVU526
 2108 0014 8369     		ldr	r3, [r0, #24]
 2109 0016 1A43     		orrs	r2, r2, r3
 2110              	.LVL108:
 2111              	.L136:
1039:Drivers/GD32F1x0_standard_peripheral/Source/gd32f1x0_timer.c ****         break;
1040:Drivers/GD32F1x0_standard_peripheral/Source/gd32f1x0_timer.c ****     /* configure TIMER_CH_1 */
1041:Drivers/GD32F1x0_standard_peripheral/Source/gd32f1x0_timer.c ****     case TIMER_CH_1:
1042:Drivers/GD32F1x0_standard_peripheral/Source/gd32f1x0_timer.c ****         TIMER_CHCTL0(timer_periph) &=(uint32_t)(~TIMER_CHCTL0_CH1COMCEN);
1043:Drivers/GD32F1x0_standard_peripheral/Source/gd32f1x0_timer.c ****         TIMER_CHCTL0(timer_periph) |= (uint32_t)((uint32_t)occlear << 8);
 2112              		.loc 1 1043 36 view .LVU527
 2113 0018 8261     		str	r2, [r0, #24]
1044:Drivers/GD32F1x0_standard_peripheral/Source/gd32f1x0_timer.c ****         break;
 2114              		.loc 1 1044 9 is_stmt 1 view .LVU528
 2115 001a 7047     		bx	lr
 2116              	.LVL109:
 2117              	.L134:
1042:Drivers/GD32F1x0_standard_peripheral/Source/gd32f1x0_timer.c ****         TIMER_CHCTL0(timer_periph) |= (uint32_t)((uint32_t)occlear << 8);
 2118              		.loc 1 1042 9 view .LVU529
1042:Drivers/GD32F1x0_standard_peripheral/Source/gd32f1x0_timer.c ****         TIMER_CHCTL0(timer_periph) |= (uint32_t)((uint32_t)occlear << 8);
 2119              		.loc 1 1042 36 is_stmt 0 view .LVU530
 2120 001c 8369     		ldr	r3, [r0, #24]
 2121 001e 23F40043 		bic	r3, r3, #32768
 2122 0022 8361     		str	r3, [r0, #24]
1043:Drivers/GD32F1x0_standard_peripheral/Source/gd32f1x0_timer.c ****         break;
 2123              		.loc 1 1043 9 is_stmt 1 view .LVU531
1043:Drivers/GD32F1x0_standard_peripheral/Source/gd32f1x0_timer.c ****         break;
 2124              		.loc 1 1043 36 is_stmt 0 view .LVU532
 2125 0024 8369     		ldr	r3, [r0, #24]
 2126 0026 43EA0222 		orr	r2, r3, r2, lsl #8
 2127              	.LVL110:
1043:Drivers/GD32F1x0_standard_peripheral/Source/gd32f1x0_timer.c ****         break;
 2128              		.loc 1 1043 36 view .LVU533
 2129 002a F5E7     		b	.L136
 2130              	.LVL111:
 2131              	.L133:
1045:Drivers/GD32F1x0_standard_peripheral/Source/gd32f1x0_timer.c ****     /* configure TIMER_CH_2 */
1046:Drivers/GD32F1x0_standard_peripheral/Source/gd32f1x0_timer.c ****     case TIMER_CH_2:
1047:Drivers/GD32F1x0_standard_peripheral/Source/gd32f1x0_timer.c ****         TIMER_CHCTL1(timer_periph) &=(uint32_t)(~TIMER_CHCTL1_CH2COMCEN);
 2132              		.loc 1 1047 9 is_stmt 1 view .LVU534
 2133              		.loc 1 1047 36 is_stmt 0 view .LVU535
 2134 002c C369     		ldr	r3, [r0, #28]
 2135 002e 23F08003 		bic	r3, r3, #128
 2136 0032 C361     		str	r3, [r0, #28]
1048:Drivers/GD32F1x0_standard_peripheral/Source/gd32f1x0_timer.c ****         TIMER_CHCTL1(timer_periph) |= (uint32_t)occlear;
 2137              		.loc 1 1048 9 is_stmt 1 view .LVU536
 2138              		.loc 1 1048 36 is_stmt 0 view .LVU537
 2139 0034 C369     		ldr	r3, [r0, #28]
 2140 0036 1A43     		orrs	r2, r2, r3
 2141              	.LVL112:
ARM GAS  /tmp/ccP4G5CZ.s 			page 58


 2142              	.L137:
1049:Drivers/GD32F1x0_standard_peripheral/Source/gd32f1x0_timer.c ****         break;
1050:Drivers/GD32F1x0_standard_peripheral/Source/gd32f1x0_timer.c ****     /* configure TIMER_CH_3 */
1051:Drivers/GD32F1x0_standard_peripheral/Source/gd32f1x0_timer.c ****     case TIMER_CH_3:
1052:Drivers/GD32F1x0_standard_peripheral/Source/gd32f1x0_timer.c ****         TIMER_CHCTL1(timer_periph) &=(uint32_t)(~TIMER_CHCTL1_CH3COMCEN);
1053:Drivers/GD32F1x0_standard_peripheral/Source/gd32f1x0_timer.c ****         TIMER_CHCTL1(timer_periph) |= (uint32_t)((uint32_t)occlear << 8);
 2143              		.loc 1 1053 36 view .LVU538
 2144 0038 C261     		str	r2, [r0, #28]
1054:Drivers/GD32F1x0_standard_peripheral/Source/gd32f1x0_timer.c ****         break;
 2145              		.loc 1 1054 9 is_stmt 1 view .LVU539
 2146              	.L129:
1055:Drivers/GD32F1x0_standard_peripheral/Source/gd32f1x0_timer.c ****     default:
1056:Drivers/GD32F1x0_standard_peripheral/Source/gd32f1x0_timer.c ****         break;
1057:Drivers/GD32F1x0_standard_peripheral/Source/gd32f1x0_timer.c ****     }
1058:Drivers/GD32F1x0_standard_peripheral/Source/gd32f1x0_timer.c **** }
 2147              		.loc 1 1058 1 is_stmt 0 view .LVU540
 2148 003a 7047     		bx	lr
 2149              	.LVL113:
 2150              	.L131:
1052:Drivers/GD32F1x0_standard_peripheral/Source/gd32f1x0_timer.c ****         TIMER_CHCTL1(timer_periph) |= (uint32_t)((uint32_t)occlear << 8);
 2151              		.loc 1 1052 9 is_stmt 1 view .LVU541
1052:Drivers/GD32F1x0_standard_peripheral/Source/gd32f1x0_timer.c ****         TIMER_CHCTL1(timer_periph) |= (uint32_t)((uint32_t)occlear << 8);
 2152              		.loc 1 1052 36 is_stmt 0 view .LVU542
 2153 003c C369     		ldr	r3, [r0, #28]
 2154 003e 23F40043 		bic	r3, r3, #32768
 2155 0042 C361     		str	r3, [r0, #28]
1053:Drivers/GD32F1x0_standard_peripheral/Source/gd32f1x0_timer.c ****         break;
 2156              		.loc 1 1053 9 is_stmt 1 view .LVU543
1053:Drivers/GD32F1x0_standard_peripheral/Source/gd32f1x0_timer.c ****         break;
 2157              		.loc 1 1053 36 is_stmt 0 view .LVU544
 2158 0044 C369     		ldr	r3, [r0, #28]
 2159 0046 43EA0222 		orr	r2, r3, r2, lsl #8
 2160              	.LVL114:
1053:Drivers/GD32F1x0_standard_peripheral/Source/gd32f1x0_timer.c ****         break;
 2161              		.loc 1 1053 36 view .LVU545
 2162 004a F5E7     		b	.L137
 2163              		.cfi_endproc
 2164              	.LFE99:
 2166              		.section	.text.timer_channel_output_polarity_config,"ax",%progbits
 2167              		.align	1
 2168              		.global	timer_channel_output_polarity_config
 2169              		.syntax unified
 2170              		.thumb
 2171              		.thumb_func
 2172              		.fpu softvfp
 2174              	timer_channel_output_polarity_config:
 2175              	.LVL115:
 2176              	.LFB100:
1059:Drivers/GD32F1x0_standard_peripheral/Source/gd32f1x0_timer.c **** 
1060:Drivers/GD32F1x0_standard_peripheral/Source/gd32f1x0_timer.c **** /*!
1061:Drivers/GD32F1x0_standard_peripheral/Source/gd32f1x0_timer.c ****     \brief      configure TIMER channel output polarity 
1062:Drivers/GD32F1x0_standard_peripheral/Source/gd32f1x0_timer.c ****     \param[in]  timer_periph: TIMERx(x=0,1,2,13,14,15,16)
1063:Drivers/GD32F1x0_standard_peripheral/Source/gd32f1x0_timer.c ****     \param[in]  channel: 
1064:Drivers/GD32F1x0_standard_peripheral/Source/gd32f1x0_timer.c ****       \arg        TIMER_CH_0: TIMER channel0(TIMERx(x=0,1,2,13,14,15,16))
1065:Drivers/GD32F1x0_standard_peripheral/Source/gd32f1x0_timer.c ****       \arg        TIMER_CH_1: TIMER channel1(TIMERx(x=0,1,2,14))
1066:Drivers/GD32F1x0_standard_peripheral/Source/gd32f1x0_timer.c ****       \arg        TIMER_CH_2: TIMER channel2(TIMERx(x=0,1,2))
1067:Drivers/GD32F1x0_standard_peripheral/Source/gd32f1x0_timer.c ****       \arg        TIMER_CH_3: TIMER channel3(TIMERx(x=0,1,2))
ARM GAS  /tmp/ccP4G5CZ.s 			page 59


1068:Drivers/GD32F1x0_standard_peripheral/Source/gd32f1x0_timer.c ****     \param[in]  ocpolarity: channel output polarity 
1069:Drivers/GD32F1x0_standard_peripheral/Source/gd32f1x0_timer.c ****       \arg        TIMER_OC_POLARITY_HIGH: channel output polarity is high
1070:Drivers/GD32F1x0_standard_peripheral/Source/gd32f1x0_timer.c ****       \arg        TIMER_OC_POLARITY_LOW: channel output polarity is low
1071:Drivers/GD32F1x0_standard_peripheral/Source/gd32f1x0_timer.c ****     \param[out] none
1072:Drivers/GD32F1x0_standard_peripheral/Source/gd32f1x0_timer.c ****     \retval     none
1073:Drivers/GD32F1x0_standard_peripheral/Source/gd32f1x0_timer.c **** */
1074:Drivers/GD32F1x0_standard_peripheral/Source/gd32f1x0_timer.c **** void timer_channel_output_polarity_config(uint32_t timer_periph, uint16_t channel, uint16_t ocpolar
1075:Drivers/GD32F1x0_standard_peripheral/Source/gd32f1x0_timer.c **** {
 2177              		.loc 1 1075 1 is_stmt 1 view -0
 2178              		.cfi_startproc
 2179              		@ args = 0, pretend = 0, frame = 0
 2180              		@ frame_needed = 0, uses_anonymous_args = 0
 2181              		@ link register save eliminated.
1076:Drivers/GD32F1x0_standard_peripheral/Source/gd32f1x0_timer.c ****     switch(channel){
 2182              		.loc 1 1076 5 view .LVU547
 2183 0000 0329     		cmp	r1, #3
 2184 0002 0AD8     		bhi	.L138
 2185 0004 DFE801F0 		tbb	[pc, r1]
 2186              	.L141:
 2187 0008 02       		.byte	(.L144-.L141)/2
 2188 0009 0A       		.byte	(.L143-.L141)/2
 2189 000a 12       		.byte	(.L142-.L141)/2
 2190 000b 1A       		.byte	(.L140-.L141)/2
 2191              		.p2align 1
 2192              	.L144:
1077:Drivers/GD32F1x0_standard_peripheral/Source/gd32f1x0_timer.c ****     /* configure TIMER_CH_0 */
1078:Drivers/GD32F1x0_standard_peripheral/Source/gd32f1x0_timer.c ****     case TIMER_CH_0:
1079:Drivers/GD32F1x0_standard_peripheral/Source/gd32f1x0_timer.c ****         TIMER_CHCTL2(timer_periph) &=(uint32_t)(~TIMER_CHCTL2_CH0P);
 2193              		.loc 1 1079 9 view .LVU548
 2194              		.loc 1 1079 36 is_stmt 0 view .LVU549
 2195 000c 036A     		ldr	r3, [r0, #32]
 2196 000e 23F00203 		bic	r3, r3, #2
 2197 0012 0362     		str	r3, [r0, #32]
1080:Drivers/GD32F1x0_standard_peripheral/Source/gd32f1x0_timer.c ****         TIMER_CHCTL2(timer_periph) |= (uint32_t)ocpolarity;
 2198              		.loc 1 1080 9 is_stmt 1 view .LVU550
 2199              		.loc 1 1080 36 is_stmt 0 view .LVU551
 2200 0014 036A     		ldr	r3, [r0, #32]
 2201 0016 1A43     		orrs	r2, r2, r3
 2202              	.LVL116:
 2203              	.L145:
1081:Drivers/GD32F1x0_standard_peripheral/Source/gd32f1x0_timer.c ****         break;
1082:Drivers/GD32F1x0_standard_peripheral/Source/gd32f1x0_timer.c ****     /* configure TIMER_CH_1 */
1083:Drivers/GD32F1x0_standard_peripheral/Source/gd32f1x0_timer.c ****     case TIMER_CH_1:
1084:Drivers/GD32F1x0_standard_peripheral/Source/gd32f1x0_timer.c ****         TIMER_CHCTL2(timer_periph) &=(uint32_t)(~TIMER_CHCTL2_CH1P);
1085:Drivers/GD32F1x0_standard_peripheral/Source/gd32f1x0_timer.c ****         TIMER_CHCTL2(timer_periph) |= (uint32_t)((uint32_t)ocpolarity << 4);
1086:Drivers/GD32F1x0_standard_peripheral/Source/gd32f1x0_timer.c ****         break;
1087:Drivers/GD32F1x0_standard_peripheral/Source/gd32f1x0_timer.c ****     /* configure TIMER_CH_2 */
1088:Drivers/GD32F1x0_standard_peripheral/Source/gd32f1x0_timer.c ****     case TIMER_CH_2:
1089:Drivers/GD32F1x0_standard_peripheral/Source/gd32f1x0_timer.c ****         TIMER_CHCTL2(timer_periph) &=(uint32_t)(~TIMER_CHCTL2_CH2P);
1090:Drivers/GD32F1x0_standard_peripheral/Source/gd32f1x0_timer.c ****         TIMER_CHCTL2(timer_periph) |= (uint32_t)((uint32_t)ocpolarity << 8);
1091:Drivers/GD32F1x0_standard_peripheral/Source/gd32f1x0_timer.c ****         break;
1092:Drivers/GD32F1x0_standard_peripheral/Source/gd32f1x0_timer.c ****     /* configure TIMER_CH_3 */
1093:Drivers/GD32F1x0_standard_peripheral/Source/gd32f1x0_timer.c ****     case TIMER_CH_3:
1094:Drivers/GD32F1x0_standard_peripheral/Source/gd32f1x0_timer.c ****         TIMER_CHCTL2(timer_periph) &=(uint32_t)(~TIMER_CHCTL2_CH3P);
1095:Drivers/GD32F1x0_standard_peripheral/Source/gd32f1x0_timer.c ****         TIMER_CHCTL2(timer_periph) |= (uint32_t)((uint32_t)ocpolarity << 12);
 2204              		.loc 1 1095 36 view .LVU552
 2205 0018 0262     		str	r2, [r0, #32]
ARM GAS  /tmp/ccP4G5CZ.s 			page 60


1096:Drivers/GD32F1x0_standard_peripheral/Source/gd32f1x0_timer.c ****         break;
 2206              		.loc 1 1096 9 is_stmt 1 view .LVU553
 2207              	.L138:
1097:Drivers/GD32F1x0_standard_peripheral/Source/gd32f1x0_timer.c ****     default:
1098:Drivers/GD32F1x0_standard_peripheral/Source/gd32f1x0_timer.c ****         break;
1099:Drivers/GD32F1x0_standard_peripheral/Source/gd32f1x0_timer.c ****     }
1100:Drivers/GD32F1x0_standard_peripheral/Source/gd32f1x0_timer.c **** }
 2208              		.loc 1 1100 1 is_stmt 0 view .LVU554
 2209 001a 7047     		bx	lr
 2210              	.LVL117:
 2211              	.L143:
1084:Drivers/GD32F1x0_standard_peripheral/Source/gd32f1x0_timer.c ****         TIMER_CHCTL2(timer_periph) |= (uint32_t)((uint32_t)ocpolarity << 4);
 2212              		.loc 1 1084 9 is_stmt 1 view .LVU555
1084:Drivers/GD32F1x0_standard_peripheral/Source/gd32f1x0_timer.c ****         TIMER_CHCTL2(timer_periph) |= (uint32_t)((uint32_t)ocpolarity << 4);
 2213              		.loc 1 1084 36 is_stmt 0 view .LVU556
 2214 001c 036A     		ldr	r3, [r0, #32]
 2215 001e 23F02003 		bic	r3, r3, #32
 2216 0022 0362     		str	r3, [r0, #32]
1085:Drivers/GD32F1x0_standard_peripheral/Source/gd32f1x0_timer.c ****         break;
 2217              		.loc 1 1085 9 is_stmt 1 view .LVU557
1085:Drivers/GD32F1x0_standard_peripheral/Source/gd32f1x0_timer.c ****         break;
 2218              		.loc 1 1085 36 is_stmt 0 view .LVU558
 2219 0024 036A     		ldr	r3, [r0, #32]
 2220 0026 43EA0212 		orr	r2, r3, r2, lsl #4
 2221              	.LVL118:
1085:Drivers/GD32F1x0_standard_peripheral/Source/gd32f1x0_timer.c ****         break;
 2222              		.loc 1 1085 36 view .LVU559
 2223 002a F5E7     		b	.L145
 2224              	.LVL119:
 2225              	.L142:
1089:Drivers/GD32F1x0_standard_peripheral/Source/gd32f1x0_timer.c ****         TIMER_CHCTL2(timer_periph) |= (uint32_t)((uint32_t)ocpolarity << 8);
 2226              		.loc 1 1089 9 is_stmt 1 view .LVU560
1089:Drivers/GD32F1x0_standard_peripheral/Source/gd32f1x0_timer.c ****         TIMER_CHCTL2(timer_periph) |= (uint32_t)((uint32_t)ocpolarity << 8);
 2227              		.loc 1 1089 36 is_stmt 0 view .LVU561
 2228 002c 036A     		ldr	r3, [r0, #32]
 2229 002e 23F40073 		bic	r3, r3, #512
 2230 0032 0362     		str	r3, [r0, #32]
1090:Drivers/GD32F1x0_standard_peripheral/Source/gd32f1x0_timer.c ****         break;
 2231              		.loc 1 1090 9 is_stmt 1 view .LVU562
1090:Drivers/GD32F1x0_standard_peripheral/Source/gd32f1x0_timer.c ****         break;
 2232              		.loc 1 1090 36 is_stmt 0 view .LVU563
 2233 0034 036A     		ldr	r3, [r0, #32]
 2234 0036 43EA0222 		orr	r2, r3, r2, lsl #8
 2235              	.LVL120:
1090:Drivers/GD32F1x0_standard_peripheral/Source/gd32f1x0_timer.c ****         break;
 2236              		.loc 1 1090 36 view .LVU564
 2237 003a EDE7     		b	.L145
 2238              	.LVL121:
 2239              	.L140:
1094:Drivers/GD32F1x0_standard_peripheral/Source/gd32f1x0_timer.c ****         TIMER_CHCTL2(timer_periph) |= (uint32_t)((uint32_t)ocpolarity << 12);
 2240              		.loc 1 1094 9 is_stmt 1 view .LVU565
1094:Drivers/GD32F1x0_standard_peripheral/Source/gd32f1x0_timer.c ****         TIMER_CHCTL2(timer_periph) |= (uint32_t)((uint32_t)ocpolarity << 12);
 2241              		.loc 1 1094 36 is_stmt 0 view .LVU566
 2242 003c 036A     		ldr	r3, [r0, #32]
 2243 003e 23F40053 		bic	r3, r3, #8192
 2244 0042 0362     		str	r3, [r0, #32]
1095:Drivers/GD32F1x0_standard_peripheral/Source/gd32f1x0_timer.c ****         break;
ARM GAS  /tmp/ccP4G5CZ.s 			page 61


 2245              		.loc 1 1095 9 is_stmt 1 view .LVU567
1095:Drivers/GD32F1x0_standard_peripheral/Source/gd32f1x0_timer.c ****         break;
 2246              		.loc 1 1095 36 is_stmt 0 view .LVU568
 2247 0044 036A     		ldr	r3, [r0, #32]
 2248 0046 43EA0232 		orr	r2, r3, r2, lsl #12
 2249              	.LVL122:
1095:Drivers/GD32F1x0_standard_peripheral/Source/gd32f1x0_timer.c ****         break;
 2250              		.loc 1 1095 36 view .LVU569
 2251 004a E5E7     		b	.L145
 2252              		.cfi_endproc
 2253              	.LFE100:
 2255              		.section	.text.timer_channel_complementary_output_polarity_config,"ax",%progbits
 2256              		.align	1
 2257              		.global	timer_channel_complementary_output_polarity_config
 2258              		.syntax unified
 2259              		.thumb
 2260              		.thumb_func
 2261              		.fpu softvfp
 2263              	timer_channel_complementary_output_polarity_config:
 2264              	.LVL123:
 2265              	.LFB101:
1101:Drivers/GD32F1x0_standard_peripheral/Source/gd32f1x0_timer.c **** 
1102:Drivers/GD32F1x0_standard_peripheral/Source/gd32f1x0_timer.c **** /*!
1103:Drivers/GD32F1x0_standard_peripheral/Source/gd32f1x0_timer.c ****     \brief      configure TIMER channel complementary output polarity 
1104:Drivers/GD32F1x0_standard_peripheral/Source/gd32f1x0_timer.c ****     \param[in]  timer_periph: TIMERx(x=0,1,2,13,14,15,16)
1105:Drivers/GD32F1x0_standard_peripheral/Source/gd32f1x0_timer.c ****     \param[in]  channel: 
1106:Drivers/GD32F1x0_standard_peripheral/Source/gd32f1x0_timer.c ****       \arg        TIMER_CH_0: TIMER channel0(TIMERx(x=0,1,2,13,14,15,16))
1107:Drivers/GD32F1x0_standard_peripheral/Source/gd32f1x0_timer.c ****       \arg        TIMER_CH_1: TIMER channel1(TIMERx(x=0,1,2,14))
1108:Drivers/GD32F1x0_standard_peripheral/Source/gd32f1x0_timer.c ****       \arg        TIMER_CH_2: TIMER channel2(TIMERx(x=0,1,2))
1109:Drivers/GD32F1x0_standard_peripheral/Source/gd32f1x0_timer.c ****     \param[in]  ocnpolarity: channel complementary output polarity 
1110:Drivers/GD32F1x0_standard_peripheral/Source/gd32f1x0_timer.c ****       \arg        TIMER_OCN_POLARITY_HIGH: channel complementary output polarity is high
1111:Drivers/GD32F1x0_standard_peripheral/Source/gd32f1x0_timer.c ****       \arg        TIMER_OCN_POLARITY_LOW: channel complementary output polarity is low
1112:Drivers/GD32F1x0_standard_peripheral/Source/gd32f1x0_timer.c ****     \param[out] none
1113:Drivers/GD32F1x0_standard_peripheral/Source/gd32f1x0_timer.c ****     \retval     none
1114:Drivers/GD32F1x0_standard_peripheral/Source/gd32f1x0_timer.c **** */
1115:Drivers/GD32F1x0_standard_peripheral/Source/gd32f1x0_timer.c **** void timer_channel_complementary_output_polarity_config(uint32_t timer_periph, uint16_t channel, ui
1116:Drivers/GD32F1x0_standard_peripheral/Source/gd32f1x0_timer.c **** {
 2266              		.loc 1 1116 1 is_stmt 1 view -0
 2267              		.cfi_startproc
 2268              		@ args = 0, pretend = 0, frame = 0
 2269              		@ frame_needed = 0, uses_anonymous_args = 0
 2270              		@ link register save eliminated.
1117:Drivers/GD32F1x0_standard_peripheral/Source/gd32f1x0_timer.c ****     switch(channel){
 2271              		.loc 1 1117 5 view .LVU571
 2272 0000 0129     		cmp	r1, #1
 2273 0002 0AD0     		beq	.L147
 2274 0004 0229     		cmp	r1, #2
 2275 0006 10D0     		beq	.L148
 2276 0008 31B9     		cbnz	r1, .L146
1118:Drivers/GD32F1x0_standard_peripheral/Source/gd32f1x0_timer.c ****     /* configure TIMER_CH_0 */
1119:Drivers/GD32F1x0_standard_peripheral/Source/gd32f1x0_timer.c ****     case TIMER_CH_0:
1120:Drivers/GD32F1x0_standard_peripheral/Source/gd32f1x0_timer.c ****         TIMER_CHCTL2(timer_periph) &=(uint32_t)(~TIMER_CHCTL2_CH0NP);
 2277              		.loc 1 1120 9 view .LVU572
 2278              		.loc 1 1120 36 is_stmt 0 view .LVU573
 2279 000a 036A     		ldr	r3, [r0, #32]
 2280 000c 23F00803 		bic	r3, r3, #8
 2281 0010 0362     		str	r3, [r0, #32]
ARM GAS  /tmp/ccP4G5CZ.s 			page 62


1121:Drivers/GD32F1x0_standard_peripheral/Source/gd32f1x0_timer.c ****         TIMER_CHCTL2(timer_periph) |= (uint32_t)ocnpolarity;
 2282              		.loc 1 1121 9 is_stmt 1 view .LVU574
 2283              		.loc 1 1121 36 is_stmt 0 view .LVU575
 2284 0012 036A     		ldr	r3, [r0, #32]
 2285 0014 1A43     		orrs	r2, r2, r3
 2286              	.LVL124:
 2287              	.L150:
1122:Drivers/GD32F1x0_standard_peripheral/Source/gd32f1x0_timer.c ****         break;
1123:Drivers/GD32F1x0_standard_peripheral/Source/gd32f1x0_timer.c ****     /* configure TIMER_CH_1 */
1124:Drivers/GD32F1x0_standard_peripheral/Source/gd32f1x0_timer.c ****     case TIMER_CH_1:
1125:Drivers/GD32F1x0_standard_peripheral/Source/gd32f1x0_timer.c ****         TIMER_CHCTL2(timer_periph) &=(uint32_t)(~TIMER_CHCTL2_CH1NP);
1126:Drivers/GD32F1x0_standard_peripheral/Source/gd32f1x0_timer.c ****         TIMER_CHCTL2(timer_periph) |= (uint32_t)((uint32_t)ocnpolarity << 4);
1127:Drivers/GD32F1x0_standard_peripheral/Source/gd32f1x0_timer.c ****         break;
1128:Drivers/GD32F1x0_standard_peripheral/Source/gd32f1x0_timer.c ****     /* configure TIMER_CH_2 */
1129:Drivers/GD32F1x0_standard_peripheral/Source/gd32f1x0_timer.c ****     case TIMER_CH_2:
1130:Drivers/GD32F1x0_standard_peripheral/Source/gd32f1x0_timer.c ****         TIMER_CHCTL2(timer_periph) &=(uint32_t)(~TIMER_CHCTL2_CH2NP);
1131:Drivers/GD32F1x0_standard_peripheral/Source/gd32f1x0_timer.c ****         TIMER_CHCTL2(timer_periph) |= (uint32_t)((uint32_t)ocnpolarity << 8);
 2288              		.loc 1 1131 36 view .LVU576
 2289 0016 0262     		str	r2, [r0, #32]
1132:Drivers/GD32F1x0_standard_peripheral/Source/gd32f1x0_timer.c ****         break;
 2290              		.loc 1 1132 9 is_stmt 1 view .LVU577
 2291              	.L146:
1133:Drivers/GD32F1x0_standard_peripheral/Source/gd32f1x0_timer.c ****     default:
1134:Drivers/GD32F1x0_standard_peripheral/Source/gd32f1x0_timer.c ****         break;
1135:Drivers/GD32F1x0_standard_peripheral/Source/gd32f1x0_timer.c ****     }
1136:Drivers/GD32F1x0_standard_peripheral/Source/gd32f1x0_timer.c **** }
 2292              		.loc 1 1136 1 is_stmt 0 view .LVU578
 2293 0018 7047     		bx	lr
 2294              	.LVL125:
 2295              	.L147:
1125:Drivers/GD32F1x0_standard_peripheral/Source/gd32f1x0_timer.c ****         TIMER_CHCTL2(timer_periph) |= (uint32_t)((uint32_t)ocnpolarity << 4);
 2296              		.loc 1 1125 9 is_stmt 1 view .LVU579
1125:Drivers/GD32F1x0_standard_peripheral/Source/gd32f1x0_timer.c ****         TIMER_CHCTL2(timer_periph) |= (uint32_t)((uint32_t)ocnpolarity << 4);
 2297              		.loc 1 1125 36 is_stmt 0 view .LVU580
 2298 001a 036A     		ldr	r3, [r0, #32]
 2299 001c 23F08003 		bic	r3, r3, #128
 2300 0020 0362     		str	r3, [r0, #32]
1126:Drivers/GD32F1x0_standard_peripheral/Source/gd32f1x0_timer.c ****         break;
 2301              		.loc 1 1126 9 is_stmt 1 view .LVU581
1126:Drivers/GD32F1x0_standard_peripheral/Source/gd32f1x0_timer.c ****         break;
 2302              		.loc 1 1126 36 is_stmt 0 view .LVU582
 2303 0022 036A     		ldr	r3, [r0, #32]
 2304 0024 43EA0212 		orr	r2, r3, r2, lsl #4
 2305              	.LVL126:
1126:Drivers/GD32F1x0_standard_peripheral/Source/gd32f1x0_timer.c ****         break;
 2306              		.loc 1 1126 36 view .LVU583
 2307 0028 F5E7     		b	.L150
 2308              	.LVL127:
 2309              	.L148:
1130:Drivers/GD32F1x0_standard_peripheral/Source/gd32f1x0_timer.c ****         TIMER_CHCTL2(timer_periph) |= (uint32_t)((uint32_t)ocnpolarity << 8);
 2310              		.loc 1 1130 9 is_stmt 1 view .LVU584
1130:Drivers/GD32F1x0_standard_peripheral/Source/gd32f1x0_timer.c ****         TIMER_CHCTL2(timer_periph) |= (uint32_t)((uint32_t)ocnpolarity << 8);
 2311              		.loc 1 1130 36 is_stmt 0 view .LVU585
 2312 002a 036A     		ldr	r3, [r0, #32]
 2313 002c 23F40063 		bic	r3, r3, #2048
 2314 0030 0362     		str	r3, [r0, #32]
1131:Drivers/GD32F1x0_standard_peripheral/Source/gd32f1x0_timer.c ****         break;
ARM GAS  /tmp/ccP4G5CZ.s 			page 63


 2315              		.loc 1 1131 9 is_stmt 1 view .LVU586
1131:Drivers/GD32F1x0_standard_peripheral/Source/gd32f1x0_timer.c ****         break;
 2316              		.loc 1 1131 36 is_stmt 0 view .LVU587
 2317 0032 036A     		ldr	r3, [r0, #32]
 2318 0034 43EA0222 		orr	r2, r3, r2, lsl #8
 2319              	.LVL128:
1131:Drivers/GD32F1x0_standard_peripheral/Source/gd32f1x0_timer.c ****         break;
 2320              		.loc 1 1131 36 view .LVU588
 2321 0038 EDE7     		b	.L150
 2322              		.cfi_endproc
 2323              	.LFE101:
 2325              		.section	.text.timer_ocpre_clear_source_config,"ax",%progbits
 2326              		.align	1
 2327              		.global	timer_ocpre_clear_source_config
 2328              		.syntax unified
 2329              		.thumb
 2330              		.thumb_func
 2331              		.fpu softvfp
 2333              	timer_ocpre_clear_source_config:
 2334              	.LVL129:
 2335              	.LFB102:
1137:Drivers/GD32F1x0_standard_peripheral/Source/gd32f1x0_timer.c **** 
1138:Drivers/GD32F1x0_standard_peripheral/Source/gd32f1x0_timer.c **** /*!
1139:Drivers/GD32F1x0_standard_peripheral/Source/gd32f1x0_timer.c ****     \brief      configure TIMER OCPRE clear source selection
1140:Drivers/GD32F1x0_standard_peripheral/Source/gd32f1x0_timer.c ****     \param[in]  timer_periph: TIMERx(x=0,1,2)
1141:Drivers/GD32F1x0_standard_peripheral/Source/gd32f1x0_timer.c ****     \param[in]  clear: OCPRE clear source
1142:Drivers/GD32F1x0_standard_peripheral/Source/gd32f1x0_timer.c ****       \arg        TIMER_OCPRE_CLEAR_SOURCE_ETIF: OCPRE_CLR_INT is connected to ETIF
1143:Drivers/GD32F1x0_standard_peripheral/Source/gd32f1x0_timer.c ****       \arg        TIMER_OCPRE_CLEAR_SOURCE_CLR: OCPRE_CLR_INT is connected to the OCPRE_CLR input
1144:Drivers/GD32F1x0_standard_peripheral/Source/gd32f1x0_timer.c ****     \param[out] none
1145:Drivers/GD32F1x0_standard_peripheral/Source/gd32f1x0_timer.c ****     \retval     none
1146:Drivers/GD32F1x0_standard_peripheral/Source/gd32f1x0_timer.c **** */
1147:Drivers/GD32F1x0_standard_peripheral/Source/gd32f1x0_timer.c **** void timer_ocpre_clear_source_config(uint32_t timer_periph, uint8_t ocpreclear)
1148:Drivers/GD32F1x0_standard_peripheral/Source/gd32f1x0_timer.c **** {
 2336              		.loc 1 1148 1 is_stmt 1 view -0
 2337              		.cfi_startproc
 2338              		@ args = 0, pretend = 0, frame = 0
 2339              		@ frame_needed = 0, uses_anonymous_args = 0
 2340              		@ link register save eliminated.
1149:Drivers/GD32F1x0_standard_peripheral/Source/gd32f1x0_timer.c ****     if(TIMER_OCPRE_CLEAR_SOURCE_ETIF == ocpreclear){
 2341              		.loc 1 1149 5 view .LVU590
 2342              		.loc 1 1149 7 is_stmt 0 view .LVU591
 2343 0000 0129     		cmp	r1, #1
 2344 0002 04D1     		bne	.L152
1150:Drivers/GD32F1x0_standard_peripheral/Source/gd32f1x0_timer.c ****         TIMER_SMCFG(timer_periph) |= (uint32_t)TIMER_SMCFG_OCRC;
 2345              		.loc 1 1150 9 is_stmt 1 view .LVU592
 2346              		.loc 1 1150 35 is_stmt 0 view .LVU593
 2347 0004 8368     		ldr	r3, [r0, #8]
 2348 0006 43F00803 		orr	r3, r3, #8
 2349              	.L154:
1151:Drivers/GD32F1x0_standard_peripheral/Source/gd32f1x0_timer.c ****     }else if(TIMER_OCPRE_CLEAR_SOURCE_CLR == ocpreclear){
1152:Drivers/GD32F1x0_standard_peripheral/Source/gd32f1x0_timer.c ****         TIMER_SMCFG(timer_periph) &= ~(uint32_t)TIMER_SMCFG_OCRC;
 2350              		.loc 1 1152 35 view .LVU594
 2351 000a 8360     		str	r3, [r0, #8]
1153:Drivers/GD32F1x0_standard_peripheral/Source/gd32f1x0_timer.c ****     }else{
1154:Drivers/GD32F1x0_standard_peripheral/Source/gd32f1x0_timer.c ****     }
 2352              		.loc 1 1154 5 is_stmt 1 view .LVU595
 2353              	.L151:
ARM GAS  /tmp/ccP4G5CZ.s 			page 64


1155:Drivers/GD32F1x0_standard_peripheral/Source/gd32f1x0_timer.c **** }
 2354              		.loc 1 1155 1 is_stmt 0 view .LVU596
 2355 000c 7047     		bx	lr
 2356              	.L152:
1151:Drivers/GD32F1x0_standard_peripheral/Source/gd32f1x0_timer.c ****     }else if(TIMER_OCPRE_CLEAR_SOURCE_CLR == ocpreclear){
 2357              		.loc 1 1151 11 is_stmt 1 view .LVU597
1151:Drivers/GD32F1x0_standard_peripheral/Source/gd32f1x0_timer.c ****     }else if(TIMER_OCPRE_CLEAR_SOURCE_CLR == ocpreclear){
 2358              		.loc 1 1151 13 is_stmt 0 view .LVU598
 2359 000e 0029     		cmp	r1, #0
 2360 0010 FCD1     		bne	.L151
1152:Drivers/GD32F1x0_standard_peripheral/Source/gd32f1x0_timer.c ****     }else{
 2361              		.loc 1 1152 9 is_stmt 1 view .LVU599
1152:Drivers/GD32F1x0_standard_peripheral/Source/gd32f1x0_timer.c ****     }else{
 2362              		.loc 1 1152 35 is_stmt 0 view .LVU600
 2363 0012 8368     		ldr	r3, [r0, #8]
 2364 0014 23F00803 		bic	r3, r3, #8
 2365 0018 F7E7     		b	.L154
 2366              		.cfi_endproc
 2367              	.LFE102:
 2369              		.section	.text.timer_channel_output_state_config,"ax",%progbits
 2370              		.align	1
 2371              		.global	timer_channel_output_state_config
 2372              		.syntax unified
 2373              		.thumb
 2374              		.thumb_func
 2375              		.fpu softvfp
 2377              	timer_channel_output_state_config:
 2378              	.LVL130:
 2379              	.LFB103:
1156:Drivers/GD32F1x0_standard_peripheral/Source/gd32f1x0_timer.c **** 
1157:Drivers/GD32F1x0_standard_peripheral/Source/gd32f1x0_timer.c **** /*!
1158:Drivers/GD32F1x0_standard_peripheral/Source/gd32f1x0_timer.c ****     \brief      configure TIMER channel enable state
1159:Drivers/GD32F1x0_standard_peripheral/Source/gd32f1x0_timer.c ****     \param[in]  timer_periph: TIMERx(x=0,1,2,13,14,15,16)
1160:Drivers/GD32F1x0_standard_peripheral/Source/gd32f1x0_timer.c ****     \param[in]  channel: 
1161:Drivers/GD32F1x0_standard_peripheral/Source/gd32f1x0_timer.c ****       \arg        TIMER_CH_0: TIMER channel0(TIMERx(x=0,1,2,13,14,15,16))
1162:Drivers/GD32F1x0_standard_peripheral/Source/gd32f1x0_timer.c ****       \arg        TIMER_CH_1: TIMER channel1(TIMERx(x=0,1,2,14))
1163:Drivers/GD32F1x0_standard_peripheral/Source/gd32f1x0_timer.c ****       \arg        TIMER_CH_2: TIMER channel2(TIMERx(x=0,1,2))
1164:Drivers/GD32F1x0_standard_peripheral/Source/gd32f1x0_timer.c ****       \arg        TIMER_CH_3: TIMER channel3(TIMERx(x=0,1,2))
1165:Drivers/GD32F1x0_standard_peripheral/Source/gd32f1x0_timer.c ****     \param[in]  state: TIMER channel enable state
1166:Drivers/GD32F1x0_standard_peripheral/Source/gd32f1x0_timer.c ****       \arg        TIMER_CCX_ENABLE: channel enable 
1167:Drivers/GD32F1x0_standard_peripheral/Source/gd32f1x0_timer.c ****       \arg        TIMER_CCX_DISABLE: channel disable 
1168:Drivers/GD32F1x0_standard_peripheral/Source/gd32f1x0_timer.c ****     \param[out] none
1169:Drivers/GD32F1x0_standard_peripheral/Source/gd32f1x0_timer.c ****     \retval     none
1170:Drivers/GD32F1x0_standard_peripheral/Source/gd32f1x0_timer.c **** */
1171:Drivers/GD32F1x0_standard_peripheral/Source/gd32f1x0_timer.c **** void timer_channel_output_state_config(uint32_t timer_periph, uint16_t channel, uint16_t state)
1172:Drivers/GD32F1x0_standard_peripheral/Source/gd32f1x0_timer.c **** {
 2380              		.loc 1 1172 1 is_stmt 1 view -0
 2381              		.cfi_startproc
 2382              		@ args = 0, pretend = 0, frame = 0
 2383              		@ frame_needed = 0, uses_anonymous_args = 0
 2384              		@ link register save eliminated.
1173:Drivers/GD32F1x0_standard_peripheral/Source/gd32f1x0_timer.c ****     switch(channel){
 2385              		.loc 1 1173 5 view .LVU602
 2386 0000 0329     		cmp	r1, #3
 2387 0002 0AD8     		bhi	.L155
 2388 0004 DFE801F0 		tbb	[pc, r1]
 2389              	.L158:
ARM GAS  /tmp/ccP4G5CZ.s 			page 65


 2390 0008 02       		.byte	(.L161-.L158)/2
 2391 0009 0A       		.byte	(.L160-.L158)/2
 2392 000a 12       		.byte	(.L159-.L158)/2
 2393 000b 1A       		.byte	(.L157-.L158)/2
 2394              		.p2align 1
 2395              	.L161:
1174:Drivers/GD32F1x0_standard_peripheral/Source/gd32f1x0_timer.c ****     /* configure TIMER_CH_0 */
1175:Drivers/GD32F1x0_standard_peripheral/Source/gd32f1x0_timer.c ****     case TIMER_CH_0:
1176:Drivers/GD32F1x0_standard_peripheral/Source/gd32f1x0_timer.c ****         TIMER_CHCTL2(timer_periph) &=(uint32_t)(~TIMER_CHCTL2_CH0EN);
 2396              		.loc 1 1176 9 view .LVU603
 2397              		.loc 1 1176 36 is_stmt 0 view .LVU604
 2398 000c 036A     		ldr	r3, [r0, #32]
 2399 000e 23F00103 		bic	r3, r3, #1
 2400 0012 0362     		str	r3, [r0, #32]
1177:Drivers/GD32F1x0_standard_peripheral/Source/gd32f1x0_timer.c ****         TIMER_CHCTL2(timer_periph) |= (uint32_t)state;
 2401              		.loc 1 1177 9 is_stmt 1 view .LVU605
 2402              		.loc 1 1177 36 is_stmt 0 view .LVU606
 2403 0014 036A     		ldr	r3, [r0, #32]
 2404 0016 1A43     		orrs	r2, r2, r3
 2405              	.LVL131:
 2406              	.L162:
1178:Drivers/GD32F1x0_standard_peripheral/Source/gd32f1x0_timer.c ****         break;
1179:Drivers/GD32F1x0_standard_peripheral/Source/gd32f1x0_timer.c ****     /* configure TIMER_CH_1 */
1180:Drivers/GD32F1x0_standard_peripheral/Source/gd32f1x0_timer.c ****     case TIMER_CH_1:
1181:Drivers/GD32F1x0_standard_peripheral/Source/gd32f1x0_timer.c ****         TIMER_CHCTL2(timer_periph) &=(uint32_t)(~TIMER_CHCTL2_CH1EN);
1182:Drivers/GD32F1x0_standard_peripheral/Source/gd32f1x0_timer.c ****         TIMER_CHCTL2(timer_periph) |= (uint32_t)((uint32_t)state << 4);
1183:Drivers/GD32F1x0_standard_peripheral/Source/gd32f1x0_timer.c ****         break;
1184:Drivers/GD32F1x0_standard_peripheral/Source/gd32f1x0_timer.c ****     /* configure TIMER_CH_2 */
1185:Drivers/GD32F1x0_standard_peripheral/Source/gd32f1x0_timer.c ****     case TIMER_CH_2:
1186:Drivers/GD32F1x0_standard_peripheral/Source/gd32f1x0_timer.c ****         TIMER_CHCTL2(timer_periph) &=(uint32_t)(~TIMER_CHCTL2_CH2EN);
1187:Drivers/GD32F1x0_standard_peripheral/Source/gd32f1x0_timer.c ****         TIMER_CHCTL2(timer_periph) |= (uint32_t)((uint32_t)state << 8);
1188:Drivers/GD32F1x0_standard_peripheral/Source/gd32f1x0_timer.c ****         break;
1189:Drivers/GD32F1x0_standard_peripheral/Source/gd32f1x0_timer.c ****     /* configure TIMER_CH_3 */
1190:Drivers/GD32F1x0_standard_peripheral/Source/gd32f1x0_timer.c ****     case TIMER_CH_3:
1191:Drivers/GD32F1x0_standard_peripheral/Source/gd32f1x0_timer.c ****         TIMER_CHCTL2(timer_periph) &=(uint32_t)(~TIMER_CHCTL2_CH3EN);
1192:Drivers/GD32F1x0_standard_peripheral/Source/gd32f1x0_timer.c ****         TIMER_CHCTL2(timer_periph) |= (uint32_t)((uint32_t)state << 12);
 2407              		.loc 1 1192 36 view .LVU607
 2408 0018 0262     		str	r2, [r0, #32]
1193:Drivers/GD32F1x0_standard_peripheral/Source/gd32f1x0_timer.c ****         break;
 2409              		.loc 1 1193 9 is_stmt 1 view .LVU608
 2410              	.L155:
1194:Drivers/GD32F1x0_standard_peripheral/Source/gd32f1x0_timer.c ****     default:
1195:Drivers/GD32F1x0_standard_peripheral/Source/gd32f1x0_timer.c ****         break;
1196:Drivers/GD32F1x0_standard_peripheral/Source/gd32f1x0_timer.c ****     }
1197:Drivers/GD32F1x0_standard_peripheral/Source/gd32f1x0_timer.c **** }
 2411              		.loc 1 1197 1 is_stmt 0 view .LVU609
