ARM GAS  /tmp/cc7gBZyD.s 			page 1


   1              		.cpu cortex-m3
   2              		.eabi_attribute 20, 1
   3              		.eabi_attribute 21, 1
   4              		.eabi_attribute 23, 3
   5              		.eabi_attribute 24, 1
   6              		.eabi_attribute 25, 1
   7              		.eabi_attribute 26, 1
   8              		.eabi_attribute 30, 4
   9              		.eabi_attribute 34, 1
  10              		.eabi_attribute 18, 4
  11              		.file	"gd32f1x0_dac.c"
  12              		.text
  13              	.Ltext0:
  14              		.cfi_sections	.debug_frame
  15              		.section	.text.dac_deinit,"ax",%progbits
  16              		.align	1
  17              		.global	dac_deinit
  18              		.arch armv7-m
  19              		.syntax unified
  20              		.thumb
  21              		.thumb_func
  22              		.fpu softvfp
  24              	dac_deinit:
  25              	.LFB56:
  26              		.file 1 "Drivers/GD32F1x0_standard_peripheral/Source/gd32f1x0_dac.c"
   1:Drivers/GD32F1x0_standard_peripheral/Source/gd32f1x0_dac.c **** /*!
   2:Drivers/GD32F1x0_standard_peripheral/Source/gd32f1x0_dac.c ****     \file  gd32f1x0_dac.c
   3:Drivers/GD32F1x0_standard_peripheral/Source/gd32f1x0_dac.c ****     \brief DAC driver
   4:Drivers/GD32F1x0_standard_peripheral/Source/gd32f1x0_dac.c **** */
   5:Drivers/GD32F1x0_standard_peripheral/Source/gd32f1x0_dac.c **** 
   6:Drivers/GD32F1x0_standard_peripheral/Source/gd32f1x0_dac.c **** /*
   7:Drivers/GD32F1x0_standard_peripheral/Source/gd32f1x0_dac.c ****     Copyright (C) 2017 GigaDevice
   8:Drivers/GD32F1x0_standard_peripheral/Source/gd32f1x0_dac.c **** 
   9:Drivers/GD32F1x0_standard_peripheral/Source/gd32f1x0_dac.c ****     2014-12-26, V1.0.0, platform GD32F1x0(x=3,5)
  10:Drivers/GD32F1x0_standard_peripheral/Source/gd32f1x0_dac.c ****     2016-01-15, V2.0.0, platform GD32F1x0(x=3,5,7,9)
  11:Drivers/GD32F1x0_standard_peripheral/Source/gd32f1x0_dac.c ****     2016-04-30, V3.0.0, firmware update for GD32F1x0(x=3,5,7,9)
  12:Drivers/GD32F1x0_standard_peripheral/Source/gd32f1x0_dac.c ****     2017-06-19, V3.1.0, firmware update for GD32F1x0(x=3,5,7,9)
  13:Drivers/GD32F1x0_standard_peripheral/Source/gd32f1x0_dac.c **** */
  14:Drivers/GD32F1x0_standard_peripheral/Source/gd32f1x0_dac.c **** 
  15:Drivers/GD32F1x0_standard_peripheral/Source/gd32f1x0_dac.c **** 
  16:Drivers/GD32F1x0_standard_peripheral/Source/gd32f1x0_dac.c **** #include "gd32f1x0_dac.h"
  17:Drivers/GD32F1x0_standard_peripheral/Source/gd32f1x0_dac.c **** 
  18:Drivers/GD32F1x0_standard_peripheral/Source/gd32f1x0_dac.c **** /*!
  19:Drivers/GD32F1x0_standard_peripheral/Source/gd32f1x0_dac.c ****     \brief      deinit DAC
  20:Drivers/GD32F1x0_standard_peripheral/Source/gd32f1x0_dac.c ****     \param[in]  none
  21:Drivers/GD32F1x0_standard_peripheral/Source/gd32f1x0_dac.c ****     \param[out] none
  22:Drivers/GD32F1x0_standard_peripheral/Source/gd32f1x0_dac.c ****     \retval     none
  23:Drivers/GD32F1x0_standard_peripheral/Source/gd32f1x0_dac.c **** */
  24:Drivers/GD32F1x0_standard_peripheral/Source/gd32f1x0_dac.c **** void dac_deinit(void)
  25:Drivers/GD32F1x0_standard_peripheral/Source/gd32f1x0_dac.c **** {
  27              		.loc 1 25 1 view -0
  28              		.cfi_startproc
  29              		@ args = 0, pretend = 0, frame = 0
  30              		@ frame_needed = 0, uses_anonymous_args = 0
  26:Drivers/GD32F1x0_standard_peripheral/Source/gd32f1x0_dac.c ****     rcu_periph_reset_enable(RCU_DACRST);
  31              		.loc 1 26 5 view .LVU1
  25:Drivers/GD32F1x0_standard_peripheral/Source/gd32f1x0_dac.c ****     rcu_periph_reset_enable(RCU_DACRST);
ARM GAS  /tmp/cc7gBZyD.s 			page 2


  32              		.loc 1 25 1 is_stmt 0 view .LVU2
  33 0000 08B5     		push	{r3, lr}
  34              	.LCFI0:
  35              		.cfi_def_cfa_offset 8
  36              		.cfi_offset 3, -8
  37              		.cfi_offset 14, -4
  38              		.loc 1 26 5 view .LVU3
  39 0002 40F21D40 		movw	r0, #1053
  40 0006 FFF7FEFF 		bl	rcu_periph_reset_enable
  41              	.LVL0:
  27:Drivers/GD32F1x0_standard_peripheral/Source/gd32f1x0_dac.c ****     rcu_periph_reset_disable(RCU_DACRST);
  42              		.loc 1 27 5 is_stmt 1 view .LVU4
  28:Drivers/GD32F1x0_standard_peripheral/Source/gd32f1x0_dac.c **** }
  43              		.loc 1 28 1 is_stmt 0 view .LVU5
  44 000a BDE80840 		pop	{r3, lr}
  45              	.LCFI1:
  46              		.cfi_restore 14
  47              		.cfi_restore 3
  48              		.cfi_def_cfa_offset 0
  27:Drivers/GD32F1x0_standard_peripheral/Source/gd32f1x0_dac.c ****     rcu_periph_reset_disable(RCU_DACRST);
  49              		.loc 1 27 5 view .LVU6
  50 000e 40F21D40 		movw	r0, #1053
  51 0012 FFF7FEBF 		b	rcu_periph_reset_disable
  52              	.LVL1:
  53              		.cfi_endproc
  54              	.LFE56:
  56              		.section	.text.dac0_enable,"ax",%progbits
  57              		.align	1
  58              		.global	dac0_enable
  59              		.syntax unified
  60              		.thumb
  61              		.thumb_func
  62              		.fpu softvfp
  64              	dac0_enable:
  65              	.LFB57:
  29:Drivers/GD32F1x0_standard_peripheral/Source/gd32f1x0_dac.c **** 
  30:Drivers/GD32F1x0_standard_peripheral/Source/gd32f1x0_dac.c **** /*!
  31:Drivers/GD32F1x0_standard_peripheral/Source/gd32f1x0_dac.c ****     \brief      enable DAC0
  32:Drivers/GD32F1x0_standard_peripheral/Source/gd32f1x0_dac.c ****     \param[in]  none
  33:Drivers/GD32F1x0_standard_peripheral/Source/gd32f1x0_dac.c ****     \param[out] none
  34:Drivers/GD32F1x0_standard_peripheral/Source/gd32f1x0_dac.c ****     \retval     none
  35:Drivers/GD32F1x0_standard_peripheral/Source/gd32f1x0_dac.c **** */
  36:Drivers/GD32F1x0_standard_peripheral/Source/gd32f1x0_dac.c **** void dac0_enable(void)
  37:Drivers/GD32F1x0_standard_peripheral/Source/gd32f1x0_dac.c **** {
  66              		.loc 1 37 1 is_stmt 1 view -0
  67              		.cfi_startproc
  68              		@ args = 0, pretend = 0, frame = 0
  69              		@ frame_needed = 0, uses_anonymous_args = 0
  70              		@ link register save eliminated.
  38:Drivers/GD32F1x0_standard_peripheral/Source/gd32f1x0_dac.c ****     DAC_CTL |= DAC_CTL_DEN0;
  71              		.loc 1 38 5 view .LVU8
  72              		.loc 1 38 13 is_stmt 0 view .LVU9
  73 0000 034A     		ldr	r2, .L3
  74 0002 D2F80034 		ldr	r3, [r2, #1024]
  75 0006 43F00103 		orr	r3, r3, #1
  76 000a C2F80034 		str	r3, [r2, #1024]
  39:Drivers/GD32F1x0_standard_peripheral/Source/gd32f1x0_dac.c **** }
ARM GAS  /tmp/cc7gBZyD.s 			page 3


  77              		.loc 1 39 1 view .LVU10
  78 000e 7047     		bx	lr
  79              	.L4:
  80              		.align	2
  81              	.L3:
  82 0010 00700040 		.word	1073770496
  83              		.cfi_endproc
  84              	.LFE57:
  86              		.section	.text.dac0_disable,"ax",%progbits
  87              		.align	1
  88              		.global	dac0_disable
  89              		.syntax unified
  90              		.thumb
  91              		.thumb_func
  92              		.fpu softvfp
  94              	dac0_disable:
  95              	.LFB58:
  40:Drivers/GD32F1x0_standard_peripheral/Source/gd32f1x0_dac.c **** 
  41:Drivers/GD32F1x0_standard_peripheral/Source/gd32f1x0_dac.c **** /*!
  42:Drivers/GD32F1x0_standard_peripheral/Source/gd32f1x0_dac.c ****     \brief      disable DAC0
  43:Drivers/GD32F1x0_standard_peripheral/Source/gd32f1x0_dac.c ****     \param[in]  none
  44:Drivers/GD32F1x0_standard_peripheral/Source/gd32f1x0_dac.c ****     \param[out] none
  45:Drivers/GD32F1x0_standard_peripheral/Source/gd32f1x0_dac.c ****     \retval     none
  46:Drivers/GD32F1x0_standard_peripheral/Source/gd32f1x0_dac.c **** */
  47:Drivers/GD32F1x0_standard_peripheral/Source/gd32f1x0_dac.c **** void dac0_disable(void)
  48:Drivers/GD32F1x0_standard_peripheral/Source/gd32f1x0_dac.c **** {
  96              		.loc 1 48 1 is_stmt 1 view -0
  97              		.cfi_startproc
  98              		@ args = 0, pretend = 0, frame = 0
  99              		@ frame_needed = 0, uses_anonymous_args = 0
 100              		@ link register save eliminated.
  49:Drivers/GD32F1x0_standard_peripheral/Source/gd32f1x0_dac.c ****     DAC_CTL &= ~DAC_CTL_DEN0;
 101              		.loc 1 49 5 view .LVU12
 102              		.loc 1 49 13 is_stmt 0 view .LVU13
 103 0000 034A     		ldr	r2, .L6
 104 0002 D2F80034 		ldr	r3, [r2, #1024]
 105 0006 23F00103 		bic	r3, r3, #1
 106 000a C2F80034 		str	r3, [r2, #1024]
  50:Drivers/GD32F1x0_standard_peripheral/Source/gd32f1x0_dac.c **** }
 107              		.loc 1 50 1 view .LVU14
 108 000e 7047     		bx	lr
 109              	.L7:
 110              		.align	2
 111              	.L6:
 112 0010 00700040 		.word	1073770496
 113              		.cfi_endproc
 114              	.LFE58:
 116              		.section	.text.dac0_dma_enable,"ax",%progbits
 117              		.align	1
 118              		.global	dac0_dma_enable
 119              		.syntax unified
 120              		.thumb
 121              		.thumb_func
 122              		.fpu softvfp
 124              	dac0_dma_enable:
 125              	.LFB59:
  51:Drivers/GD32F1x0_standard_peripheral/Source/gd32f1x0_dac.c **** 
ARM GAS  /tmp/cc7gBZyD.s 			page 4


  52:Drivers/GD32F1x0_standard_peripheral/Source/gd32f1x0_dac.c **** /*!
  53:Drivers/GD32F1x0_standard_peripheral/Source/gd32f1x0_dac.c ****     \brief      enable DAC0 DMA
  54:Drivers/GD32F1x0_standard_peripheral/Source/gd32f1x0_dac.c ****     \param[in]  none
  55:Drivers/GD32F1x0_standard_peripheral/Source/gd32f1x0_dac.c ****     \param[out] none
  56:Drivers/GD32F1x0_standard_peripheral/Source/gd32f1x0_dac.c ****     \retval     none
  57:Drivers/GD32F1x0_standard_peripheral/Source/gd32f1x0_dac.c **** */
  58:Drivers/GD32F1x0_standard_peripheral/Source/gd32f1x0_dac.c **** void dac0_dma_enable(void)
  59:Drivers/GD32F1x0_standard_peripheral/Source/gd32f1x0_dac.c **** {
 126              		.loc 1 59 1 is_stmt 1 view -0
 127              		.cfi_startproc
 128              		@ args = 0, pretend = 0, frame = 0
 129              		@ frame_needed = 0, uses_anonymous_args = 0
 130              		@ link register save eliminated.
  60:Drivers/GD32F1x0_standard_peripheral/Source/gd32f1x0_dac.c ****     DAC_CTL |= DAC_CTL_DDMAEN0;
 131              		.loc 1 60 5 view .LVU16
 132              		.loc 1 60 13 is_stmt 0 view .LVU17
 133 0000 034A     		ldr	r2, .L9
 134 0002 D2F80034 		ldr	r3, [r2, #1024]
 135 0006 43F48053 		orr	r3, r3, #4096
 136 000a C2F80034 		str	r3, [r2, #1024]
  61:Drivers/GD32F1x0_standard_peripheral/Source/gd32f1x0_dac.c **** }
 137              		.loc 1 61 1 view .LVU18
 138 000e 7047     		bx	lr
 139              	.L10:
 140              		.align	2
 141              	.L9:
 142 0010 00700040 		.word	1073770496
 143              		.cfi_endproc
 144              	.LFE59:
 146              		.section	.text.dac0_dma_disable,"ax",%progbits
 147              		.align	1
 148              		.global	dac0_dma_disable
 149              		.syntax unified
 150              		.thumb
 151              		.thumb_func
 152              		.fpu softvfp
 154              	dac0_dma_disable:
 155              	.LFB60:
  62:Drivers/GD32F1x0_standard_peripheral/Source/gd32f1x0_dac.c **** 
  63:Drivers/GD32F1x0_standard_peripheral/Source/gd32f1x0_dac.c **** /*!
  64:Drivers/GD32F1x0_standard_peripheral/Source/gd32f1x0_dac.c ****     \brief      disable DAC0 DMA
  65:Drivers/GD32F1x0_standard_peripheral/Source/gd32f1x0_dac.c ****     \param[in]  none
  66:Drivers/GD32F1x0_standard_peripheral/Source/gd32f1x0_dac.c ****     \param[out] none
  67:Drivers/GD32F1x0_standard_peripheral/Source/gd32f1x0_dac.c ****     \retval     none
  68:Drivers/GD32F1x0_standard_peripheral/Source/gd32f1x0_dac.c **** */
  69:Drivers/GD32F1x0_standard_peripheral/Source/gd32f1x0_dac.c **** void dac0_dma_disable(void)
  70:Drivers/GD32F1x0_standard_peripheral/Source/gd32f1x0_dac.c **** {
 156              		.loc 1 70 1 is_stmt 1 view -0
 157              		.cfi_startproc
 158              		@ args = 0, pretend = 0, frame = 0
 159              		@ frame_needed = 0, uses_anonymous_args = 0
 160              		@ link register save eliminated.
  71:Drivers/GD32F1x0_standard_peripheral/Source/gd32f1x0_dac.c ****     DAC_CTL &= ~DAC_CTL_DDMAEN0;
 161              		.loc 1 71 5 view .LVU20
 162              		.loc 1 71 13 is_stmt 0 view .LVU21
 163 0000 034A     		ldr	r2, .L12
 164 0002 D2F80034 		ldr	r3, [r2, #1024]
ARM GAS  /tmp/cc7gBZyD.s 			page 5


 165 0006 23F48053 		bic	r3, r3, #4096
 166 000a C2F80034 		str	r3, [r2, #1024]
  72:Drivers/GD32F1x0_standard_peripheral/Source/gd32f1x0_dac.c **** }
 167              		.loc 1 72 1 view .LVU22
 168 000e 7047     		bx	lr
 169              	.L13:
 170              		.align	2
 171              	.L12:
 172 0010 00700040 		.word	1073770496
 173              		.cfi_endproc
 174              	.LFE60:
 176              		.section	.text.dac0_output_buffer_enable,"ax",%progbits
 177              		.align	1
 178              		.global	dac0_output_buffer_enable
 179              		.syntax unified
 180              		.thumb
 181              		.thumb_func
 182              		.fpu softvfp
 184              	dac0_output_buffer_enable:
 185              	.LFB61:
  73:Drivers/GD32F1x0_standard_peripheral/Source/gd32f1x0_dac.c **** 
  74:Drivers/GD32F1x0_standard_peripheral/Source/gd32f1x0_dac.c **** /*!
  75:Drivers/GD32F1x0_standard_peripheral/Source/gd32f1x0_dac.c ****     \brief      enable DAC0 output buffer
  76:Drivers/GD32F1x0_standard_peripheral/Source/gd32f1x0_dac.c ****     \param[in]  none
  77:Drivers/GD32F1x0_standard_peripheral/Source/gd32f1x0_dac.c ****     \param[out] none
  78:Drivers/GD32F1x0_standard_peripheral/Source/gd32f1x0_dac.c ****     \retval     none
  79:Drivers/GD32F1x0_standard_peripheral/Source/gd32f1x0_dac.c **** */
  80:Drivers/GD32F1x0_standard_peripheral/Source/gd32f1x0_dac.c **** void dac0_output_buffer_enable(void)
  81:Drivers/GD32F1x0_standard_peripheral/Source/gd32f1x0_dac.c **** {
 186              		.loc 1 81 1 is_stmt 1 view -0
 187              		.cfi_startproc
 188              		@ args = 0, pretend = 0, frame = 0
 189              		@ frame_needed = 0, uses_anonymous_args = 0
 190              		@ link register save eliminated.
  82:Drivers/GD32F1x0_standard_peripheral/Source/gd32f1x0_dac.c ****     DAC_CTL &= ~DAC_CTL_DBOFF0;
 191              		.loc 1 82 5 view .LVU24
 192              		.loc 1 82 13 is_stmt 0 view .LVU25
 193 0000 034A     		ldr	r2, .L15
 194 0002 D2F80034 		ldr	r3, [r2, #1024]
 195 0006 23F00203 		bic	r3, r3, #2
 196 000a C2F80034 		str	r3, [r2, #1024]
  83:Drivers/GD32F1x0_standard_peripheral/Source/gd32f1x0_dac.c **** }
 197              		.loc 1 83 1 view .LVU26
 198 000e 7047     		bx	lr
 199              	.L16:
 200              		.align	2
 201              	.L15:
 202 0010 00700040 		.word	1073770496
 203              		.cfi_endproc
 204              	.LFE61:
 206              		.section	.text.dac0_output_buffer_disable,"ax",%progbits
 207              		.align	1
 208              		.global	dac0_output_buffer_disable
 209              		.syntax unified
 210              		.thumb
 211              		.thumb_func
 212              		.fpu softvfp
ARM GAS  /tmp/cc7gBZyD.s 			page 6


 214              	dac0_output_buffer_disable:
 215              	.LFB62:
  84:Drivers/GD32F1x0_standard_peripheral/Source/gd32f1x0_dac.c **** 
  85:Drivers/GD32F1x0_standard_peripheral/Source/gd32f1x0_dac.c **** /*!
  86:Drivers/GD32F1x0_standard_peripheral/Source/gd32f1x0_dac.c ****     \brief      disable DAC0 output buffer
  87:Drivers/GD32F1x0_standard_peripheral/Source/gd32f1x0_dac.c ****     \param[in]  none
  88:Drivers/GD32F1x0_standard_peripheral/Source/gd32f1x0_dac.c ****     \param[out] none
  89:Drivers/GD32F1x0_standard_peripheral/Source/gd32f1x0_dac.c ****     \retval     none
  90:Drivers/GD32F1x0_standard_peripheral/Source/gd32f1x0_dac.c **** */
  91:Drivers/GD32F1x0_standard_peripheral/Source/gd32f1x0_dac.c **** void dac0_output_buffer_disable(void)
  92:Drivers/GD32F1x0_standard_peripheral/Source/gd32f1x0_dac.c **** {
 216              		.loc 1 92 1 is_stmt 1 view -0
 217              		.cfi_startproc
 218              		@ args = 0, pretend = 0, frame = 0
 219              		@ frame_needed = 0, uses_anonymous_args = 0
 220              		@ link register save eliminated.
  93:Drivers/GD32F1x0_standard_peripheral/Source/gd32f1x0_dac.c ****     DAC_CTL |= DAC_CTL_DBOFF0;
 221              		.loc 1 93 5 view .LVU28
 222              		.loc 1 93 13 is_stmt 0 view .LVU29
 223 0000 034A     		ldr	r2, .L18
 224 0002 D2F80034 		ldr	r3, [r2, #1024]
 225 0006 43F00203 		orr	r3, r3, #2
 226 000a C2F80034 		str	r3, [r2, #1024]
  94:Drivers/GD32F1x0_standard_peripheral/Source/gd32f1x0_dac.c **** }
 227              		.loc 1 94 1 view .LVU30
 228 000e 7047     		bx	lr
 229              	.L19:
 230              		.align	2
 231              	.L18:
 232 0010 00700040 		.word	1073770496
 233              		.cfi_endproc
 234              	.LFE62:
 236              		.section	.text.dac0_trigger_enable,"ax",%progbits
 237              		.align	1
 238              		.global	dac0_trigger_enable
 239              		.syntax unified
 240              		.thumb
 241              		.thumb_func
 242              		.fpu softvfp
 244              	dac0_trigger_enable:
 245              	.LFB63:
  95:Drivers/GD32F1x0_standard_peripheral/Source/gd32f1x0_dac.c **** 
  96:Drivers/GD32F1x0_standard_peripheral/Source/gd32f1x0_dac.c **** /*!
  97:Drivers/GD32F1x0_standard_peripheral/Source/gd32f1x0_dac.c ****     \brief      enable DAC0 trigger
  98:Drivers/GD32F1x0_standard_peripheral/Source/gd32f1x0_dac.c ****     \param[in]  none
  99:Drivers/GD32F1x0_standard_peripheral/Source/gd32f1x0_dac.c ****     \param[out] none
 100:Drivers/GD32F1x0_standard_peripheral/Source/gd32f1x0_dac.c ****     \retval     none
 101:Drivers/GD32F1x0_standard_peripheral/Source/gd32f1x0_dac.c **** */
 102:Drivers/GD32F1x0_standard_peripheral/Source/gd32f1x0_dac.c **** void dac0_trigger_enable(void)
 103:Drivers/GD32F1x0_standard_peripheral/Source/gd32f1x0_dac.c **** {
 246              		.loc 1 103 1 is_stmt 1 view -0
 247              		.cfi_startproc
 248              		@ args = 0, pretend = 0, frame = 0
 249              		@ frame_needed = 0, uses_anonymous_args = 0
 250              		@ link register save eliminated.
 104:Drivers/GD32F1x0_standard_peripheral/Source/gd32f1x0_dac.c ****     DAC_CTL |= DAC_CTL_DTEN0;
 251              		.loc 1 104 5 view .LVU32
ARM GAS  /tmp/cc7gBZyD.s 			page 7


 252              		.loc 1 104 13 is_stmt 0 view .LVU33
 253 0000 034A     		ldr	r2, .L21
 254 0002 D2F80034 		ldr	r3, [r2, #1024]
 255 0006 43F00403 		orr	r3, r3, #4
 256 000a C2F80034 		str	r3, [r2, #1024]
 105:Drivers/GD32F1x0_standard_peripheral/Source/gd32f1x0_dac.c **** }
 257              		.loc 1 105 1 view .LVU34
 258 000e 7047     		bx	lr
 259              	.L22:
 260              		.align	2
 261              	.L21:
 262 0010 00700040 		.word	1073770496
 263              		.cfi_endproc
 264              	.LFE63:
 266              		.section	.text.dac0_trigger_disable,"ax",%progbits
 267              		.align	1
 268              		.global	dac0_trigger_disable
 269              		.syntax unified
 270              		.thumb
 271              		.thumb_func
 272              		.fpu softvfp
 274              	dac0_trigger_disable:
 275              	.LFB64:
 106:Drivers/GD32F1x0_standard_peripheral/Source/gd32f1x0_dac.c **** 
 107:Drivers/GD32F1x0_standard_peripheral/Source/gd32f1x0_dac.c **** /*!
 108:Drivers/GD32F1x0_standard_peripheral/Source/gd32f1x0_dac.c ****     \brief      disable DAC0 trigger
 109:Drivers/GD32F1x0_standard_peripheral/Source/gd32f1x0_dac.c ****     \param[in]  none
 110:Drivers/GD32F1x0_standard_peripheral/Source/gd32f1x0_dac.c ****     \param[out] none
 111:Drivers/GD32F1x0_standard_peripheral/Source/gd32f1x0_dac.c ****     \retval     none
 112:Drivers/GD32F1x0_standard_peripheral/Source/gd32f1x0_dac.c **** */
 113:Drivers/GD32F1x0_standard_peripheral/Source/gd32f1x0_dac.c **** void dac0_trigger_disable(void)
 114:Drivers/GD32F1x0_standard_peripheral/Source/gd32f1x0_dac.c **** {
 276              		.loc 1 114 1 is_stmt 1 view -0
 277              		.cfi_startproc
 278              		@ args = 0, pretend = 0, frame = 0
 279              		@ frame_needed = 0, uses_anonymous_args = 0
 280              		@ link register save eliminated.
 115:Drivers/GD32F1x0_standard_peripheral/Source/gd32f1x0_dac.c ****     DAC_CTL &= ~DAC_CTL_DTEN0;
 281              		.loc 1 115 5 view .LVU36
 282              		.loc 1 115 13 is_stmt 0 view .LVU37
 283 0000 034A     		ldr	r2, .L24
 284 0002 D2F80034 		ldr	r3, [r2, #1024]
 285 0006 23F00403 		bic	r3, r3, #4
 286 000a C2F80034 		str	r3, [r2, #1024]
 116:Drivers/GD32F1x0_standard_peripheral/Source/gd32f1x0_dac.c **** }
 287              		.loc 1 116 1 view .LVU38
 288 000e 7047     		bx	lr
 289              	.L25:
 290              		.align	2
 291              	.L24:
 292 0010 00700040 		.word	1073770496
 293              		.cfi_endproc
 294              	.LFE64:
 296              		.section	.text.dac0_software_trigger_enable,"ax",%progbits
 297              		.align	1
 298              		.global	dac0_software_trigger_enable
 299              		.syntax unified
ARM GAS  /tmp/cc7gBZyD.s 			page 8


 300              		.thumb
 301              		.thumb_func
 302              		.fpu softvfp
 304              	dac0_software_trigger_enable:
 305              	.LFB65:
 117:Drivers/GD32F1x0_standard_peripheral/Source/gd32f1x0_dac.c **** 
 118:Drivers/GD32F1x0_standard_peripheral/Source/gd32f1x0_dac.c **** /*!
 119:Drivers/GD32F1x0_standard_peripheral/Source/gd32f1x0_dac.c ****     \brief      enable DAC0 software trigger
 120:Drivers/GD32F1x0_standard_peripheral/Source/gd32f1x0_dac.c ****     \param[in]  none
 121:Drivers/GD32F1x0_standard_peripheral/Source/gd32f1x0_dac.c ****     \param[out] none
 122:Drivers/GD32F1x0_standard_peripheral/Source/gd32f1x0_dac.c ****     \retval     none
 123:Drivers/GD32F1x0_standard_peripheral/Source/gd32f1x0_dac.c **** */
 124:Drivers/GD32F1x0_standard_peripheral/Source/gd32f1x0_dac.c **** void dac0_software_trigger_enable(void)
 125:Drivers/GD32F1x0_standard_peripheral/Source/gd32f1x0_dac.c **** {
 306              		.loc 1 125 1 is_stmt 1 view -0
 307              		.cfi_startproc
 308              		@ args = 0, pretend = 0, frame = 0
 309              		@ frame_needed = 0, uses_anonymous_args = 0
 310              		@ link register save eliminated.
 126:Drivers/GD32F1x0_standard_peripheral/Source/gd32f1x0_dac.c ****     DAC_SWT |= DAC_SWT_SWTR0;
 311              		.loc 1 126 5 view .LVU40
 312              		.loc 1 126 13 is_stmt 0 view .LVU41
 313 0000 034A     		ldr	r2, .L27
 314 0002 D2F80434 		ldr	r3, [r2, #1028]
 315 0006 43F00103 		orr	r3, r3, #1
 316 000a C2F80434 		str	r3, [r2, #1028]
 127:Drivers/GD32F1x0_standard_peripheral/Source/gd32f1x0_dac.c **** }
 317              		.loc 1 127 1 view .LVU42
 318 000e 7047     		bx	lr
 319              	.L28:
 320              		.align	2
 321              	.L27:
 322 0010 00700040 		.word	1073770496
 323              		.cfi_endproc
 324              	.LFE65:
 326              		.section	.text.dac0_software_trigger_disable,"ax",%progbits
 327              		.align	1
 328              		.global	dac0_software_trigger_disable
 329              		.syntax unified
 330              		.thumb
 331              		.thumb_func
 332              		.fpu softvfp
 334              	dac0_software_trigger_disable:
 335              	.LFB66:
 128:Drivers/GD32F1x0_standard_peripheral/Source/gd32f1x0_dac.c **** 
 129:Drivers/GD32F1x0_standard_peripheral/Source/gd32f1x0_dac.c **** /*!
 130:Drivers/GD32F1x0_standard_peripheral/Source/gd32f1x0_dac.c ****     \brief      disable DAC0 software trigger
 131:Drivers/GD32F1x0_standard_peripheral/Source/gd32f1x0_dac.c ****     \param[in]  none
 132:Drivers/GD32F1x0_standard_peripheral/Source/gd32f1x0_dac.c ****     \param[out] none
 133:Drivers/GD32F1x0_standard_peripheral/Source/gd32f1x0_dac.c ****     \retval     none
 134:Drivers/GD32F1x0_standard_peripheral/Source/gd32f1x0_dac.c **** */
 135:Drivers/GD32F1x0_standard_peripheral/Source/gd32f1x0_dac.c **** void dac0_software_trigger_disable(void)
 136:Drivers/GD32F1x0_standard_peripheral/Source/gd32f1x0_dac.c **** {
 336              		.loc 1 136 1 is_stmt 1 view -0
 337              		.cfi_startproc
 338              		@ args = 0, pretend = 0, frame = 0
 339              		@ frame_needed = 0, uses_anonymous_args = 0
ARM GAS  /tmp/cc7gBZyD.s 			page 9


 340              		@ link register save eliminated.
 137:Drivers/GD32F1x0_standard_peripheral/Source/gd32f1x0_dac.c ****     DAC_SWT &= ~DAC_SWT_SWTR0;
 341              		.loc 1 137 5 view .LVU44
 342              		.loc 1 137 13 is_stmt 0 view .LVU45
 343 0000 034A     		ldr	r2, .L30
 344 0002 D2F80434 		ldr	r3, [r2, #1028]
 345 0006 23F00103 		bic	r3, r3, #1
 346 000a C2F80434 		str	r3, [r2, #1028]
 138:Drivers/GD32F1x0_standard_peripheral/Source/gd32f1x0_dac.c **** }
 347              		.loc 1 138 1 view .LVU46
 348 000e 7047     		bx	lr
 349              	.L31:
 350              		.align	2
 351              	.L30:
 352 0010 00700040 		.word	1073770496
 353              		.cfi_endproc
 354              	.LFE66:
 356              		.section	.text.dac0_interrupt_enable,"ax",%progbits
 357              		.align	1
 358              		.global	dac0_interrupt_enable
 359              		.syntax unified
 360              		.thumb
 361              		.thumb_func
 362              		.fpu softvfp
 364              	dac0_interrupt_enable:
 365              	.LFB67:
 139:Drivers/GD32F1x0_standard_peripheral/Source/gd32f1x0_dac.c **** 
 140:Drivers/GD32F1x0_standard_peripheral/Source/gd32f1x0_dac.c **** /*!
 141:Drivers/GD32F1x0_standard_peripheral/Source/gd32f1x0_dac.c ****     \brief      enable DAC0 interrupt(DAC0 DMA underrun interrupt)
 142:Drivers/GD32F1x0_standard_peripheral/Source/gd32f1x0_dac.c ****     \param[in]  none
 143:Drivers/GD32F1x0_standard_peripheral/Source/gd32f1x0_dac.c ****     \param[out] none
 144:Drivers/GD32F1x0_standard_peripheral/Source/gd32f1x0_dac.c ****     \retval     none
 145:Drivers/GD32F1x0_standard_peripheral/Source/gd32f1x0_dac.c **** */
 146:Drivers/GD32F1x0_standard_peripheral/Source/gd32f1x0_dac.c **** void dac0_interrupt_enable(void)
 147:Drivers/GD32F1x0_standard_peripheral/Source/gd32f1x0_dac.c **** {
 366              		.loc 1 147 1 is_stmt 1 view -0
 367              		.cfi_startproc
 368              		@ args = 0, pretend = 0, frame = 0
 369              		@ frame_needed = 0, uses_anonymous_args = 0
 370              		@ link register save eliminated.
 148:Drivers/GD32F1x0_standard_peripheral/Source/gd32f1x0_dac.c ****     DAC_CTL |= DAC_CTL_DDUDRIE0;
 371              		.loc 1 148 5 view .LVU48
 372              		.loc 1 148 13 is_stmt 0 view .LVU49
 373 0000 034A     		ldr	r2, .L33
 374 0002 D2F80034 		ldr	r3, [r2, #1024]
 375 0006 43F40053 		orr	r3, r3, #8192
 376 000a C2F80034 		str	r3, [r2, #1024]
 149:Drivers/GD32F1x0_standard_peripheral/Source/gd32f1x0_dac.c **** }
 377              		.loc 1 149 1 view .LVU50
 378 000e 7047     		bx	lr
 379              	.L34:
 380              		.align	2
 381              	.L33:
 382 0010 00700040 		.word	1073770496
 383              		.cfi_endproc
 384              	.LFE67:
 386              		.section	.text.dac0_interrupt_disable,"ax",%progbits
ARM GAS  /tmp/cc7gBZyD.s 			page 10


 387              		.align	1
 388              		.global	dac0_interrupt_disable
 389              		.syntax unified
 390              		.thumb
 391              		.thumb_func
 392              		.fpu softvfp
 394              	dac0_interrupt_disable:
 395              	.LFB68:
 150:Drivers/GD32F1x0_standard_peripheral/Source/gd32f1x0_dac.c **** 
 151:Drivers/GD32F1x0_standard_peripheral/Source/gd32f1x0_dac.c **** /*!
 152:Drivers/GD32F1x0_standard_peripheral/Source/gd32f1x0_dac.c ****     \brief      disable DAC0 interrupt(DAC0 DMA underrun interrupt)
 153:Drivers/GD32F1x0_standard_peripheral/Source/gd32f1x0_dac.c ****     \param[in]  none
 154:Drivers/GD32F1x0_standard_peripheral/Source/gd32f1x0_dac.c ****     \param[out] none
 155:Drivers/GD32F1x0_standard_peripheral/Source/gd32f1x0_dac.c ****     \retval     none
 156:Drivers/GD32F1x0_standard_peripheral/Source/gd32f1x0_dac.c **** */
 157:Drivers/GD32F1x0_standard_peripheral/Source/gd32f1x0_dac.c **** void dac0_interrupt_disable(void)
 158:Drivers/GD32F1x0_standard_peripheral/Source/gd32f1x0_dac.c **** {
 396              		.loc 1 158 1 is_stmt 1 view -0
 397              		.cfi_startproc
 398              		@ args = 0, pretend = 0, frame = 0
 399              		@ frame_needed = 0, uses_anonymous_args = 0
 400              		@ link register save eliminated.
 159:Drivers/GD32F1x0_standard_peripheral/Source/gd32f1x0_dac.c ****     DAC_CTL &= ~DAC_CTL_DDUDRIE0;
 401              		.loc 1 159 5 view .LVU52
 402              		.loc 1 159 13 is_stmt 0 view .LVU53
 403 0000 034A     		ldr	r2, .L36
 404 0002 D2F80034 		ldr	r3, [r2, #1024]
 405 0006 23F40053 		bic	r3, r3, #8192
 406 000a C2F80034 		str	r3, [r2, #1024]
 160:Drivers/GD32F1x0_standard_peripheral/Source/gd32f1x0_dac.c **** }
 407              		.loc 1 160 1 view .LVU54
 408 000e 7047     		bx	lr
 409              	.L37:
 410              		.align	2
 411              	.L36:
 412 0010 00700040 		.word	1073770496
 413              		.cfi_endproc
 414              	.LFE68:
 416              		.section	.text.dac0_trigger_source_config,"ax",%progbits
 417              		.align	1
 418              		.global	dac0_trigger_source_config
 419              		.syntax unified
 420              		.thumb
 421              		.thumb_func
 422              		.fpu softvfp
 424              	dac0_trigger_source_config:
 425              	.LVL2:
 426              	.LFB69:
 161:Drivers/GD32F1x0_standard_peripheral/Source/gd32f1x0_dac.c **** 
 162:Drivers/GD32F1x0_standard_peripheral/Source/gd32f1x0_dac.c **** /*!
 163:Drivers/GD32F1x0_standard_peripheral/Source/gd32f1x0_dac.c ****     \brief      set DAC0 tgigger source
 164:Drivers/GD32F1x0_standard_peripheral/Source/gd32f1x0_dac.c ****     \param[in]  triggersource: external triggers of DAC
 165:Drivers/GD32F1x0_standard_peripheral/Source/gd32f1x0_dac.c ****       \arg        DAC_TRIGGER_T1_TRGO: trigger source is timer1 trgo
 166:Drivers/GD32F1x0_standard_peripheral/Source/gd32f1x0_dac.c ****       \arg        DAC_TRIGGER_T2_TRGO: trigger source is timer2 trgo
 167:Drivers/GD32F1x0_standard_peripheral/Source/gd32f1x0_dac.c ****       \arg        DAC_TRIGGER_T5_TRGO: trigger source is timer5 trgo
 168:Drivers/GD32F1x0_standard_peripheral/Source/gd32f1x0_dac.c ****       \arg        DAC_TRIGGER_T14_TRGO: trigger source is timer14 trgo
 169:Drivers/GD32F1x0_standard_peripheral/Source/gd32f1x0_dac.c ****       \arg        DAC_TRIGGER_EXTI_IT9: trigger source is exti interrupt line 9
ARM GAS  /tmp/cc7gBZyD.s 			page 11


 170:Drivers/GD32F1x0_standard_peripheral/Source/gd32f1x0_dac.c ****       \arg        DAC_TRIGGER_SOFTWARE: trigger source is software
 171:Drivers/GD32F1x0_standard_peripheral/Source/gd32f1x0_dac.c ****     \param[out] none
 172:Drivers/GD32F1x0_standard_peripheral/Source/gd32f1x0_dac.c ****     \retval     none
 173:Drivers/GD32F1x0_standard_peripheral/Source/gd32f1x0_dac.c **** */
 174:Drivers/GD32F1x0_standard_peripheral/Source/gd32f1x0_dac.c **** void dac0_trigger_source_config(uint32_t triggersource)
 175:Drivers/GD32F1x0_standard_peripheral/Source/gd32f1x0_dac.c **** {
 427              		.loc 1 175 1 is_stmt 1 view -0
 428              		.cfi_startproc
 429              		@ args = 0, pretend = 0, frame = 0
 430              		@ frame_needed = 0, uses_anonymous_args = 0
 431              		@ link register save eliminated.
 176:Drivers/GD32F1x0_standard_peripheral/Source/gd32f1x0_dac.c ****     DAC_CTL &= ~DAC_CTL_DTSEL0;
 432              		.loc 1 176 5 view .LVU56
 433              		.loc 1 176 13 is_stmt 0 view .LVU57
 434 0000 064B     		ldr	r3, .L39
 435 0002 D3F80014 		ldr	r1, [r3, #1024]
 436 0006 21F03801 		bic	r1, r1, #56
 437 000a C3F80014 		str	r1, [r3, #1024]
 177:Drivers/GD32F1x0_standard_peripheral/Source/gd32f1x0_dac.c ****     DAC_CTL |= triggersource;
 438              		.loc 1 177 5 is_stmt 1 view .LVU58
 439              		.loc 1 177 13 is_stmt 0 view .LVU59
 440 000e D3F80024 		ldr	r2, [r3, #1024]
 441 0012 0243     		orrs	r2, r2, r0
 442 0014 C3F80024 		str	r2, [r3, #1024]
 178:Drivers/GD32F1x0_standard_peripheral/Source/gd32f1x0_dac.c **** }
 443              		.loc 1 178 1 view .LVU60
 444 0018 7047     		bx	lr
 445              	.L40:
 446 001a 00BF     		.align	2
 447              	.L39:
 448 001c 00700040 		.word	1073770496
 449              		.cfi_endproc
 450              	.LFE69:
 452              		.section	.text.dac0_output_value_get,"ax",%progbits
 453              		.align	1
 454              		.global	dac0_output_value_get
 455              		.syntax unified
 456              		.thumb
 457              		.thumb_func
 458              		.fpu softvfp
 460              	dac0_output_value_get:
 461              	.LFB70:
 179:Drivers/GD32F1x0_standard_peripheral/Source/gd32f1x0_dac.c **** 
 180:Drivers/GD32F1x0_standard_peripheral/Source/gd32f1x0_dac.c **** /*!
 181:Drivers/GD32F1x0_standard_peripheral/Source/gd32f1x0_dac.c ****     \brief      get the last data output value of DAC0
 182:Drivers/GD32F1x0_standard_peripheral/Source/gd32f1x0_dac.c ****     \param[in]  none
 183:Drivers/GD32F1x0_standard_peripheral/Source/gd32f1x0_dac.c ****     \param[out] none
 184:Drivers/GD32F1x0_standard_peripheral/Source/gd32f1x0_dac.c ****     \retval     DAC output data
 185:Drivers/GD32F1x0_standard_peripheral/Source/gd32f1x0_dac.c **** */
 186:Drivers/GD32F1x0_standard_peripheral/Source/gd32f1x0_dac.c **** uint16_t dac0_output_value_get(void)
 187:Drivers/GD32F1x0_standard_peripheral/Source/gd32f1x0_dac.c **** {
 462              		.loc 1 187 1 is_stmt 1 view -0
 463              		.cfi_startproc
 464              		@ args = 0, pretend = 0, frame = 0
 465              		@ frame_needed = 0, uses_anonymous_args = 0
 466              		@ link register save eliminated.
 188:Drivers/GD32F1x0_standard_peripheral/Source/gd32f1x0_dac.c ****     uint16_t data = 0U;
ARM GAS  /tmp/cc7gBZyD.s 			page 12


 467              		.loc 1 188 5 view .LVU62
 468              	.LVL3:
 189:Drivers/GD32F1x0_standard_peripheral/Source/gd32f1x0_dac.c ****     data = (uint16_t)DAC0_DO;
 469              		.loc 1 189 5 view .LVU63
 470              		.loc 1 189 22 is_stmt 0 view .LVU64
 471 0000 024B     		ldr	r3, .L42
 472 0002 D3F82C04 		ldr	r0, [r3, #1068]
 473              	.LVL4:
 190:Drivers/GD32F1x0_standard_peripheral/Source/gd32f1x0_dac.c ****     return data;
 474              		.loc 1 190 5 is_stmt 1 view .LVU65
 191:Drivers/GD32F1x0_standard_peripheral/Source/gd32f1x0_dac.c **** }
 475              		.loc 1 191 1 is_stmt 0 view .LVU66
 476 0006 80B2     		uxth	r0, r0
 477              		.loc 1 191 1 view .LVU67
 478 0008 7047     		bx	lr
 479              	.L43:
 480 000a 00BF     		.align	2
 481              	.L42:
 482 000c 00700040 		.word	1073770496
 483              		.cfi_endproc
 484              	.LFE70:
 486              		.section	.text.dac0_flag_get,"ax",%progbits
 487              		.align	1
 488              		.global	dac0_flag_get
 489              		.syntax unified
 490              		.thumb
 491              		.thumb_func
 492              		.fpu softvfp
 494              	dac0_flag_get:
 495              	.LFB71:
 192:Drivers/GD32F1x0_standard_peripheral/Source/gd32f1x0_dac.c **** 
 193:Drivers/GD32F1x0_standard_peripheral/Source/gd32f1x0_dac.c **** /*!
 194:Drivers/GD32F1x0_standard_peripheral/Source/gd32f1x0_dac.c ****     \brief      get the specified DAC0 flag(DAC0 DMA underrun flag)
 195:Drivers/GD32F1x0_standard_peripheral/Source/gd32f1x0_dac.c ****     \param[in]  none
 196:Drivers/GD32F1x0_standard_peripheral/Source/gd32f1x0_dac.c ****     \param[out] none
 197:Drivers/GD32F1x0_standard_peripheral/Source/gd32f1x0_dac.c ****     \retval     the state of dac bit(SET or RESET)
 198:Drivers/GD32F1x0_standard_peripheral/Source/gd32f1x0_dac.c **** */
 199:Drivers/GD32F1x0_standard_peripheral/Source/gd32f1x0_dac.c **** FlagStatus dac0_flag_get(void)
 200:Drivers/GD32F1x0_standard_peripheral/Source/gd32f1x0_dac.c **** {
 496              		.loc 1 200 1 is_stmt 1 view -0
 497              		.cfi_startproc
 498              		@ args = 0, pretend = 0, frame = 0
 499              		@ frame_needed = 0, uses_anonymous_args = 0
 500              		@ link register save eliminated.
 201:Drivers/GD32F1x0_standard_peripheral/Source/gd32f1x0_dac.c ****     /* check the DMA underrun flag */
 202:Drivers/GD32F1x0_standard_peripheral/Source/gd32f1x0_dac.c ****     if((uint8_t)RESET != (DAC_STAT & DAC_STAT_DDUDR0)){
 501              		.loc 1 202 5 view .LVU69
 502              		.loc 1 202 27 is_stmt 0 view .LVU70
 503 0000 024B     		ldr	r3, .L45
 504 0002 D3F83404 		ldr	r0, [r3, #1076]
 203:Drivers/GD32F1x0_standard_peripheral/Source/gd32f1x0_dac.c ****         return SET;
 204:Drivers/GD32F1x0_standard_peripheral/Source/gd32f1x0_dac.c ****     }else{
 205:Drivers/GD32F1x0_standard_peripheral/Source/gd32f1x0_dac.c ****         return RESET;
 206:Drivers/GD32F1x0_standard_peripheral/Source/gd32f1x0_dac.c ****     }
 207:Drivers/GD32F1x0_standard_peripheral/Source/gd32f1x0_dac.c **** }
 505              		.loc 1 207 1 view .LVU71
 506 0006 C0F34030 		ubfx	r0, r0, #13, #1
ARM GAS  /tmp/cc7gBZyD.s 			page 13


 507 000a 7047     		bx	lr
 508              	.L46:
 509              		.align	2
 510              	.L45:
 511 000c 00700040 		.word	1073770496
 512              		.cfi_endproc
 513              	.LFE71:
 515              		.section	.text.dac0_flag_clear,"ax",%progbits
 516              		.align	1
 517              		.global	dac0_flag_clear
 518              		.syntax unified
 519              		.thumb
 520              		.thumb_func
 521              		.fpu softvfp
 523              	dac0_flag_clear:
 524              	.LFB72:
 208:Drivers/GD32F1x0_standard_peripheral/Source/gd32f1x0_dac.c **** 
 209:Drivers/GD32F1x0_standard_peripheral/Source/gd32f1x0_dac.c **** /*!
 210:Drivers/GD32F1x0_standard_peripheral/Source/gd32f1x0_dac.c ****     \brief      clear the specified DAC0 flag(DAC0 DMA underrun flag)
 211:Drivers/GD32F1x0_standard_peripheral/Source/gd32f1x0_dac.c ****     \param[in]  none
 212:Drivers/GD32F1x0_standard_peripheral/Source/gd32f1x0_dac.c ****     \param[out] none
 213:Drivers/GD32F1x0_standard_peripheral/Source/gd32f1x0_dac.c ****     \retval     none
 214:Drivers/GD32F1x0_standard_peripheral/Source/gd32f1x0_dac.c **** */
 215:Drivers/GD32F1x0_standard_peripheral/Source/gd32f1x0_dac.c **** void dac0_flag_clear(void)
 216:Drivers/GD32F1x0_standard_peripheral/Source/gd32f1x0_dac.c **** {
 525              		.loc 1 216 1 is_stmt 1 view -0
 526              		.cfi_startproc
 527              		@ args = 0, pretend = 0, frame = 0
 528              		@ frame_needed = 0, uses_anonymous_args = 0
 529              		@ link register save eliminated.
 217:Drivers/GD32F1x0_standard_peripheral/Source/gd32f1x0_dac.c ****     DAC_STAT &= ~DAC_STAT_DDUDR0;
 530              		.loc 1 217 5 view .LVU73
 531              		.loc 1 217 14 is_stmt 0 view .LVU74
 532 0000 034A     		ldr	r2, .L48
 533 0002 D2F83434 		ldr	r3, [r2, #1076]
 534 0006 23F40053 		bic	r3, r3, #8192
 535 000a C2F83434 		str	r3, [r2, #1076]
 218:Drivers/GD32F1x0_standard_peripheral/Source/gd32f1x0_dac.c **** }
 536              		.loc 1 218 1 view .LVU75
 537 000e 7047     		bx	lr
 538              	.L49:
 539              		.align	2
 540              	.L48:
 541 0010 00700040 		.word	1073770496
 542              		.cfi_endproc
 543              	.LFE72:
 545              		.section	.text.dac0_interrupt_flag_get,"ax",%progbits
 546              		.align	1
 547              		.global	dac0_interrupt_flag_get
 548              		.syntax unified
 549              		.thumb
 550              		.thumb_func
 551              		.fpu softvfp
 553              	dac0_interrupt_flag_get:
 554              	.LFB73:
 219:Drivers/GD32F1x0_standard_peripheral/Source/gd32f1x0_dac.c **** 
 220:Drivers/GD32F1x0_standard_peripheral/Source/gd32f1x0_dac.c **** /*!
ARM GAS  /tmp/cc7gBZyD.s 			page 14


 221:Drivers/GD32F1x0_standard_peripheral/Source/gd32f1x0_dac.c ****     \brief      get the specified DAC0 interrupt flag(DAC0 DMA underrun interrupt flag)
 222:Drivers/GD32F1x0_standard_peripheral/Source/gd32f1x0_dac.c ****     \param[in]  none
 223:Drivers/GD32F1x0_standard_peripheral/Source/gd32f1x0_dac.c ****     \param[out] none
 224:Drivers/GD32F1x0_standard_peripheral/Source/gd32f1x0_dac.c ****     \retval     the state of DAC interrupt flag(SET or RESET)
 225:Drivers/GD32F1x0_standard_peripheral/Source/gd32f1x0_dac.c **** */
 226:Drivers/GD32F1x0_standard_peripheral/Source/gd32f1x0_dac.c **** FlagStatus dac0_interrupt_flag_get(void)
 227:Drivers/GD32F1x0_standard_peripheral/Source/gd32f1x0_dac.c **** {
 555              		.loc 1 227 1 is_stmt 1 view -0
 556              		.cfi_startproc
 557              		@ args = 0, pretend = 0, frame = 0
 558              		@ frame_needed = 0, uses_anonymous_args = 0
 559              		@ link register save eliminated.
 228:Drivers/GD32F1x0_standard_peripheral/Source/gd32f1x0_dac.c ****     uint32_t ddudr_flag = 0U, ddudrie_flag = 0U;
 560              		.loc 1 228 5 view .LVU77
 561              	.LVL5:
 229:Drivers/GD32F1x0_standard_peripheral/Source/gd32f1x0_dac.c ****     ddudr_flag = (DAC_STAT & DAC_STAT_DDUDR0);
 562              		.loc 1 229 5 view .LVU78
 563              		.loc 1 229 19 is_stmt 0 view .LVU79
 564 0000 054B     		ldr	r3, .L53
 565 0002 D3F83404 		ldr	r0, [r3, #1076]
 566              	.LVL6:
 230:Drivers/GD32F1x0_standard_peripheral/Source/gd32f1x0_dac.c ****     ddudrie_flag = DAC_CTL & DAC_CTL_DDUDRIE0;
 567              		.loc 1 230 5 is_stmt 1 view .LVU80
 568              		.loc 1 230 20 is_stmt 0 view .LVU81
 569 0006 D3F80034 		ldr	r3, [r3, #1024]
 570              	.LVL7:
 231:Drivers/GD32F1x0_standard_peripheral/Source/gd32f1x0_dac.c ****     /* check the DMA underrun flag and DAC DMA underrun interrupt enable flag */
 232:Drivers/GD32F1x0_standard_peripheral/Source/gd32f1x0_dac.c ****     if((RESET != ddudr_flag) && (RESET != ddudrie_flag)){
 571              		.loc 1 232 5 is_stmt 1 view .LVU82
 572              		.loc 1 232 7 is_stmt 0 view .LVU83
 573 000a 10F40050 		ands	r0, r0, #8192
 574              	.LVL8:
 233:Drivers/GD32F1x0_standard_peripheral/Source/gd32f1x0_dac.c ****          return SET;
 234:Drivers/GD32F1x0_standard_peripheral/Source/gd32f1x0_dac.c ****     }else{
 235:Drivers/GD32F1x0_standard_peripheral/Source/gd32f1x0_dac.c ****         return RESET;
 575              		.loc 1 235 16 view .LVU84
 576 000e 18BF     		it	ne
 577 0010 C3F34030 		ubfxne	r0, r3, #13, #1
 578              	.LVL9:
 236:Drivers/GD32F1x0_standard_peripheral/Source/gd32f1x0_dac.c ****     }
 237:Drivers/GD32F1x0_standard_peripheral/Source/gd32f1x0_dac.c **** }
 579              		.loc 1 237 1 view .LVU85
 580 0014 7047     		bx	lr
 581              	.L54:
 582 0016 00BF     		.align	2
 583              	.L53:
 584 0018 00700040 		.word	1073770496
 585              		.cfi_endproc
 586              	.LFE73:
 588              		.section	.text.dac0_interrupt_flag_clear,"ax",%progbits
 589              		.align	1
 590              		.global	dac0_interrupt_flag_clear
 591              		.syntax unified
 592              		.thumb
 593              		.thumb_func
 594              		.fpu softvfp
 596              	dac0_interrupt_flag_clear:
ARM GAS  /tmp/cc7gBZyD.s 			page 15


 597              	.LFB77:
 598              		.cfi_startproc
 599              		@ args = 0, pretend = 0, frame = 0
 600              		@ frame_needed = 0, uses_anonymous_args = 0
 601              		@ link register save eliminated.
 602 0000 FFF7FEBF 		b	dac0_interrupt_disable
 603              		.cfi_endproc
 604              	.LFE77:
 606              		.section	.text.dac0_data_set,"ax",%progbits
 607              		.align	1
 608              		.global	dac0_data_set
 609              		.syntax unified
 610              		.thumb
 611              		.thumb_func
 612              		.fpu softvfp
 614              	dac0_data_set:
 615              	.LVL10:
 616              	.LFB75:
 238:Drivers/GD32F1x0_standard_peripheral/Source/gd32f1x0_dac.c **** 
 239:Drivers/GD32F1x0_standard_peripheral/Source/gd32f1x0_dac.c **** /*!
 240:Drivers/GD32F1x0_standard_peripheral/Source/gd32f1x0_dac.c ****     \brief      clear the specified DAC0 interrupt flag(DAC0 DMA underrun interrupt flag)
 241:Drivers/GD32F1x0_standard_peripheral/Source/gd32f1x0_dac.c ****     \param[in]  none
 242:Drivers/GD32F1x0_standard_peripheral/Source/gd32f1x0_dac.c ****     \param[out] none
 243:Drivers/GD32F1x0_standard_peripheral/Source/gd32f1x0_dac.c ****     \retval     none
 244:Drivers/GD32F1x0_standard_peripheral/Source/gd32f1x0_dac.c **** */
 245:Drivers/GD32F1x0_standard_peripheral/Source/gd32f1x0_dac.c **** void dac0_interrupt_flag_clear(void)
 246:Drivers/GD32F1x0_standard_peripheral/Source/gd32f1x0_dac.c **** {
 247:Drivers/GD32F1x0_standard_peripheral/Source/gd32f1x0_dac.c ****     DAC_CTL &= ~DAC_CTL_DDUDRIE0;
 248:Drivers/GD32F1x0_standard_peripheral/Source/gd32f1x0_dac.c **** }
 249:Drivers/GD32F1x0_standard_peripheral/Source/gd32f1x0_dac.c **** 
 250:Drivers/GD32F1x0_standard_peripheral/Source/gd32f1x0_dac.c **** /*!
 251:Drivers/GD32F1x0_standard_peripheral/Source/gd32f1x0_dac.c ****     \brief      set DAC0 data holding register value
 252:Drivers/GD32F1x0_standard_peripheral/Source/gd32f1x0_dac.c ****     \param[in]  dac_align
 253:Drivers/GD32F1x0_standard_peripheral/Source/gd32f1x0_dac.c ****       \arg        DAC_ALIGN_8B_R: data right 8b alignment
 254:Drivers/GD32F1x0_standard_peripheral/Source/gd32f1x0_dac.c ****       \arg        DAC_ALIGN_12B_R: data right 12b alignment
 255:Drivers/GD32F1x0_standard_peripheral/Source/gd32f1x0_dac.c ****       \arg        DAC_ALIGN_12B_L: data left 12b alignment
 256:Drivers/GD32F1x0_standard_peripheral/Source/gd32f1x0_dac.c ****     \param[in]  data: data to be loaded
 257:Drivers/GD32F1x0_standard_peripheral/Source/gd32f1x0_dac.c ****     \param[out] none
 258:Drivers/GD32F1x0_standard_peripheral/Source/gd32f1x0_dac.c ****     \retval     none
 259:Drivers/GD32F1x0_standard_peripheral/Source/gd32f1x0_dac.c **** */
 260:Drivers/GD32F1x0_standard_peripheral/Source/gd32f1x0_dac.c **** void dac0_data_set(uint32_t dac_align, uint16_t data)
 261:Drivers/GD32F1x0_standard_peripheral/Source/gd32f1x0_dac.c **** {
 617              		.loc 1 261 1 is_stmt 1 view -0
 618              		.cfi_startproc
 619              		@ args = 0, pretend = 0, frame = 0
 620              		@ frame_needed = 0, uses_anonymous_args = 0
 621              		@ link register save eliminated.
 262:Drivers/GD32F1x0_standard_peripheral/Source/gd32f1x0_dac.c ****     switch(dac_align){
 622              		.loc 1 262 5 view .LVU87
 623 0000 0128     		cmp	r0, #1
 624 0002 06D0     		beq	.L57
 625 0004 0228     		cmp	r0, #2
 626 0006 08D0     		beq	.L58
 627 0008 50B9     		cbnz	r0, .L56
 263:Drivers/GD32F1x0_standard_peripheral/Source/gd32f1x0_dac.c ****         /* data right 12b alignment */
 264:Drivers/GD32F1x0_standard_peripheral/Source/gd32f1x0_dac.c ****         case DAC_ALIGN_12B_R:
 265:Drivers/GD32F1x0_standard_peripheral/Source/gd32f1x0_dac.c ****             DAC0_R12DH = data;
ARM GAS  /tmp/cc7gBZyD.s 			page 16


 628              		.loc 1 265 13 view .LVU88
 629              		.loc 1 265 24 is_stmt 0 view .LVU89
 630 000a 064B     		ldr	r3, .L60
 631 000c C3F80814 		str	r1, [r3, #1032]
 266:Drivers/GD32F1x0_standard_peripheral/Source/gd32f1x0_dac.c ****             break;
 632              		.loc 1 266 13 is_stmt 1 view .LVU90
 633 0010 7047     		bx	lr
 634              	.L57:
 267:Drivers/GD32F1x0_standard_peripheral/Source/gd32f1x0_dac.c ****         /* data left 12b alignment */
 268:Drivers/GD32F1x0_standard_peripheral/Source/gd32f1x0_dac.c ****         case DAC_ALIGN_12B_L:
 269:Drivers/GD32F1x0_standard_peripheral/Source/gd32f1x0_dac.c ****             DAC0_L12DH = data;
 635              		.loc 1 269 13 view .LVU91
 636              		.loc 1 269 24 is_stmt 0 view .LVU92
 637 0012 044B     		ldr	r3, .L60
 638 0014 C3F80C14 		str	r1, [r3, #1036]
 270:Drivers/GD32F1x0_standard_peripheral/Source/gd32f1x0_dac.c ****             break;
 639              		.loc 1 270 13 is_stmt 1 view .LVU93
 640 0018 7047     		bx	lr
 641              	.L58:
 271:Drivers/GD32F1x0_standard_peripheral/Source/gd32f1x0_dac.c ****         /* data right 8b alignment */
 272:Drivers/GD32F1x0_standard_peripheral/Source/gd32f1x0_dac.c ****         case DAC_ALIGN_8B_R:
 273:Drivers/GD32F1x0_standard_peripheral/Source/gd32f1x0_dac.c ****             DAC0_R8DH = data;
 642              		.loc 1 273 13 view .LVU94
 643              		.loc 1 273 23 is_stmt 0 view .LVU95
 644 001a 024B     		ldr	r3, .L60
 645 001c C3F81014 		str	r1, [r3, #1040]
 274:Drivers/GD32F1x0_standard_peripheral/Source/gd32f1x0_dac.c ****             break;
 646              		.loc 1 274 13 is_stmt 1 view .LVU96
 647              	.L56:
 275:Drivers/GD32F1x0_standard_peripheral/Source/gd32f1x0_dac.c ****         default:
 276:Drivers/GD32F1x0_standard_peripheral/Source/gd32f1x0_dac.c ****             break;
 277:Drivers/GD32F1x0_standard_peripheral/Source/gd32f1x0_dac.c ****     }
 278:Drivers/GD32F1x0_standard_peripheral/Source/gd32f1x0_dac.c **** }
 648              		.loc 1 278 1 is_stmt 0 view .LVU97
 649 0020 7047     		bx	lr
 650              	.L61:
 651 0022 00BF     		.align	2
 652              	.L60:
 653 0024 00700040 		.word	1073770496
 654              		.cfi_endproc
 655              	.LFE75:
 657              		.text
 658              	.Letext0:
 659              		.file 2 "/usr/lib/gcc/arm-none-eabi/10.3.1/include/stdint.h"
 660              		.file 3 "Drivers/CMSIS/Include/gd32f1x0.h"
 661              		.file 4 "Drivers/GD32F1x0_standard_peripheral/Include/gd32f1x0_rcu.h"
ARM GAS  /tmp/cc7gBZyD.s 			page 17

