ARM GAS  /tmp/cct81q7X.s 			page 1


   1              		.cpu cortex-m3
   2              		.eabi_attribute 20, 1
   3              		.eabi_attribute 21, 1
   4              		.eabi_attribute 23, 3
   5              		.eabi_attribute 24, 1
   6              		.eabi_attribute 25, 1
   7              		.eabi_attribute 26, 1
   8              		.eabi_attribute 30, 4
   9              		.eabi_attribute 34, 1
  10              		.eabi_attribute 18, 4
  11              		.file	"gd32f1x0_syscfg.c"
  12              		.text
  13              	.Ltext0:
  14              		.cfi_sections	.debug_frame
  15              		.section	.text.syscfg_deinit,"ax",%progbits
  16              		.align	1
  17              		.global	syscfg_deinit
  18              		.arch armv7-m
  19              		.syntax unified
  20              		.thumb
  21              		.thumb_func
  22              		.fpu softvfp
  24              	syscfg_deinit:
  25              	.LFB56:
  26              		.file 1 "Drivers/GD32F1x0_standard_peripheral/Source/gd32f1x0_syscfg.c"
   1:Drivers/GD32F1x0_standard_peripheral/Source/gd32f1x0_syscfg.c **** /*!
   2:Drivers/GD32F1x0_standard_peripheral/Source/gd32f1x0_syscfg.c ****     \file  gd32f1x0_syscfg.c
   3:Drivers/GD32F1x0_standard_peripheral/Source/gd32f1x0_syscfg.c ****     \brief SYSCFG driver
   4:Drivers/GD32F1x0_standard_peripheral/Source/gd32f1x0_syscfg.c **** */
   5:Drivers/GD32F1x0_standard_peripheral/Source/gd32f1x0_syscfg.c **** 
   6:Drivers/GD32F1x0_standard_peripheral/Source/gd32f1x0_syscfg.c **** /*
   7:Drivers/GD32F1x0_standard_peripheral/Source/gd32f1x0_syscfg.c ****     Copyright (C) 2017 GigaDevice
   8:Drivers/GD32F1x0_standard_peripheral/Source/gd32f1x0_syscfg.c **** 
   9:Drivers/GD32F1x0_standard_peripheral/Source/gd32f1x0_syscfg.c ****     2014-12-26, V1.0.0, platform GD32F1x0(x=3,5)
  10:Drivers/GD32F1x0_standard_peripheral/Source/gd32f1x0_syscfg.c ****     2016-01-15, V2.0.0, platform GD32F1x0(x=3,5,7,9)
  11:Drivers/GD32F1x0_standard_peripheral/Source/gd32f1x0_syscfg.c ****     2016-04-30, V3.0.0, firmware update for GD32F1x0(x=3,5,7,9)
  12:Drivers/GD32F1x0_standard_peripheral/Source/gd32f1x0_syscfg.c ****     2017-06-19, V3.1.0, firmware update for GD32F1x0(x=3,5,7,9)
  13:Drivers/GD32F1x0_standard_peripheral/Source/gd32f1x0_syscfg.c **** */
  14:Drivers/GD32F1x0_standard_peripheral/Source/gd32f1x0_syscfg.c **** 
  15:Drivers/GD32F1x0_standard_peripheral/Source/gd32f1x0_syscfg.c **** #include "gd32f1x0_syscfg.h"
  16:Drivers/GD32F1x0_standard_peripheral/Source/gd32f1x0_syscfg.c **** 
  17:Drivers/GD32F1x0_standard_peripheral/Source/gd32f1x0_syscfg.c **** /*!
  18:Drivers/GD32F1x0_standard_peripheral/Source/gd32f1x0_syscfg.c ****     \brief      reset the SYSCFG registers
  19:Drivers/GD32F1x0_standard_peripheral/Source/gd32f1x0_syscfg.c ****     \param[in]  none
  20:Drivers/GD32F1x0_standard_peripheral/Source/gd32f1x0_syscfg.c ****     \param[out] none
  21:Drivers/GD32F1x0_standard_peripheral/Source/gd32f1x0_syscfg.c ****     \retval     none
  22:Drivers/GD32F1x0_standard_peripheral/Source/gd32f1x0_syscfg.c **** */
  23:Drivers/GD32F1x0_standard_peripheral/Source/gd32f1x0_syscfg.c **** void syscfg_deinit(void)
  24:Drivers/GD32F1x0_standard_peripheral/Source/gd32f1x0_syscfg.c **** {
  27              		.loc 1 24 1 view -0
  28              		.cfi_startproc
  29              		@ args = 0, pretend = 0, frame = 0
  30              		@ frame_needed = 0, uses_anonymous_args = 0
  25:Drivers/GD32F1x0_standard_peripheral/Source/gd32f1x0_syscfg.c ****     rcu_periph_reset_enable(RCU_CFGCMPRST);
  31              		.loc 1 25 5 view .LVU1
  24:Drivers/GD32F1x0_standard_peripheral/Source/gd32f1x0_syscfg.c ****     rcu_periph_reset_enable(RCU_CFGCMPRST);
  32              		.loc 1 24 1 is_stmt 0 view .LVU2
ARM GAS  /tmp/cct81q7X.s 			page 2


  33 0000 08B5     		push	{r3, lr}
  34              	.LCFI0:
  35              		.cfi_def_cfa_offset 8
  36              		.cfi_offset 3, -8
  37              		.cfi_offset 14, -4
  38              		.loc 1 25 5 view .LVU3
  39 0002 4FF44070 		mov	r0, #768
  40 0006 FFF7FEFF 		bl	rcu_periph_reset_enable
  41              	.LVL0:
  26:Drivers/GD32F1x0_standard_peripheral/Source/gd32f1x0_syscfg.c ****     rcu_periph_reset_disable(RCU_CFGCMPRST);
  42              		.loc 1 26 5 is_stmt 1 view .LVU4
  27:Drivers/GD32F1x0_standard_peripheral/Source/gd32f1x0_syscfg.c **** }
  43              		.loc 1 27 1 is_stmt 0 view .LVU5
  44 000a BDE80840 		pop	{r3, lr}
  45              	.LCFI1:
  46              		.cfi_restore 14
  47              		.cfi_restore 3
  48              		.cfi_def_cfa_offset 0
  26:Drivers/GD32F1x0_standard_peripheral/Source/gd32f1x0_syscfg.c ****     rcu_periph_reset_disable(RCU_CFGCMPRST);
  49              		.loc 1 26 5 view .LVU6
  50 000e 4FF44070 		mov	r0, #768
  51 0012 FFF7FEBF 		b	rcu_periph_reset_disable
  52              	.LVL1:
  53              		.cfi_endproc
  54              	.LFE56:
  56              		.section	.text.syscfg_dma_remap_enable,"ax",%progbits
  57              		.align	1
  58              		.global	syscfg_dma_remap_enable
  59              		.syntax unified
  60              		.thumb
  61              		.thumb_func
  62              		.fpu softvfp
  64              	syscfg_dma_remap_enable:
  65              	.LVL2:
  66              	.LFB57:
  28:Drivers/GD32F1x0_standard_peripheral/Source/gd32f1x0_syscfg.c **** 
  29:Drivers/GD32F1x0_standard_peripheral/Source/gd32f1x0_syscfg.c **** /*!
  30:Drivers/GD32F1x0_standard_peripheral/Source/gd32f1x0_syscfg.c ****     \brief      enable the DMA channels remapping
  31:Drivers/GD32F1x0_standard_peripheral/Source/gd32f1x0_syscfg.c ****     \param[in]  syscfg_dma_remap: specify the DMA channels to remap
  32:Drivers/GD32F1x0_standard_peripheral/Source/gd32f1x0_syscfg.c ****       \arg        SYSCFG_DMA_REMAP_TIMER16: remap TIMER16 channel0 and UP DMA requests to channel1(
  33:Drivers/GD32F1x0_standard_peripheral/Source/gd32f1x0_syscfg.c ****       \arg        SYSCFG_DMA_REMAP_TIMER15: remap TIMER15 channel2 and UP DMA requests to channel3(
  34:Drivers/GD32F1x0_standard_peripheral/Source/gd32f1x0_syscfg.c ****       \arg        SYSCFG_DMA_REMAP_USART0RX: remap USART0 Rx DMA request to channel4(default channe
  35:Drivers/GD32F1x0_standard_peripheral/Source/gd32f1x0_syscfg.c ****       \arg        SYSCFG_DMA_REMAP_USART0TX: remap USART0 Tx DMA request to channel3(default channe
  36:Drivers/GD32F1x0_standard_peripheral/Source/gd32f1x0_syscfg.c ****       \arg        SYSCFG_DMA_REMAP_ADC: remap ADC DMA requests from channel0 to channel1
  37:Drivers/GD32F1x0_standard_peripheral/Source/gd32f1x0_syscfg.c ****     \param[out] none
  38:Drivers/GD32F1x0_standard_peripheral/Source/gd32f1x0_syscfg.c ****     \retval     none
  39:Drivers/GD32F1x0_standard_peripheral/Source/gd32f1x0_syscfg.c **** */
  40:Drivers/GD32F1x0_standard_peripheral/Source/gd32f1x0_syscfg.c **** void syscfg_dma_remap_enable(uint32_t syscfg_dma_remap)
  41:Drivers/GD32F1x0_standard_peripheral/Source/gd32f1x0_syscfg.c **** {
  67              		.loc 1 41 1 is_stmt 1 view -0
  68              		.cfi_startproc
  69              		@ args = 0, pretend = 0, frame = 0
  70              		@ frame_needed = 0, uses_anonymous_args = 0
  71              		@ link register save eliminated.
  42:Drivers/GD32F1x0_standard_peripheral/Source/gd32f1x0_syscfg.c ****     SYSCFG_CFG0 |= syscfg_dma_remap;
  72              		.loc 1 42 5 view .LVU8
  73              		.loc 1 42 17 is_stmt 0 view .LVU9
ARM GAS  /tmp/cct81q7X.s 			page 3


  74 0000 024A     		ldr	r2, .L3
  75 0002 1368     		ldr	r3, [r2]
  76 0004 0343     		orrs	r3, r3, r0
  77 0006 1360     		str	r3, [r2]
  43:Drivers/GD32F1x0_standard_peripheral/Source/gd32f1x0_syscfg.c **** }
  78              		.loc 1 43 1 view .LVU10
  79 0008 7047     		bx	lr
  80              	.L4:
  81 000a 00BF     		.align	2
  82              	.L3:
  83 000c 00000140 		.word	1073807360
  84              		.cfi_endproc
  85              	.LFE57:
  87              		.section	.text.syscfg_dma_remap_disable,"ax",%progbits
  88              		.align	1
  89              		.global	syscfg_dma_remap_disable
  90              		.syntax unified
  91              		.thumb
  92              		.thumb_func
  93              		.fpu softvfp
  95              	syscfg_dma_remap_disable:
  96              	.LVL3:
  97              	.LFB58:
  44:Drivers/GD32F1x0_standard_peripheral/Source/gd32f1x0_syscfg.c **** 
  45:Drivers/GD32F1x0_standard_peripheral/Source/gd32f1x0_syscfg.c **** /*!
  46:Drivers/GD32F1x0_standard_peripheral/Source/gd32f1x0_syscfg.c ****     \brief      disable the DMA channels remapping
  47:Drivers/GD32F1x0_standard_peripheral/Source/gd32f1x0_syscfg.c ****     \param[in]  syscfg_dma_remap: specify the DMA channels to remap
  48:Drivers/GD32F1x0_standard_peripheral/Source/gd32f1x0_syscfg.c ****       \arg        SYSCFG_DMA_REMAP_TIMER16: remap TIMER16 channel0 and UP DMA requests to channel1(
  49:Drivers/GD32F1x0_standard_peripheral/Source/gd32f1x0_syscfg.c ****       \arg        SYSCFG_DMA_REMAP_TIMER15: remap TIMER15 channel2 and UP DMA requests to channel3(
  50:Drivers/GD32F1x0_standard_peripheral/Source/gd32f1x0_syscfg.c ****       \arg        SYSCFG_DMA_REMAP_USART0RX: remap USART0 Rx DMA request to channel4(default channe
  51:Drivers/GD32F1x0_standard_peripheral/Source/gd32f1x0_syscfg.c ****       \arg        SYSCFG_DMA_REMAP_USART0TX: remap USART0 Tx DMA request to channel3(default channe
  52:Drivers/GD32F1x0_standard_peripheral/Source/gd32f1x0_syscfg.c ****       \arg        SYSCFG_DMA_REMAP_ADC: remap ADC DMA requests from channel0 to channel1
  53:Drivers/GD32F1x0_standard_peripheral/Source/gd32f1x0_syscfg.c ****     \param[out] none
  54:Drivers/GD32F1x0_standard_peripheral/Source/gd32f1x0_syscfg.c ****     \retval     none
  55:Drivers/GD32F1x0_standard_peripheral/Source/gd32f1x0_syscfg.c **** */
  56:Drivers/GD32F1x0_standard_peripheral/Source/gd32f1x0_syscfg.c **** void syscfg_dma_remap_disable(uint32_t syscfg_dma_remap)
  57:Drivers/GD32F1x0_standard_peripheral/Source/gd32f1x0_syscfg.c **** {
  98              		.loc 1 57 1 is_stmt 1 view -0
  99              		.cfi_startproc
 100              		@ args = 0, pretend = 0, frame = 0
 101              		@ frame_needed = 0, uses_anonymous_args = 0
 102              		@ link register save eliminated.
  58:Drivers/GD32F1x0_standard_peripheral/Source/gd32f1x0_syscfg.c ****     SYSCFG_CFG0 &= ~syscfg_dma_remap;
 103              		.loc 1 58 5 view .LVU12
 104              		.loc 1 58 17 is_stmt 0 view .LVU13
 105 0000 024A     		ldr	r2, .L6
 106 0002 1368     		ldr	r3, [r2]
 107 0004 23EA0003 		bic	r3, r3, r0
 108 0008 1360     		str	r3, [r2]
  59:Drivers/GD32F1x0_standard_peripheral/Source/gd32f1x0_syscfg.c **** }
 109              		.loc 1 59 1 view .LVU14
 110 000a 7047     		bx	lr
 111              	.L7:
 112              		.align	2
 113              	.L6:
 114 000c 00000140 		.word	1073807360
 115              		.cfi_endproc
ARM GAS  /tmp/cct81q7X.s 			page 4


 116              	.LFE58:
 118              		.section	.text.syscfg_high_current_enable,"ax",%progbits
 119              		.align	1
 120              		.global	syscfg_high_current_enable
 121              		.syntax unified
 122              		.thumb
 123              		.thumb_func
 124              		.fpu softvfp
 126              	syscfg_high_current_enable:
 127              	.LFB59:
  60:Drivers/GD32F1x0_standard_peripheral/Source/gd32f1x0_syscfg.c **** 
  61:Drivers/GD32F1x0_standard_peripheral/Source/gd32f1x0_syscfg.c **** /*!
  62:Drivers/GD32F1x0_standard_peripheral/Source/gd32f1x0_syscfg.c ****     \brief      enable PB9 high current capability
  63:Drivers/GD32F1x0_standard_peripheral/Source/gd32f1x0_syscfg.c ****     \param[in]  none
  64:Drivers/GD32F1x0_standard_peripheral/Source/gd32f1x0_syscfg.c ****     \param[out] none
  65:Drivers/GD32F1x0_standard_peripheral/Source/gd32f1x0_syscfg.c ****     \retval     none
  66:Drivers/GD32F1x0_standard_peripheral/Source/gd32f1x0_syscfg.c **** */
  67:Drivers/GD32F1x0_standard_peripheral/Source/gd32f1x0_syscfg.c **** void syscfg_high_current_enable(void)
  68:Drivers/GD32F1x0_standard_peripheral/Source/gd32f1x0_syscfg.c **** {
 128              		.loc 1 68 1 is_stmt 1 view -0
 129              		.cfi_startproc
 130              		@ args = 0, pretend = 0, frame = 0
 131              		@ frame_needed = 0, uses_anonymous_args = 0
 132              		@ link register save eliminated.
  69:Drivers/GD32F1x0_standard_peripheral/Source/gd32f1x0_syscfg.c ****     SYSCFG_CFG0 |= SYSCFG_HIGH_CURRENT_ENABLE;
 133              		.loc 1 69 5 view .LVU16
 134              		.loc 1 69 17 is_stmt 0 view .LVU17
 135 0000 024A     		ldr	r2, .L9
 136 0002 1368     		ldr	r3, [r2]
 137 0004 43F40023 		orr	r3, r3, #524288
 138 0008 1360     		str	r3, [r2]
  70:Drivers/GD32F1x0_standard_peripheral/Source/gd32f1x0_syscfg.c **** }
 139              		.loc 1 70 1 view .LVU18
 140 000a 7047     		bx	lr
 141              	.L10:
 142              		.align	2
 143              	.L9:
 144 000c 00000140 		.word	1073807360
 145              		.cfi_endproc
 146              	.LFE59:
 148              		.section	.text.syscfg_high_current_disable,"ax",%progbits
 149              		.align	1
 150              		.global	syscfg_high_current_disable
 151              		.syntax unified
 152              		.thumb
 153              		.thumb_func
 154              		.fpu softvfp
 156              	syscfg_high_current_disable:
 157              	.LFB60:
  71:Drivers/GD32F1x0_standard_peripheral/Source/gd32f1x0_syscfg.c **** 
  72:Drivers/GD32F1x0_standard_peripheral/Source/gd32f1x0_syscfg.c **** /*!
  73:Drivers/GD32F1x0_standard_peripheral/Source/gd32f1x0_syscfg.c ****     \brief      disable PB9 high current capability
  74:Drivers/GD32F1x0_standard_peripheral/Source/gd32f1x0_syscfg.c ****     \param[in]  none
  75:Drivers/GD32F1x0_standard_peripheral/Source/gd32f1x0_syscfg.c ****     \param[out] none
  76:Drivers/GD32F1x0_standard_peripheral/Source/gd32f1x0_syscfg.c ****     \retval     none
  77:Drivers/GD32F1x0_standard_peripheral/Source/gd32f1x0_syscfg.c **** */
  78:Drivers/GD32F1x0_standard_peripheral/Source/gd32f1x0_syscfg.c **** void syscfg_high_current_disable(void)
ARM GAS  /tmp/cct81q7X.s 			page 5


  79:Drivers/GD32F1x0_standard_peripheral/Source/gd32f1x0_syscfg.c **** {
 158              		.loc 1 79 1 is_stmt 1 view -0
 159              		.cfi_startproc
 160              		@ args = 0, pretend = 0, frame = 0
 161              		@ frame_needed = 0, uses_anonymous_args = 0
 162              		@ link register save eliminated.
  80:Drivers/GD32F1x0_standard_peripheral/Source/gd32f1x0_syscfg.c ****     SYSCFG_CFG0 &= SYSCFG_HIGH_CURRENT_DISABLE;
 163              		.loc 1 80 5 view .LVU20
 164              		.loc 1 80 17 is_stmt 0 view .LVU21
 165 0000 024A     		ldr	r2, .L12
 166 0002 1368     		ldr	r3, [r2]
 167 0004 23F40023 		bic	r3, r3, #524288
 168 0008 1360     		str	r3, [r2]
  81:Drivers/GD32F1x0_standard_peripheral/Source/gd32f1x0_syscfg.c **** }
 169              		.loc 1 81 1 view .LVU22
 170 000a 7047     		bx	lr
 171              	.L13:
 172              		.align	2
 173              	.L12:
 174 000c 00000140 		.word	1073807360
 175              		.cfi_endproc
 176              	.LFE60:
 178              		.section	.text.syscfg_exti_line_config,"ax",%progbits
 179              		.align	1
 180              		.global	syscfg_exti_line_config
 181              		.syntax unified
 182              		.thumb
 183              		.thumb_func
 184              		.fpu softvfp
 186              	syscfg_exti_line_config:
 187              	.LVL4:
 188              	.LFB61:
  82:Drivers/GD32F1x0_standard_peripheral/Source/gd32f1x0_syscfg.c **** 
  83:Drivers/GD32F1x0_standard_peripheral/Source/gd32f1x0_syscfg.c **** #ifdef GD32F170_190
  84:Drivers/GD32F1x0_standard_peripheral/Source/gd32f1x0_syscfg.c **** /*!
  85:Drivers/GD32F1x0_standard_peripheral/Source/gd32f1x0_syscfg.c ****     \brief      configure the VLCD intermediate voltage rail
  86:Drivers/GD32F1x0_standard_peripheral/Source/gd32f1x0_syscfg.c ****     \param[in]  vlcd_bias: specify VLCD bias
  87:Drivers/GD32F1x0_standard_peripheral/Source/gd32f1x0_syscfg.c ****       \arg        VLCD_BIAS1_2_RAIL1: VLCD bias is 1/2, using rail1
  88:Drivers/GD32F1x0_standard_peripheral/Source/gd32f1x0_syscfg.c ****       \arg        VLCD_BIAS1_2_RAIL2: VLCD bias is 1/2, using rail2
  89:Drivers/GD32F1x0_standard_peripheral/Source/gd32f1x0_syscfg.c ****       \arg        VLCD_BIAS1_2_RAIL3: VLCD bias is 1/2, using rail3
  90:Drivers/GD32F1x0_standard_peripheral/Source/gd32f1x0_syscfg.c ****       \arg        VLCD_BIAS1_3_RAIL1_2: VLCD bias is 1/3, using rail1 and rail2
  91:Drivers/GD32F1x0_standard_peripheral/Source/gd32f1x0_syscfg.c ****       \arg        VLCD_BIAS1_3_RAIL1_3: VLCD bias is 1/3, using rail1 and rail3
  92:Drivers/GD32F1x0_standard_peripheral/Source/gd32f1x0_syscfg.c ****       \arg        VLCD_BIAS1_4_RAILALL: VLCD bias is 1/4, using all rails
  93:Drivers/GD32F1x0_standard_peripheral/Source/gd32f1x0_syscfg.c ****     \param[out] none
  94:Drivers/GD32F1x0_standard_peripheral/Source/gd32f1x0_syscfg.c ****     \retval     none
  95:Drivers/GD32F1x0_standard_peripheral/Source/gd32f1x0_syscfg.c **** */
  96:Drivers/GD32F1x0_standard_peripheral/Source/gd32f1x0_syscfg.c **** void syscfg_vlcd_rail_config(uint8_t vlcd_bias)
  97:Drivers/GD32F1x0_standard_peripheral/Source/gd32f1x0_syscfg.c **** {
  98:Drivers/GD32F1x0_standard_peripheral/Source/gd32f1x0_syscfg.c ****     uint32_t cfg1 = SYSCFG_CFG1;
  99:Drivers/GD32F1x0_standard_peripheral/Source/gd32f1x0_syscfg.c **** 
 100:Drivers/GD32F1x0_standard_peripheral/Source/gd32f1x0_syscfg.c ****     /* Clear system configuration register 1 */
 101:Drivers/GD32F1x0_standard_peripheral/Source/gd32f1x0_syscfg.c ****     SYSCFG_CFG1 = 0U;
 102:Drivers/GD32F1x0_standard_peripheral/Source/gd32f1x0_syscfg.c **** 
 103:Drivers/GD32F1x0_standard_peripheral/Source/gd32f1x0_syscfg.c ****     switch(vlcd_bias){
 104:Drivers/GD32F1x0_standard_peripheral/Source/gd32f1x0_syscfg.c ****     /* according to VLCD bias, configure rails combination */
 105:Drivers/GD32F1x0_standard_peripheral/Source/gd32f1x0_syscfg.c ****     case VLCD_BIAS1_2_RAIL1:
 106:Drivers/GD32F1x0_standard_peripheral/Source/gd32f1x0_syscfg.c ****         SYSCFG_CFG1 |= SYSCFG_VLCD_RAIL1;
ARM GAS  /tmp/cct81q7X.s 			page 6


 107:Drivers/GD32F1x0_standard_peripheral/Source/gd32f1x0_syscfg.c ****         break;
 108:Drivers/GD32F1x0_standard_peripheral/Source/gd32f1x0_syscfg.c ****     case VLCD_BIAS1_2_RAIL2:
 109:Drivers/GD32F1x0_standard_peripheral/Source/gd32f1x0_syscfg.c ****         SYSCFG_CFG1 |= SYSCFG_VLCD_RAIL2;
 110:Drivers/GD32F1x0_standard_peripheral/Source/gd32f1x0_syscfg.c ****         break;
 111:Drivers/GD32F1x0_standard_peripheral/Source/gd32f1x0_syscfg.c ****     case VLCD_BIAS1_2_RAIL3:
 112:Drivers/GD32F1x0_standard_peripheral/Source/gd32f1x0_syscfg.c ****         SYSCFG_CFG1 |= SYSCFG_VLCD_RAIL3;
 113:Drivers/GD32F1x0_standard_peripheral/Source/gd32f1x0_syscfg.c ****         break;
 114:Drivers/GD32F1x0_standard_peripheral/Source/gd32f1x0_syscfg.c ****     case VLCD_BIAS1_3_RAIL1_2:
 115:Drivers/GD32F1x0_standard_peripheral/Source/gd32f1x0_syscfg.c ****         SYSCFG_CFG1 |= SYSCFG_VLCD_RAIL2 | SYSCFG_VLCD_RAIL1;
 116:Drivers/GD32F1x0_standard_peripheral/Source/gd32f1x0_syscfg.c ****         break;
 117:Drivers/GD32F1x0_standard_peripheral/Source/gd32f1x0_syscfg.c ****     case VLCD_BIAS1_3_RAIL1_3:
 118:Drivers/GD32F1x0_standard_peripheral/Source/gd32f1x0_syscfg.c ****         SYSCFG_CFG1 |= SYSCFG_VLCD_RAIL3 | SYSCFG_VLCD_RAIL1;
 119:Drivers/GD32F1x0_standard_peripheral/Source/gd32f1x0_syscfg.c ****         break;
 120:Drivers/GD32F1x0_standard_peripheral/Source/gd32f1x0_syscfg.c ****     case VLCD_BIAS1_4_RAILALL:
 121:Drivers/GD32F1x0_standard_peripheral/Source/gd32f1x0_syscfg.c ****         SYSCFG_CFG1 |= SYSCFG_VLCD_RAIL3 | SYSCFG_VLCD_RAIL2 | SYSCFG_VLCD_RAIL1;
 122:Drivers/GD32F1x0_standard_peripheral/Source/gd32f1x0_syscfg.c ****         break;
 123:Drivers/GD32F1x0_standard_peripheral/Source/gd32f1x0_syscfg.c ****     default:
 124:Drivers/GD32F1x0_standard_peripheral/Source/gd32f1x0_syscfg.c ****         SYSCFG_CFG1 = cfg1;
 125:Drivers/GD32F1x0_standard_peripheral/Source/gd32f1x0_syscfg.c ****         break;
 126:Drivers/GD32F1x0_standard_peripheral/Source/gd32f1x0_syscfg.c ****     }
 127:Drivers/GD32F1x0_standard_peripheral/Source/gd32f1x0_syscfg.c **** }
 128:Drivers/GD32F1x0_standard_peripheral/Source/gd32f1x0_syscfg.c **** #endif /* GD32F170_190 */
 129:Drivers/GD32F1x0_standard_peripheral/Source/gd32f1x0_syscfg.c **** 
 130:Drivers/GD32F1x0_standard_peripheral/Source/gd32f1x0_syscfg.c **** /*!
 131:Drivers/GD32F1x0_standard_peripheral/Source/gd32f1x0_syscfg.c ****     \brief      configure the GPIO pin as EXTI Line
 132:Drivers/GD32F1x0_standard_peripheral/Source/gd32f1x0_syscfg.c ****     \param[in]  exti_port: specify the GPIO port used in EXTI
 133:Drivers/GD32F1x0_standard_peripheral/Source/gd32f1x0_syscfg.c ****       \arg        EXTI_SOURCE_GPIOx(x = A,B,C,D,F): EXTI GPIO port
 134:Drivers/GD32F1x0_standard_peripheral/Source/gd32f1x0_syscfg.c ****     \param[in]  exti_pin: specify the EXTI line
 135:Drivers/GD32F1x0_standard_peripheral/Source/gd32f1x0_syscfg.c ****       \arg        EXTI_SOURCE_PINx(x = 0..15): EXTI GPIO pin
 136:Drivers/GD32F1x0_standard_peripheral/Source/gd32f1x0_syscfg.c ****     \param[out] none
 137:Drivers/GD32F1x0_standard_peripheral/Source/gd32f1x0_syscfg.c ****     \retval     none
 138:Drivers/GD32F1x0_standard_peripheral/Source/gd32f1x0_syscfg.c **** */
 139:Drivers/GD32F1x0_standard_peripheral/Source/gd32f1x0_syscfg.c **** void syscfg_exti_line_config(uint8_t exti_port, uint8_t exti_pin)
 140:Drivers/GD32F1x0_standard_peripheral/Source/gd32f1x0_syscfg.c **** {
 189              		.loc 1 140 1 is_stmt 1 view -0
 190              		.cfi_startproc
 191              		@ args = 0, pretend = 0, frame = 0
 192              		@ frame_needed = 0, uses_anonymous_args = 0
 193              		@ link register save eliminated.
 141:Drivers/GD32F1x0_standard_peripheral/Source/gd32f1x0_syscfg.c ****     uint32_t clear_exti_mask = ~((uint32_t)EXTI_SS_MASK << (EXTI_SS_MSTEP(exti_pin)));
 194              		.loc 1 141 5 view .LVU24
 195              		.loc 1 141 57 is_stmt 0 view .LVU25
 196 0000 0F23     		movs	r3, #15
 197              		.loc 1 141 61 view .LVU26
 198 0002 01F00302 		and	r2, r1, #3
 199 0006 9200     		lsls	r2, r2, #2
 200              		.loc 1 141 57 view .LVU27
 201 0008 9340     		lsls	r3, r3, r2
 142:Drivers/GD32F1x0_standard_peripheral/Source/gd32f1x0_syscfg.c ****     uint32_t config_exti_mask = ((uint32_t)exti_port) << (EXTI_SS_MSTEP(exti_pin));
 143:Drivers/GD32F1x0_standard_peripheral/Source/gd32f1x0_syscfg.c **** 
 144:Drivers/GD32F1x0_standard_peripheral/Source/gd32f1x0_syscfg.c ****     switch(exti_pin / EXTI_SS_JSTEP){
 202              		.loc 1 144 5 view .LVU28
 203 000a 8908     		lsrs	r1, r1, #2
 204              	.LVL5:
 141:Drivers/GD32F1x0_standard_peripheral/Source/gd32f1x0_syscfg.c ****     uint32_t clear_exti_mask = ~((uint32_t)EXTI_SS_MASK << (EXTI_SS_MSTEP(exti_pin)));
 205              		.loc 1 141 14 view .LVU29
 206 000c DB43     		mvns	r3, r3
ARM GAS  /tmp/cct81q7X.s 			page 7


 207              	.LVL6:
 142:Drivers/GD32F1x0_standard_peripheral/Source/gd32f1x0_syscfg.c ****     uint32_t config_exti_mask = ((uint32_t)exti_port) << (EXTI_SS_MSTEP(exti_pin));
 208              		.loc 1 142 5 is_stmt 1 view .LVU30
 142:Drivers/GD32F1x0_standard_peripheral/Source/gd32f1x0_syscfg.c ****     uint32_t config_exti_mask = ((uint32_t)exti_port) << (EXTI_SS_MSTEP(exti_pin));
 209              		.loc 1 142 14 is_stmt 0 view .LVU31
 210 000e 9040     		lsls	r0, r0, r2
 211              	.LVL7:
 212              		.loc 1 144 5 is_stmt 1 view .LVU32
 213 0010 0329     		cmp	r1, #3
 214 0012 22D8     		bhi	.L14
 215 0014 DFE801F0 		tbb	[pc, r1]
 216              	.L17:
 217 0018 02       		.byte	(.L20-.L17)/2
 218 0019 0A       		.byte	(.L19-.L17)/2
 219 001a 12       		.byte	(.L18-.L17)/2
 220 001b 1A       		.byte	(.L16-.L17)/2
 221              		.p2align 1
 222              	.L20:
 145:Drivers/GD32F1x0_standard_peripheral/Source/gd32f1x0_syscfg.c ****     case EXTISS0:
 146:Drivers/GD32F1x0_standard_peripheral/Source/gd32f1x0_syscfg.c ****         /* clear EXTI source line(0..3) */
 147:Drivers/GD32F1x0_standard_peripheral/Source/gd32f1x0_syscfg.c ****         SYSCFG_EXTISS0 &= clear_exti_mask;
 223              		.loc 1 147 9 view .LVU33
 224              		.loc 1 147 24 is_stmt 0 view .LVU34
 225 001c 0F4A     		ldr	r2, .L21
 226 001e 9168     		ldr	r1, [r2, #8]
 227 0020 0B40     		ands	r3, r3, r1
 228              	.LVL8:
 229              		.loc 1 147 24 view .LVU35
 230 0022 9360     		str	r3, [r2, #8]
 148:Drivers/GD32F1x0_standard_peripheral/Source/gd32f1x0_syscfg.c ****         /* configure EXTI soure line(0..3) */
 149:Drivers/GD32F1x0_standard_peripheral/Source/gd32f1x0_syscfg.c ****         SYSCFG_EXTISS0 |= config_exti_mask;
 231              		.loc 1 149 9 is_stmt 1 view .LVU36
 232              		.loc 1 149 24 is_stmt 0 view .LVU37
 233 0024 9368     		ldr	r3, [r2, #8]
 234 0026 1843     		orrs	r0, r0, r3
 235              	.LVL9:
 236              		.loc 1 149 24 view .LVU38
 237 0028 9060     		str	r0, [r2, #8]
 150:Drivers/GD32F1x0_standard_peripheral/Source/gd32f1x0_syscfg.c ****         break;
 238              		.loc 1 150 9 is_stmt 1 view .LVU39
 239 002a 7047     		bx	lr
 240              	.LVL10:
 241              	.L19:
 151:Drivers/GD32F1x0_standard_peripheral/Source/gd32f1x0_syscfg.c ****     case EXTISS1:
 152:Drivers/GD32F1x0_standard_peripheral/Source/gd32f1x0_syscfg.c ****         /* clear EXTI soure line(4..7) */
 153:Drivers/GD32F1x0_standard_peripheral/Source/gd32f1x0_syscfg.c ****         SYSCFG_EXTISS1 &= clear_exti_mask;
 242              		.loc 1 153 9 view .LVU40
 243              		.loc 1 153 24 is_stmt 0 view .LVU41
 244 002c 0B4A     		ldr	r2, .L21
 245 002e D168     		ldr	r1, [r2, #12]
 246 0030 0B40     		ands	r3, r3, r1
 247              	.LVL11:
 248              		.loc 1 153 24 view .LVU42
 249 0032 D360     		str	r3, [r2, #12]
 154:Drivers/GD32F1x0_standard_peripheral/Source/gd32f1x0_syscfg.c ****         /* configure EXTI soure line(4..7) */
 155:Drivers/GD32F1x0_standard_peripheral/Source/gd32f1x0_syscfg.c ****         SYSCFG_EXTISS1 |= config_exti_mask;
 250              		.loc 1 155 9 is_stmt 1 view .LVU43
ARM GAS  /tmp/cct81q7X.s 			page 8


 251              		.loc 1 155 24 is_stmt 0 view .LVU44
 252 0034 D368     		ldr	r3, [r2, #12]
 253 0036 1843     		orrs	r0, r0, r3
 254              	.LVL12:
 255              		.loc 1 155 24 view .LVU45
 256 0038 D060     		str	r0, [r2, #12]
 156:Drivers/GD32F1x0_standard_peripheral/Source/gd32f1x0_syscfg.c ****         break;
 257              		.loc 1 156 9 is_stmt 1 view .LVU46
 258 003a 7047     		bx	lr
 259              	.LVL13:
 260              	.L18:
 157:Drivers/GD32F1x0_standard_peripheral/Source/gd32f1x0_syscfg.c ****     case EXTISS2:
 158:Drivers/GD32F1x0_standard_peripheral/Source/gd32f1x0_syscfg.c ****         /* clear EXTI soure line(8..11) */
 159:Drivers/GD32F1x0_standard_peripheral/Source/gd32f1x0_syscfg.c ****         SYSCFG_EXTISS2 &= clear_exti_mask;
 261              		.loc 1 159 9 view .LVU47
 262              		.loc 1 159 24 is_stmt 0 view .LVU48
 263 003c 074A     		ldr	r2, .L21
 264 003e 1169     		ldr	r1, [r2, #16]
 265 0040 0B40     		ands	r3, r3, r1
 266              	.LVL14:
 267              		.loc 1 159 24 view .LVU49
 268 0042 1361     		str	r3, [r2, #16]
 160:Drivers/GD32F1x0_standard_peripheral/Source/gd32f1x0_syscfg.c ****         /* configure EXTI soure line(8..11) */
 161:Drivers/GD32F1x0_standard_peripheral/Source/gd32f1x0_syscfg.c ****         SYSCFG_EXTISS2 |= config_exti_mask;
 269              		.loc 1 161 9 is_stmt 1 view .LVU50
 270              		.loc 1 161 24 is_stmt 0 view .LVU51
 271 0044 1369     		ldr	r3, [r2, #16]
 272 0046 1843     		orrs	r0, r0, r3
 273              	.LVL15:
 274              		.loc 1 161 24 view .LVU52
 275 0048 1061     		str	r0, [r2, #16]
 162:Drivers/GD32F1x0_standard_peripheral/Source/gd32f1x0_syscfg.c ****         break;
 276              		.loc 1 162 9 is_stmt 1 view .LVU53
 277 004a 7047     		bx	lr
 278              	.LVL16:
 279              	.L16:
 163:Drivers/GD32F1x0_standard_peripheral/Source/gd32f1x0_syscfg.c ****     case EXTISS3:
 164:Drivers/GD32F1x0_standard_peripheral/Source/gd32f1x0_syscfg.c ****         /* clear EXTI soure line(12..15) */
 165:Drivers/GD32F1x0_standard_peripheral/Source/gd32f1x0_syscfg.c ****         SYSCFG_EXTISS3 &= clear_exti_mask;
 280              		.loc 1 165 9 view .LVU54
 281              		.loc 1 165 24 is_stmt 0 view .LVU55
 282 004c 034A     		ldr	r2, .L21
 283 004e 5169     		ldr	r1, [r2, #20]
 284 0050 0B40     		ands	r3, r3, r1
 285              	.LVL17:
 286              		.loc 1 165 24 view .LVU56
 287 0052 5361     		str	r3, [r2, #20]
 166:Drivers/GD32F1x0_standard_peripheral/Source/gd32f1x0_syscfg.c ****         /* configure EXTI soure line(12..15) */
 167:Drivers/GD32F1x0_standard_peripheral/Source/gd32f1x0_syscfg.c ****         SYSCFG_EXTISS3 |= config_exti_mask;
 288              		.loc 1 167 9 is_stmt 1 view .LVU57
 289              		.loc 1 167 24 is_stmt 0 view .LVU58
 290 0054 5369     		ldr	r3, [r2, #20]
 291 0056 1843     		orrs	r0, r0, r3
 292              	.LVL18:
 293              		.loc 1 167 24 view .LVU59
 294 0058 5061     		str	r0, [r2, #20]
 168:Drivers/GD32F1x0_standard_peripheral/Source/gd32f1x0_syscfg.c ****         break;
ARM GAS  /tmp/cct81q7X.s 			page 9


 295              		.loc 1 168 9 is_stmt 1 view .LVU60
 296              	.L14:
 169:Drivers/GD32F1x0_standard_peripheral/Source/gd32f1x0_syscfg.c ****     default:
 170:Drivers/GD32F1x0_standard_peripheral/Source/gd32f1x0_syscfg.c ****         break;
 171:Drivers/GD32F1x0_standard_peripheral/Source/gd32f1x0_syscfg.c ****     }
 172:Drivers/GD32F1x0_standard_peripheral/Source/gd32f1x0_syscfg.c **** }
 297              		.loc 1 172 1 is_stmt 0 view .LVU61
 298 005a 7047     		bx	lr
 299              	.L22:
 300              		.align	2
 301              	.L21:
 302 005c 00000140 		.word	1073807360
 303              		.cfi_endproc
 304              	.LFE61:
 306              		.section	.text.syscfg_lock_config,"ax",%progbits
 307              		.align	1
 308              		.global	syscfg_lock_config
 309              		.syntax unified
 310              		.thumb
 311              		.thumb_func
 312              		.fpu softvfp
 314              	syscfg_lock_config:
 315              	.LVL19:
 316              	.LFB62:
 173:Drivers/GD32F1x0_standard_peripheral/Source/gd32f1x0_syscfg.c **** 
 174:Drivers/GD32F1x0_standard_peripheral/Source/gd32f1x0_syscfg.c **** /*!
 175:Drivers/GD32F1x0_standard_peripheral/Source/gd32f1x0_syscfg.c ****     \brief      connect TIMER0/14/15/16 break input to the selected parameter
 176:Drivers/GD32F1x0_standard_peripheral/Source/gd32f1x0_syscfg.c ****     \param[in]  syscfg_lock: Specify the parameter to be connected
 177:Drivers/GD32F1x0_standard_peripheral/Source/gd32f1x0_syscfg.c ****       \arg        SYSCFG_LOCK_LOCKUP: Cortex-M3 lockup output connected to the break input
 178:Drivers/GD32F1x0_standard_peripheral/Source/gd32f1x0_syscfg.c ****       \arg        SYSCFG_LOCK_SRAM_PARITY_ERROR: SRAM_PARITY check error connected to the break inp
 179:Drivers/GD32F1x0_standard_peripheral/Source/gd32f1x0_syscfg.c ****       \arg        SYSCFG_LOCK_LVD: LVD interrupt connected to the break input
 180:Drivers/GD32F1x0_standard_peripheral/Source/gd32f1x0_syscfg.c ****     \param[out] none
 181:Drivers/GD32F1x0_standard_peripheral/Source/gd32f1x0_syscfg.c ****     \retval     none
 182:Drivers/GD32F1x0_standard_peripheral/Source/gd32f1x0_syscfg.c **** */
 183:Drivers/GD32F1x0_standard_peripheral/Source/gd32f1x0_syscfg.c **** void syscfg_lock_config(uint32_t syscfg_lock)
 184:Drivers/GD32F1x0_standard_peripheral/Source/gd32f1x0_syscfg.c **** {
 317              		.loc 1 184 1 is_stmt 1 view -0
 318              		.cfi_startproc
 319              		@ args = 0, pretend = 0, frame = 0
 320              		@ frame_needed = 0, uses_anonymous_args = 0
 321              		@ link register save eliminated.
 185:Drivers/GD32F1x0_standard_peripheral/Source/gd32f1x0_syscfg.c ****     SYSCFG_CFG2 |= syscfg_lock;
 322              		.loc 1 185 5 view .LVU63
 323              		.loc 1 185 17 is_stmt 0 view .LVU64
 324 0000 024A     		ldr	r2, .L24
 325 0002 9369     		ldr	r3, [r2, #24]
 326 0004 0343     		orrs	r3, r3, r0
 327 0006 9361     		str	r3, [r2, #24]
 186:Drivers/GD32F1x0_standard_peripheral/Source/gd32f1x0_syscfg.c **** }
 328              		.loc 1 186 1 view .LVU65
 329 0008 7047     		bx	lr
 330              	.L25:
 331 000a 00BF     		.align	2
 332              	.L24:
 333 000c 00000140 		.word	1073807360
 334              		.cfi_endproc
 335              	.LFE62:
ARM GAS  /tmp/cct81q7X.s 			page 10


 337              		.section	.text.syscfg_flag_get,"ax",%progbits
 338              		.align	1
 339              		.global	syscfg_flag_get
 340              		.syntax unified
 341              		.thumb
 342              		.thumb_func
 343              		.fpu softvfp
 345              	syscfg_flag_get:
 346              	.LVL20:
 347              	.LFB63:
 187:Drivers/GD32F1x0_standard_peripheral/Source/gd32f1x0_syscfg.c **** 
 188:Drivers/GD32F1x0_standard_peripheral/Source/gd32f1x0_syscfg.c **** /*!
 189:Drivers/GD32F1x0_standard_peripheral/Source/gd32f1x0_syscfg.c ****     \brief      check if the specified flag in SYSCFG_CFG2 is set or not.
 190:Drivers/GD32F1x0_standard_peripheral/Source/gd32f1x0_syscfg.c ****     \param[in]  syscfg_flag: specify the flag in SYSCFG_CFG2 to check.
 191:Drivers/GD32F1x0_standard_peripheral/Source/gd32f1x0_syscfg.c ****       \arg        SYSCFG_SRAM_PCEF: SRAM parity check error flag.
 192:Drivers/GD32F1x0_standard_peripheral/Source/gd32f1x0_syscfg.c ****     \param[out] none
 193:Drivers/GD32F1x0_standard_peripheral/Source/gd32f1x0_syscfg.c ****     \retval     the syscfg_flag state returned (SET or RESET).
 194:Drivers/GD32F1x0_standard_peripheral/Source/gd32f1x0_syscfg.c ****   */
 195:Drivers/GD32F1x0_standard_peripheral/Source/gd32f1x0_syscfg.c **** FlagStatus syscfg_flag_get(uint32_t syscfg_flag)
 196:Drivers/GD32F1x0_standard_peripheral/Source/gd32f1x0_syscfg.c **** {
 348              		.loc 1 196 1 is_stmt 1 view -0
 349              		.cfi_startproc
 350              		@ args = 0, pretend = 0, frame = 0
 351              		@ frame_needed = 0, uses_anonymous_args = 0
 352              		@ link register save eliminated.
 197:Drivers/GD32F1x0_standard_peripheral/Source/gd32f1x0_syscfg.c ****     if((SYSCFG_CFG2 & syscfg_flag) != (uint32_t)RESET){
 353              		.loc 1 197 5 view .LVU67
 354              		.loc 1 197 9 is_stmt 0 view .LVU68
 355 0000 034B     		ldr	r3, .L27
 356 0002 9B69     		ldr	r3, [r3, #24]
 357              		.loc 1 197 7 view .LVU69
 358 0004 0342     		tst	r3, r0
 198:Drivers/GD32F1x0_standard_peripheral/Source/gd32f1x0_syscfg.c ****         return SET;
 199:Drivers/GD32F1x0_standard_peripheral/Source/gd32f1x0_syscfg.c ****     }else{
 200:Drivers/GD32F1x0_standard_peripheral/Source/gd32f1x0_syscfg.c ****         return RESET;
 201:Drivers/GD32F1x0_standard_peripheral/Source/gd32f1x0_syscfg.c ****     }
 202:Drivers/GD32F1x0_standard_peripheral/Source/gd32f1x0_syscfg.c **** }
 359              		.loc 1 202 1 view .LVU70
 360 0006 14BF     		ite	ne
 361 0008 0120     		movne	r0, #1
 362              	.LVL21:
 363              		.loc 1 202 1 view .LVU71
 364 000a 0020     		moveq	r0, #0
 365 000c 7047     		bx	lr
 366              	.L28:
 367 000e 00BF     		.align	2
 368              	.L27:
 369 0010 00000140 		.word	1073807360
 370              		.cfi_endproc
 371              	.LFE63:
 373              		.section	.text.syscfg_flag_clear,"ax",%progbits
 374              		.align	1
 375              		.global	syscfg_flag_clear
 376              		.syntax unified
 377              		.thumb
 378              		.thumb_func
 379              		.fpu softvfp
ARM GAS  /tmp/cct81q7X.s 			page 11


 381              	syscfg_flag_clear:
 382              	.LFB66:
 383              		.cfi_startproc
 384              		@ args = 0, pretend = 0, frame = 0
 385              		@ frame_needed = 0, uses_anonymous_args = 0
 386              		@ link register save eliminated.
 387 0000 FFF7FEBF 		b	syscfg_lock_config
 388              		.cfi_endproc
 389              	.LFE66:
 391              		.text
 392              	.Letext0:
 393              		.file 2 "/usr/lib/gcc/arm-none-eabi/10.3.1/include/stdint.h"
 394              		.file 3 "Drivers/CMSIS/Include/gd32f1x0.h"
 395              		.file 4 "Drivers/GD32F1x0_standard_peripheral/Include/gd32f1x0_rcu.h"
ARM GAS  /tmp/cct81q7X.s 			page 12

