ARM GAS  /tmp/cc8PYp20.s 			page 1


   1              		.cpu cortex-m3
   2              		.eabi_attribute 20, 1
   3              		.eabi_attribute 21, 1
   4              		.eabi_attribute 23, 3
   5              		.eabi_attribute 24, 1
   6              		.eabi_attribute 25, 1
   7              		.eabi_attribute 26, 1
   8              		.eabi_attribute 30, 4
   9              		.eabi_attribute 34, 1
  10              		.eabi_attribute 18, 4
  11              		.file	"gd32f1x0_usart.c"
  12              		.text
  13              	.Ltext0:
  14              		.cfi_sections	.debug_frame
  15              		.section	.text.usart_deinit,"ax",%progbits
  16              		.align	1
  17              		.global	usart_deinit
  18              		.arch armv7-m
  19              		.syntax unified
  20              		.thumb
  21              		.thumb_func
  22              		.fpu softvfp
  24              	usart_deinit:
  25              	.LVL0:
  26              	.LFB56:
  27              		.file 1 "Drivers/GD32F1x0_standard_peripheral/Source/gd32f1x0_usart.c"
   1:Drivers/GD32F1x0_standard_peripheral/Source/gd32f1x0_usart.c **** /*!
   2:Drivers/GD32F1x0_standard_peripheral/Source/gd32f1x0_usart.c ****     \file  gd32f1x0_usart.c
   3:Drivers/GD32F1x0_standard_peripheral/Source/gd32f1x0_usart.c ****     \brief USART driver
   4:Drivers/GD32F1x0_standard_peripheral/Source/gd32f1x0_usart.c **** */
   5:Drivers/GD32F1x0_standard_peripheral/Source/gd32f1x0_usart.c **** 
   6:Drivers/GD32F1x0_standard_peripheral/Source/gd32f1x0_usart.c **** /*
   7:Drivers/GD32F1x0_standard_peripheral/Source/gd32f1x0_usart.c ****     Copyright (C) 2017 GigaDevice
   8:Drivers/GD32F1x0_standard_peripheral/Source/gd32f1x0_usart.c **** 
   9:Drivers/GD32F1x0_standard_peripheral/Source/gd32f1x0_usart.c ****     2014-12-26, V1.0.0, platform GD32F1x0(x=3,5)
  10:Drivers/GD32F1x0_standard_peripheral/Source/gd32f1x0_usart.c ****     2016-01-15, V2.0.0, platform GD32F1x0(x=3,5,7,9)
  11:Drivers/GD32F1x0_standard_peripheral/Source/gd32f1x0_usart.c ****     2016-04-30, V3.0.0, firmware update for GD32F1x0(x=3,5,7,9)
  12:Drivers/GD32F1x0_standard_peripheral/Source/gd32f1x0_usart.c ****     2017-06-19, V3.1.1, firmware update for GD32F1x0(x=3,5,7,9)
  13:Drivers/GD32F1x0_standard_peripheral/Source/gd32f1x0_usart.c **** */
  14:Drivers/GD32F1x0_standard_peripheral/Source/gd32f1x0_usart.c **** 
  15:Drivers/GD32F1x0_standard_peripheral/Source/gd32f1x0_usart.c **** #include "gd32f1x0_usart.h"
  16:Drivers/GD32F1x0_standard_peripheral/Source/gd32f1x0_usart.c **** #include "gd32f1x0_rcu.h"
  17:Drivers/GD32F1x0_standard_peripheral/Source/gd32f1x0_usart.c **** 
  18:Drivers/GD32F1x0_standard_peripheral/Source/gd32f1x0_usart.c **** /*!
  19:Drivers/GD32F1x0_standard_peripheral/Source/gd32f1x0_usart.c ****     \brief      reset USART
  20:Drivers/GD32F1x0_standard_peripheral/Source/gd32f1x0_usart.c ****     \param[in]  usart_periph: USARTx(x=0,1)
  21:Drivers/GD32F1x0_standard_peripheral/Source/gd32f1x0_usart.c ****     \param[out] none
  22:Drivers/GD32F1x0_standard_peripheral/Source/gd32f1x0_usart.c ****     \retval     none
  23:Drivers/GD32F1x0_standard_peripheral/Source/gd32f1x0_usart.c **** */
  24:Drivers/GD32F1x0_standard_peripheral/Source/gd32f1x0_usart.c **** void usart_deinit(uint32_t usart_periph)
  25:Drivers/GD32F1x0_standard_peripheral/Source/gd32f1x0_usart.c **** {
  28              		.loc 1 25 1 view -0
  29              		.cfi_startproc
  30              		@ args = 0, pretend = 0, frame = 0
  31              		@ frame_needed = 0, uses_anonymous_args = 0
  26:Drivers/GD32F1x0_standard_peripheral/Source/gd32f1x0_usart.c ****     switch(usart_periph){
  32              		.loc 1 26 5 view .LVU1
ARM GAS  /tmp/cc8PYp20.s 			page 2


  25:Drivers/GD32F1x0_standard_peripheral/Source/gd32f1x0_usart.c ****     switch(usart_periph){
  33              		.loc 1 25 1 is_stmt 0 view .LVU2
  34 0000 08B5     		push	{r3, lr}
  35              	.LCFI0:
  36              		.cfi_def_cfa_offset 8
  37              		.cfi_offset 3, -8
  38              		.cfi_offset 14, -4
  39              		.loc 1 26 5 view .LVU3
  40 0002 0C4B     		ldr	r3, .L5
  41 0004 9842     		cmp	r0, r3
  42 0006 0DD0     		beq	.L2
  43 0008 03F57443 		add	r3, r3, #62464
  44 000c 9842     		cmp	r0, r3
  45 000e 10D1     		bne	.L1
  27:Drivers/GD32F1x0_standard_peripheral/Source/gd32f1x0_usart.c ****     case USART0:
  28:Drivers/GD32F1x0_standard_peripheral/Source/gd32f1x0_usart.c ****         rcu_periph_reset_enable(RCU_USART0RST);
  46              		.loc 1 28 9 is_stmt 1 view .LVU4
  47 0010 40F20E30 		movw	r0, #782
  48              	.LVL1:
  49              		.loc 1 28 9 is_stmt 0 view .LVU5
  50 0014 FFF7FEFF 		bl	rcu_periph_reset_enable
  51              	.LVL2:
  29:Drivers/GD32F1x0_standard_peripheral/Source/gd32f1x0_usart.c ****         rcu_periph_reset_disable(RCU_USART0RST);
  52              		.loc 1 29 9 is_stmt 1 view .LVU6
  53 0018 40F20E30 		movw	r0, #782
  54              	.L4:
  30:Drivers/GD32F1x0_standard_peripheral/Source/gd32f1x0_usart.c ****         break;
  31:Drivers/GD32F1x0_standard_peripheral/Source/gd32f1x0_usart.c ****     case USART1:
  32:Drivers/GD32F1x0_standard_peripheral/Source/gd32f1x0_usart.c ****         rcu_periph_reset_enable(RCU_USART1RST);
  33:Drivers/GD32F1x0_standard_peripheral/Source/gd32f1x0_usart.c ****         rcu_periph_reset_disable(RCU_USART1RST);
  34:Drivers/GD32F1x0_standard_peripheral/Source/gd32f1x0_usart.c ****         break;
  35:Drivers/GD32F1x0_standard_peripheral/Source/gd32f1x0_usart.c ****     default:
  36:Drivers/GD32F1x0_standard_peripheral/Source/gd32f1x0_usart.c ****         break;
  37:Drivers/GD32F1x0_standard_peripheral/Source/gd32f1x0_usart.c ****     }
  38:Drivers/GD32F1x0_standard_peripheral/Source/gd32f1x0_usart.c **** }
  55              		.loc 1 38 1 is_stmt 0 view .LVU7
  56 001c BDE80840 		pop	{r3, lr}
  57              	.LCFI1:
  58              		.cfi_remember_state
  59              		.cfi_restore 14
  60              		.cfi_restore 3
  61              		.cfi_def_cfa_offset 0
  33:Drivers/GD32F1x0_standard_peripheral/Source/gd32f1x0_usart.c ****         break;
  62              		.loc 1 33 9 view .LVU8
  63 0020 FFF7FEBF 		b	rcu_periph_reset_disable
  64              	.LVL3:
  65              	.L2:
  66              	.LCFI2:
  67              		.cfi_restore_state
  32:Drivers/GD32F1x0_standard_peripheral/Source/gd32f1x0_usart.c ****         rcu_periph_reset_disable(RCU_USART1RST);
  68              		.loc 1 32 9 is_stmt 1 view .LVU9
  69 0024 40F21140 		movw	r0, #1041
  70              	.LVL4:
  32:Drivers/GD32F1x0_standard_peripheral/Source/gd32f1x0_usart.c ****         rcu_periph_reset_disable(RCU_USART1RST);
  71              		.loc 1 32 9 is_stmt 0 view .LVU10
  72 0028 FFF7FEFF 		bl	rcu_periph_reset_enable
  73              	.LVL5:
ARM GAS  /tmp/cc8PYp20.s 			page 3


  33:Drivers/GD32F1x0_standard_peripheral/Source/gd32f1x0_usart.c ****         break;
  74              		.loc 1 33 9 is_stmt 1 view .LVU11
  75 002c 40F21140 		movw	r0, #1041
  76 0030 F4E7     		b	.L4
  77              	.LVL6:
  78              	.L1:
  79              		.loc 1 38 1 is_stmt 0 view .LVU12
  80 0032 08BD     		pop	{r3, pc}
  81              	.L6:
  82              		.align	2
  83              	.L5:
  84 0034 00440040 		.word	1073759232
  85              		.cfi_endproc
  86              	.LFE56:
  88              		.section	.text.usart_baudrate_set,"ax",%progbits
  89              		.align	1
  90              		.global	usart_baudrate_set
  91              		.syntax unified
  92              		.thumb
  93              		.thumb_func
  94              		.fpu softvfp
  96              	usart_baudrate_set:
  97              	.LVL7:
  98              	.LFB57:
  39:Drivers/GD32F1x0_standard_peripheral/Source/gd32f1x0_usart.c **** 
  40:Drivers/GD32F1x0_standard_peripheral/Source/gd32f1x0_usart.c **** /*!
  41:Drivers/GD32F1x0_standard_peripheral/Source/gd32f1x0_usart.c ****     \brief      configure USART baud rate value
  42:Drivers/GD32F1x0_standard_peripheral/Source/gd32f1x0_usart.c ****     \param[in]  usart_periph: USARTx(x=0,1)
  43:Drivers/GD32F1x0_standard_peripheral/Source/gd32f1x0_usart.c ****     \param[in]  baudval: baud rate value
  44:Drivers/GD32F1x0_standard_peripheral/Source/gd32f1x0_usart.c ****     \param[out] none
  45:Drivers/GD32F1x0_standard_peripheral/Source/gd32f1x0_usart.c ****     \retval     none
  46:Drivers/GD32F1x0_standard_peripheral/Source/gd32f1x0_usart.c **** */ 
  47:Drivers/GD32F1x0_standard_peripheral/Source/gd32f1x0_usart.c **** void usart_baudrate_set(uint32_t usart_periph, uint32_t baudval)
  48:Drivers/GD32F1x0_standard_peripheral/Source/gd32f1x0_usart.c **** {
  99              		.loc 1 48 1 is_stmt 1 view -0
 100              		.cfi_startproc
 101              		@ args = 0, pretend = 0, frame = 0
 102              		@ frame_needed = 0, uses_anonymous_args = 0
  49:Drivers/GD32F1x0_standard_peripheral/Source/gd32f1x0_usart.c ****     uint32_t uclk = 0U, intdiv = 0U, fradiv = 0U, udiv = 0U;
 103              		.loc 1 49 5 view .LVU14
  50:Drivers/GD32F1x0_standard_peripheral/Source/gd32f1x0_usart.c ****     switch(usart_periph){
 104              		.loc 1 50 5 view .LVU15
  48:Drivers/GD32F1x0_standard_peripheral/Source/gd32f1x0_usart.c ****     uint32_t uclk = 0U, intdiv = 0U, fradiv = 0U, udiv = 0U;
 105              		.loc 1 48 1 is_stmt 0 view .LVU16
 106 0000 38B5     		push	{r3, r4, r5, lr}
 107              	.LCFI3:
 108              		.cfi_def_cfa_offset 16
 109              		.cfi_offset 3, -16
 110              		.cfi_offset 4, -12
 111              		.cfi_offset 5, -8
 112              		.cfi_offset 14, -4
 113              		.loc 1 50 5 view .LVU17
 114 0002 134B     		ldr	r3, .L15
  48:Drivers/GD32F1x0_standard_peripheral/Source/gd32f1x0_usart.c ****     uint32_t uclk = 0U, intdiv = 0U, fradiv = 0U, udiv = 0U;
 115              		.loc 1 48 1 view .LVU18
 116 0004 0446     		mov	r4, r0
 117              		.loc 1 50 5 view .LVU19
ARM GAS  /tmp/cc8PYp20.s 			page 4


 118 0006 9842     		cmp	r0, r3
  48:Drivers/GD32F1x0_standard_peripheral/Source/gd32f1x0_usart.c ****     uint32_t uclk = 0U, intdiv = 0U, fradiv = 0U, udiv = 0U;
 119              		.loc 1 48 1 view .LVU20
 120 0008 0D46     		mov	r5, r1
 121              		.loc 1 50 5 view .LVU21
 122 000a 17D0     		beq	.L8
 123 000c 03F57443 		add	r3, r3, #62464
 124 0010 9842     		cmp	r0, r3
 125 0012 15D1     		bne	.L12
  51:Drivers/GD32F1x0_standard_peripheral/Source/gd32f1x0_usart.c ****     case USART0:
  52:Drivers/GD32F1x0_standard_peripheral/Source/gd32f1x0_usart.c ****          uclk = rcu_clock_freq_get(CK_USART);
 126              		.loc 1 52 10 is_stmt 1 view .LVU22
 127              		.loc 1 52 17 is_stmt 0 view .LVU23
 128 0014 0620     		movs	r0, #6
 129              	.LVL8:
 130              	.L13:
  53:Drivers/GD32F1x0_standard_peripheral/Source/gd32f1x0_usart.c ****          break;
  54:Drivers/GD32F1x0_standard_peripheral/Source/gd32f1x0_usart.c ****     case USART1:
  55:Drivers/GD32F1x0_standard_peripheral/Source/gd32f1x0_usart.c ****          uclk = rcu_clock_freq_get(CK_APB1);
 131              		.loc 1 55 17 view .LVU24
 132 0016 FFF7FEFF 		bl	rcu_clock_freq_get
 133              	.LVL9:
  56:Drivers/GD32F1x0_standard_peripheral/Source/gd32f1x0_usart.c ****          break;
 134              		.loc 1 56 10 is_stmt 1 view .LVU25
 135              	.L9:
  57:Drivers/GD32F1x0_standard_peripheral/Source/gd32f1x0_usart.c ****     default:
  58:Drivers/GD32F1x0_standard_peripheral/Source/gd32f1x0_usart.c ****          break;
  59:Drivers/GD32F1x0_standard_peripheral/Source/gd32f1x0_usart.c ****     }
  60:Drivers/GD32F1x0_standard_peripheral/Source/gd32f1x0_usart.c ****     if(USART_CTL0(usart_periph) & USART_CTL0_OVSMOD){
 136              		.loc 1 60 5 view .LVU26
 137              		.loc 1 60 8 is_stmt 0 view .LVU27
 138 001a 2268     		ldr	r2, [r4]
  61:Drivers/GD32F1x0_standard_peripheral/Source/gd32f1x0_usart.c ****         /* when oversampling by 8,configure the value of USART_BAUD */
  62:Drivers/GD32F1x0_standard_peripheral/Source/gd32f1x0_usart.c ****         udiv = ((2U*uclk)+baudval/2U)/baudval;
 139              		.loc 1 62 34 view .LVU28
 140 001c 6B08     		lsrs	r3, r5, #1
  60:Drivers/GD32F1x0_standard_peripheral/Source/gd32f1x0_usart.c ****         /* when oversampling by 8,configure the value of USART_BAUD */
 141              		.loc 1 60 7 view .LVU29
 142 001e 1204     		lsls	r2, r2, #16
 143 0020 10D5     		bpl	.L10
 144              		.loc 1 62 9 is_stmt 1 view .LVU30
 145              		.loc 1 62 26 is_stmt 0 view .LVU31
 146 0022 03EB4003 		add	r3, r3, r0, lsl #1
 147              		.loc 1 62 14 view .LVU32
 148 0026 B3FBF5F1 		udiv	r1, r3, r5
 149              	.LVL10:
  63:Drivers/GD32F1x0_standard_peripheral/Source/gd32f1x0_usart.c ****         intdiv = udiv & 0xfff0U;
 150              		.loc 1 63 9 is_stmt 1 view .LVU33
  64:Drivers/GD32F1x0_standard_peripheral/Source/gd32f1x0_usart.c ****         fradiv = (udiv>>1U) & 0x7U;
 151              		.loc 1 64 9 view .LVU34
  65:Drivers/GD32F1x0_standard_peripheral/Source/gd32f1x0_usart.c ****         USART_BAUD(usart_periph) = ((USART_BAUD_FRADIV | USART_BAUD_INTDIV) & (intdiv | fradiv));
 152              		.loc 1 65 9 view .LVU35
  64:Drivers/GD32F1x0_standard_peripheral/Source/gd32f1x0_usart.c ****         fradiv = (udiv>>1U) & 0x7U;
 153              		.loc 1 64 16 is_stmt 0 view .LVU36
 154 002a C1F34203 		ubfx	r3, r1, #1, #3
  63:Drivers/GD32F1x0_standard_peripheral/Source/gd32f1x0_usart.c ****         intdiv = udiv & 0xfff0U;
 155              		.loc 1 63 16 view .LVU37
ARM GAS  /tmp/cc8PYp20.s 			page 5


 156 002e 21F00F01 		bic	r1, r1, #15
 157              	.LVL11:
  63:Drivers/GD32F1x0_standard_peripheral/Source/gd32f1x0_usart.c ****         intdiv = udiv & 0xfff0U;
 158              		.loc 1 63 16 view .LVU38
 159 0032 0904     		lsls	r1, r1, #16
 160 0034 090C     		lsrs	r1, r1, #16
 161              		.loc 1 65 87 view .LVU39
 162 0036 1943     		orrs	r1, r1, r3
 163              	.LVL12:
 164              	.L14:
  66:Drivers/GD32F1x0_standard_peripheral/Source/gd32f1x0_usart.c ****     }else{
  67:Drivers/GD32F1x0_standard_peripheral/Source/gd32f1x0_usart.c ****         /* when oversampling by 16,configure the value of USART_BAUD */
  68:Drivers/GD32F1x0_standard_peripheral/Source/gd32f1x0_usart.c ****         udiv = (uclk+baudval/2U)/baudval;
  69:Drivers/GD32F1x0_standard_peripheral/Source/gd32f1x0_usart.c ****         intdiv = udiv & 0xfff0U;
  70:Drivers/GD32F1x0_standard_peripheral/Source/gd32f1x0_usart.c ****         fradiv = udiv & 0xfU;
  71:Drivers/GD32F1x0_standard_peripheral/Source/gd32f1x0_usart.c ****         USART_BAUD(usart_periph) = ((USART_BAUD_FRADIV | USART_BAUD_INTDIV) & (intdiv | fradiv));
 165              		.loc 1 71 34 view .LVU40
 166 0038 E160     		str	r1, [r4, #12]
  72:Drivers/GD32F1x0_standard_peripheral/Source/gd32f1x0_usart.c ****     }
  73:Drivers/GD32F1x0_standard_peripheral/Source/gd32f1x0_usart.c **** }
 167              		.loc 1 73 1 view .LVU41
 168 003a 38BD     		pop	{r3, r4, r5, pc}
 169              	.LVL13:
 170              	.L8:
  55:Drivers/GD32F1x0_standard_peripheral/Source/gd32f1x0_usart.c ****          break;
 171              		.loc 1 55 10 is_stmt 1 view .LVU42
  55:Drivers/GD32F1x0_standard_peripheral/Source/gd32f1x0_usart.c ****          break;
 172              		.loc 1 55 17 is_stmt 0 view .LVU43
 173 003c 0220     		movs	r0, #2
 174              	.LVL14:
  55:Drivers/GD32F1x0_standard_peripheral/Source/gd32f1x0_usart.c ****          break;
 175              		.loc 1 55 17 view .LVU44
 176 003e EAE7     		b	.L13
 177              	.LVL15:
 178              	.L12:
  50:Drivers/GD32F1x0_standard_peripheral/Source/gd32f1x0_usart.c ****     case USART0:
 179              		.loc 1 50 5 view .LVU45
 180 0040 0020     		movs	r0, #0
 181              	.LVL16:
  50:Drivers/GD32F1x0_standard_peripheral/Source/gd32f1x0_usart.c ****     case USART0:
 182              		.loc 1 50 5 view .LVU46
 183 0042 EAE7     		b	.L9
 184              	.LVL17:
 185              	.L10:
  68:Drivers/GD32F1x0_standard_peripheral/Source/gd32f1x0_usart.c ****         intdiv = udiv & 0xfff0U;
 186              		.loc 1 68 9 is_stmt 1 view .LVU47
  69:Drivers/GD32F1x0_standard_peripheral/Source/gd32f1x0_usart.c ****         fradiv = udiv & 0xfU;
 187              		.loc 1 69 9 view .LVU48
  70:Drivers/GD32F1x0_standard_peripheral/Source/gd32f1x0_usart.c ****         USART_BAUD(usart_periph) = ((USART_BAUD_FRADIV | USART_BAUD_INTDIV) & (intdiv | fradiv));
 188              		.loc 1 70 9 view .LVU49
  71:Drivers/GD32F1x0_standard_peripheral/Source/gd32f1x0_usart.c ****     }
 189              		.loc 1 71 9 view .LVU50
  68:Drivers/GD32F1x0_standard_peripheral/Source/gd32f1x0_usart.c ****         intdiv = udiv & 0xfff0U;
 190              		.loc 1 68 21 is_stmt 0 view .LVU51
 191 0044 0344     		add	r3, r3, r0
 192              	.LVL18:
  68:Drivers/GD32F1x0_standard_peripheral/Source/gd32f1x0_usart.c ****         intdiv = udiv & 0xfff0U;
ARM GAS  /tmp/cc8PYp20.s 			page 6


 193              		.loc 1 68 14 view .LVU52
 194 0046 B3FBF5F1 		udiv	r1, r3, r5
 195              	.LVL19:
  71:Drivers/GD32F1x0_standard_peripheral/Source/gd32f1x0_usart.c ****     }
 196              		.loc 1 71 87 view .LVU53
 197 004a 89B2     		uxth	r1, r1
 198              	.LVL20:
  71:Drivers/GD32F1x0_standard_peripheral/Source/gd32f1x0_usart.c ****     }
 199              		.loc 1 71 87 view .LVU54
 200 004c F4E7     		b	.L14
 201              	.L16:
 202 004e 00BF     		.align	2
 203              	.L15:
 204 0050 00440040 		.word	1073759232
 205              		.cfi_endproc
 206              	.LFE57:
 208              		.section	.text.usart_parity_config,"ax",%progbits
 209              		.align	1
 210              		.global	usart_parity_config
 211              		.syntax unified
 212              		.thumb
 213              		.thumb_func
 214              		.fpu softvfp
 216              	usart_parity_config:
 217              	.LVL21:
 218              	.LFB58:
  74:Drivers/GD32F1x0_standard_peripheral/Source/gd32f1x0_usart.c **** 
  75:Drivers/GD32F1x0_standard_peripheral/Source/gd32f1x0_usart.c **** /*!
  76:Drivers/GD32F1x0_standard_peripheral/Source/gd32f1x0_usart.c ****     \brief     configure USART parity
  77:Drivers/GD32F1x0_standard_peripheral/Source/gd32f1x0_usart.c ****     \param[in] usart_periph: USARTx(x=0,1)
  78:Drivers/GD32F1x0_standard_peripheral/Source/gd32f1x0_usart.c ****     \param[in] paritycfg: USART parity configure
  79:Drivers/GD32F1x0_standard_peripheral/Source/gd32f1x0_usart.c ****       \arg       USART_PM_NONE: no parity
  80:Drivers/GD32F1x0_standard_peripheral/Source/gd32f1x0_usart.c ****       \arg       USART_PM_ODD:  odd parity
  81:Drivers/GD32F1x0_standard_peripheral/Source/gd32f1x0_usart.c ****       \arg       USART_PM_EVEN: even parity
  82:Drivers/GD32F1x0_standard_peripheral/Source/gd32f1x0_usart.c ****     \param[out] none
  83:Drivers/GD32F1x0_standard_peripheral/Source/gd32f1x0_usart.c ****     \retval     none
  84:Drivers/GD32F1x0_standard_peripheral/Source/gd32f1x0_usart.c **** */
  85:Drivers/GD32F1x0_standard_peripheral/Source/gd32f1x0_usart.c **** void usart_parity_config(uint32_t usart_periph, uint32_t paritycfg)
  86:Drivers/GD32F1x0_standard_peripheral/Source/gd32f1x0_usart.c **** {
 219              		.loc 1 86 1 is_stmt 1 view -0
 220              		.cfi_startproc
 221              		@ args = 0, pretend = 0, frame = 0
 222              		@ frame_needed = 0, uses_anonymous_args = 0
 223              		@ link register save eliminated.
  87:Drivers/GD32F1x0_standard_peripheral/Source/gd32f1x0_usart.c ****     /* disable USART */
  88:Drivers/GD32F1x0_standard_peripheral/Source/gd32f1x0_usart.c ****     USART_CTL0(usart_periph) &= ~(USART_CTL0_UEN);
 224              		.loc 1 88 5 view .LVU56
 225              		.loc 1 88 30 is_stmt 0 view .LVU57
 226 0000 0268     		ldr	r2, [r0]
 227 0002 22F00102 		bic	r2, r2, #1
 228 0006 0260     		str	r2, [r0]
  89:Drivers/GD32F1x0_standard_peripheral/Source/gd32f1x0_usart.c ****     /* clear USART_CTL0 PM,PCEN bits */
  90:Drivers/GD32F1x0_standard_peripheral/Source/gd32f1x0_usart.c ****     USART_CTL0(usart_periph) &= ~(USART_CTL0_PM | USART_CTL0_PCEN);
 229              		.loc 1 90 5 is_stmt 1 view .LVU58
 230              		.loc 1 90 30 is_stmt 0 view .LVU59
 231 0008 0268     		ldr	r2, [r0]
 232 000a 22F4C062 		bic	r2, r2, #1536
ARM GAS  /tmp/cc8PYp20.s 			page 7


 233 000e 0260     		str	r2, [r0]
  91:Drivers/GD32F1x0_standard_peripheral/Source/gd32f1x0_usart.c ****     /* configure USART parity mode */
  92:Drivers/GD32F1x0_standard_peripheral/Source/gd32f1x0_usart.c ****     USART_CTL0(usart_periph) |= paritycfg;
 234              		.loc 1 92 5 is_stmt 1 view .LVU60
 235              		.loc 1 92 30 is_stmt 0 view .LVU61
 236 0010 0368     		ldr	r3, [r0]
 237 0012 0B43     		orrs	r3, r3, r1
 238 0014 0360     		str	r3, [r0]
  93:Drivers/GD32F1x0_standard_peripheral/Source/gd32f1x0_usart.c **** }
 239              		.loc 1 93 1 view .LVU62
 240 0016 7047     		bx	lr
 241              		.cfi_endproc
 242              	.LFE58:
 244              		.section	.text.usart_word_length_set,"ax",%progbits
 245              		.align	1
 246              		.global	usart_word_length_set
 247              		.syntax unified
 248              		.thumb
 249              		.thumb_func
 250              		.fpu softvfp
 252              	usart_word_length_set:
 253              	.LVL22:
 254              	.LFB59:
  94:Drivers/GD32F1x0_standard_peripheral/Source/gd32f1x0_usart.c **** 
  95:Drivers/GD32F1x0_standard_peripheral/Source/gd32f1x0_usart.c **** /*!
  96:Drivers/GD32F1x0_standard_peripheral/Source/gd32f1x0_usart.c ****     \brief     configure USART word length
  97:Drivers/GD32F1x0_standard_peripheral/Source/gd32f1x0_usart.c ****     \param[in] usart_periph: USARTx(x=0,1)
  98:Drivers/GD32F1x0_standard_peripheral/Source/gd32f1x0_usart.c ****     \param[in] wlen: USART word length configure
  99:Drivers/GD32F1x0_standard_peripheral/Source/gd32f1x0_usart.c ****       \arg       USART_WL_8BIT: 8 bits
 100:Drivers/GD32F1x0_standard_peripheral/Source/gd32f1x0_usart.c ****       \arg       USART_WL_9BIT: 9 bits
 101:Drivers/GD32F1x0_standard_peripheral/Source/gd32f1x0_usart.c ****     \param[out] none
 102:Drivers/GD32F1x0_standard_peripheral/Source/gd32f1x0_usart.c ****     \retval     none
 103:Drivers/GD32F1x0_standard_peripheral/Source/gd32f1x0_usart.c **** */
 104:Drivers/GD32F1x0_standard_peripheral/Source/gd32f1x0_usart.c **** void usart_word_length_set(uint32_t usart_periph, uint32_t wlen)
 105:Drivers/GD32F1x0_standard_peripheral/Source/gd32f1x0_usart.c **** {
 255              		.loc 1 105 1 is_stmt 1 view -0
 256              		.cfi_startproc
 257              		@ args = 0, pretend = 0, frame = 0
 258              		@ frame_needed = 0, uses_anonymous_args = 0
 259              		@ link register save eliminated.
 106:Drivers/GD32F1x0_standard_peripheral/Source/gd32f1x0_usart.c ****     /* disable USART */
 107:Drivers/GD32F1x0_standard_peripheral/Source/gd32f1x0_usart.c ****     USART_CTL0(usart_periph) &= ~(USART_CTL0_UEN);
 260              		.loc 1 107 5 view .LVU64
 261              		.loc 1 107 30 is_stmt 0 view .LVU65
 262 0000 0268     		ldr	r2, [r0]
 263 0002 22F00102 		bic	r2, r2, #1
 264 0006 0260     		str	r2, [r0]
 108:Drivers/GD32F1x0_standard_peripheral/Source/gd32f1x0_usart.c ****     /* clear USART_CTL0 WL bit */
 109:Drivers/GD32F1x0_standard_peripheral/Source/gd32f1x0_usart.c ****     USART_CTL0(usart_periph) &= ~USART_CTL0_WL;
 265              		.loc 1 109 5 is_stmt 1 view .LVU66
 266              		.loc 1 109 30 is_stmt 0 view .LVU67
 267 0008 0268     		ldr	r2, [r0]
 268 000a 22F48052 		bic	r2, r2, #4096
 269 000e 0260     		str	r2, [r0]
 110:Drivers/GD32F1x0_standard_peripheral/Source/gd32f1x0_usart.c ****     /* configure USART word length */
 111:Drivers/GD32F1x0_standard_peripheral/Source/gd32f1x0_usart.c ****     USART_CTL0(usart_periph) |= wlen;
 270              		.loc 1 111 5 is_stmt 1 view .LVU68
ARM GAS  /tmp/cc8PYp20.s 			page 8


 271              		.loc 1 111 30 is_stmt 0 view .LVU69
 272 0010 0368     		ldr	r3, [r0]
 273 0012 0B43     		orrs	r3, r3, r1
 274 0014 0360     		str	r3, [r0]
 112:Drivers/GD32F1x0_standard_peripheral/Source/gd32f1x0_usart.c **** }
 275              		.loc 1 112 1 view .LVU70
 276 0016 7047     		bx	lr
 277              		.cfi_endproc
 278              	.LFE59:
 280              		.section	.text.usart_stop_bit_set,"ax",%progbits
 281              		.align	1
 282              		.global	usart_stop_bit_set
 283              		.syntax unified
 284              		.thumb
 285              		.thumb_func
 286              		.fpu softvfp
 288              	usart_stop_bit_set:
 289              	.LVL23:
 290              	.LFB60:
 113:Drivers/GD32F1x0_standard_peripheral/Source/gd32f1x0_usart.c **** 
 114:Drivers/GD32F1x0_standard_peripheral/Source/gd32f1x0_usart.c **** /*!
 115:Drivers/GD32F1x0_standard_peripheral/Source/gd32f1x0_usart.c ****     \brief     configure USART stop bit length
 116:Drivers/GD32F1x0_standard_peripheral/Source/gd32f1x0_usart.c ****     \param[in] usart_periph: USARTx(x=0,1)
 117:Drivers/GD32F1x0_standard_peripheral/Source/gd32f1x0_usart.c ****     \param[in] stblen: USART stop bit configure
 118:Drivers/GD32F1x0_standard_peripheral/Source/gd32f1x0_usart.c ****       \arg       USART_STB_1BIT:   1 bit
 119:Drivers/GD32F1x0_standard_peripheral/Source/gd32f1x0_usart.c ****       \arg       USART_STB_2BIT:   2 bits
 120:Drivers/GD32F1x0_standard_peripheral/Source/gd32f1x0_usart.c ****       \arg       USART_STB_1_5BIT: 1.5bit
 121:Drivers/GD32F1x0_standard_peripheral/Source/gd32f1x0_usart.c ****     \param[out] none
 122:Drivers/GD32F1x0_standard_peripheral/Source/gd32f1x0_usart.c ****     \retval     none
 123:Drivers/GD32F1x0_standard_peripheral/Source/gd32f1x0_usart.c **** */
 124:Drivers/GD32F1x0_standard_peripheral/Source/gd32f1x0_usart.c **** void usart_stop_bit_set(uint32_t usart_periph, uint32_t stblen)
 125:Drivers/GD32F1x0_standard_peripheral/Source/gd32f1x0_usart.c **** {
 291              		.loc 1 125 1 is_stmt 1 view -0
 292              		.cfi_startproc
 293              		@ args = 0, pretend = 0, frame = 0
 294              		@ frame_needed = 0, uses_anonymous_args = 0
 295              		@ link register save eliminated.
 126:Drivers/GD32F1x0_standard_peripheral/Source/gd32f1x0_usart.c ****     /* disable USART */
 127:Drivers/GD32F1x0_standard_peripheral/Source/gd32f1x0_usart.c ****     USART_CTL0(usart_periph) &= ~(USART_CTL0_UEN);
 296              		.loc 1 127 5 view .LVU72
 297              		.loc 1 127 30 is_stmt 0 view .LVU73
 298 0000 0268     		ldr	r2, [r0]
 299 0002 22F00102 		bic	r2, r2, #1
 300 0006 0260     		str	r2, [r0]
 128:Drivers/GD32F1x0_standard_peripheral/Source/gd32f1x0_usart.c ****     /* clear USART_CTL1 STB bits */
 129:Drivers/GD32F1x0_standard_peripheral/Source/gd32f1x0_usart.c ****     USART_CTL1(usart_periph) &= ~USART_CTL1_STB;
 301              		.loc 1 129 5 is_stmt 1 view .LVU74
 302              		.loc 1 129 30 is_stmt 0 view .LVU75
 303 0008 4268     		ldr	r2, [r0, #4]
 304 000a 22F44052 		bic	r2, r2, #12288
 305 000e 4260     		str	r2, [r0, #4]
 130:Drivers/GD32F1x0_standard_peripheral/Source/gd32f1x0_usart.c ****     USART_CTL1(usart_periph) |= stblen;
 306              		.loc 1 130 5 is_stmt 1 view .LVU76
 307              		.loc 1 130 30 is_stmt 0 view .LVU77
 308 0010 4368     		ldr	r3, [r0, #4]
 309 0012 0B43     		orrs	r3, r3, r1
 310 0014 4360     		str	r3, [r0, #4]
ARM GAS  /tmp/cc8PYp20.s 			page 9


 131:Drivers/GD32F1x0_standard_peripheral/Source/gd32f1x0_usart.c **** }
 311              		.loc 1 131 1 view .LVU78
 312 0016 7047     		bx	lr
 313              		.cfi_endproc
 314              	.LFE60:
 316              		.section	.text.usart_enable,"ax",%progbits
 317              		.align	1
 318              		.global	usart_enable
 319              		.syntax unified
 320              		.thumb
 321              		.thumb_func
 322              		.fpu softvfp
 324              	usart_enable:
 325              	.LVL24:
 326              	.LFB61:
 132:Drivers/GD32F1x0_standard_peripheral/Source/gd32f1x0_usart.c **** 
 133:Drivers/GD32F1x0_standard_peripheral/Source/gd32f1x0_usart.c **** /*!
 134:Drivers/GD32F1x0_standard_peripheral/Source/gd32f1x0_usart.c ****     \brief      enable USART
 135:Drivers/GD32F1x0_standard_peripheral/Source/gd32f1x0_usart.c ****     \param[in]  usart_periph: USARTx(x=0,1)
 136:Drivers/GD32F1x0_standard_peripheral/Source/gd32f1x0_usart.c ****     \param[out] none
 137:Drivers/GD32F1x0_standard_peripheral/Source/gd32f1x0_usart.c ****     \retval     none
 138:Drivers/GD32F1x0_standard_peripheral/Source/gd32f1x0_usart.c **** */
 139:Drivers/GD32F1x0_standard_peripheral/Source/gd32f1x0_usart.c **** void usart_enable(uint32_t usart_periph)
 140:Drivers/GD32F1x0_standard_peripheral/Source/gd32f1x0_usart.c **** {
 327              		.loc 1 140 1 is_stmt 1 view -0
 328              		.cfi_startproc
 329              		@ args = 0, pretend = 0, frame = 0
 330              		@ frame_needed = 0, uses_anonymous_args = 0
 331              		@ link register save eliminated.
 141:Drivers/GD32F1x0_standard_peripheral/Source/gd32f1x0_usart.c ****     USART_CTL0(usart_periph) |= USART_CTL0_UEN;
 332              		.loc 1 141 5 view .LVU80
 333              		.loc 1 141 30 is_stmt 0 view .LVU81
 334 0000 0368     		ldr	r3, [r0]
 335 0002 43F00103 		orr	r3, r3, #1
 336 0006 0360     		str	r3, [r0]
 142:Drivers/GD32F1x0_standard_peripheral/Source/gd32f1x0_usart.c **** }
 337              		.loc 1 142 1 view .LVU82
 338 0008 7047     		bx	lr
 339              		.cfi_endproc
 340              	.LFE61:
 342              		.section	.text.usart_disable,"ax",%progbits
 343              		.align	1
 344              		.global	usart_disable
 345              		.syntax unified
 346              		.thumb
 347              		.thumb_func
 348              		.fpu softvfp
 350              	usart_disable:
 351              	.LVL25:
 352              	.LFB62:
 143:Drivers/GD32F1x0_standard_peripheral/Source/gd32f1x0_usart.c **** 
 144:Drivers/GD32F1x0_standard_peripheral/Source/gd32f1x0_usart.c **** /*!
 145:Drivers/GD32F1x0_standard_peripheral/Source/gd32f1x0_usart.c ****     \brief     disable USART
 146:Drivers/GD32F1x0_standard_peripheral/Source/gd32f1x0_usart.c ****     \param[in] usart_periph: USARTx(x=0,1)
 147:Drivers/GD32F1x0_standard_peripheral/Source/gd32f1x0_usart.c ****     \param[out] none
 148:Drivers/GD32F1x0_standard_peripheral/Source/gd32f1x0_usart.c ****     \retval     none
 149:Drivers/GD32F1x0_standard_peripheral/Source/gd32f1x0_usart.c **** */
ARM GAS  /tmp/cc8PYp20.s 			page 10


 150:Drivers/GD32F1x0_standard_peripheral/Source/gd32f1x0_usart.c **** void usart_disable(uint32_t usart_periph)
 151:Drivers/GD32F1x0_standard_peripheral/Source/gd32f1x0_usart.c **** {
 353              		.loc 1 151 1 is_stmt 1 view -0
 354              		.cfi_startproc
 355              		@ args = 0, pretend = 0, frame = 0
 356              		@ frame_needed = 0, uses_anonymous_args = 0
 357              		@ link register save eliminated.
 152:Drivers/GD32F1x0_standard_peripheral/Source/gd32f1x0_usart.c ****     USART_CTL0(usart_periph) &= ~(USART_CTL0_UEN);
 358              		.loc 1 152 5 view .LVU84
 359              		.loc 1 152 30 is_stmt 0 view .LVU85
 360 0000 0368     		ldr	r3, [r0]
 361 0002 23F00103 		bic	r3, r3, #1
 362 0006 0360     		str	r3, [r0]
 153:Drivers/GD32F1x0_standard_peripheral/Source/gd32f1x0_usart.c **** }
 363              		.loc 1 153 1 view .LVU86
 364 0008 7047     		bx	lr
 365              		.cfi_endproc
 366              	.LFE62:
 368              		.section	.text.usart_transmit_config,"ax",%progbits
 369              		.align	1
 370              		.global	usart_transmit_config
 371              		.syntax unified
 372              		.thumb
 373              		.thumb_func
 374              		.fpu softvfp
 376              	usart_transmit_config:
 377              	.LVL26:
 378              	.LFB63:
 154:Drivers/GD32F1x0_standard_peripheral/Source/gd32f1x0_usart.c **** 
 155:Drivers/GD32F1x0_standard_peripheral/Source/gd32f1x0_usart.c **** /*!
 156:Drivers/GD32F1x0_standard_peripheral/Source/gd32f1x0_usart.c ****     \brief      configure USART transmitter
 157:Drivers/GD32F1x0_standard_peripheral/Source/gd32f1x0_usart.c ****     \param[in]  usart_periph: USARTx(x=0,1)
 158:Drivers/GD32F1x0_standard_peripheral/Source/gd32f1x0_usart.c ****     \param[in]  txconfig: enable or disable USART transmitter
 159:Drivers/GD32F1x0_standard_peripheral/Source/gd32f1x0_usart.c ****       \arg        USART_TRANSMIT_ENABLE: enable USART transmission
 160:Drivers/GD32F1x0_standard_peripheral/Source/gd32f1x0_usart.c ****       \arg        USART_TRANSMIT_DISABLE: enable USART transmission
 161:Drivers/GD32F1x0_standard_peripheral/Source/gd32f1x0_usart.c ****     \param[out] none
 162:Drivers/GD32F1x0_standard_peripheral/Source/gd32f1x0_usart.c ****     \retval     none
 163:Drivers/GD32F1x0_standard_peripheral/Source/gd32f1x0_usart.c **** */
 164:Drivers/GD32F1x0_standard_peripheral/Source/gd32f1x0_usart.c **** void usart_transmit_config(uint32_t usart_periph, uint32_t txconfig)
 165:Drivers/GD32F1x0_standard_peripheral/Source/gd32f1x0_usart.c **** {
 379              		.loc 1 165 1 is_stmt 1 view -0
 380              		.cfi_startproc
 381              		@ args = 0, pretend = 0, frame = 0
 382              		@ frame_needed = 0, uses_anonymous_args = 0
 383              		@ link register save eliminated.
 166:Drivers/GD32F1x0_standard_peripheral/Source/gd32f1x0_usart.c ****     USART_CTL0(usart_periph) &= ~USART_CTL0_TEN;
 384              		.loc 1 166 5 view .LVU88
 385              		.loc 1 166 30 is_stmt 0 view .LVU89
 386 0000 0268     		ldr	r2, [r0]
 387 0002 22F00802 		bic	r2, r2, #8
 388 0006 0260     		str	r2, [r0]
 167:Drivers/GD32F1x0_standard_peripheral/Source/gd32f1x0_usart.c ****     /* configure transfer mode */
 168:Drivers/GD32F1x0_standard_peripheral/Source/gd32f1x0_usart.c ****     USART_CTL0(usart_periph) |= txconfig;
 389              		.loc 1 168 5 is_stmt 1 view .LVU90
 390              		.loc 1 168 30 is_stmt 0 view .LVU91
 391 0008 0368     		ldr	r3, [r0]
 392 000a 0B43     		orrs	r3, r3, r1
ARM GAS  /tmp/cc8PYp20.s 			page 11


 393 000c 0360     		str	r3, [r0]
 169:Drivers/GD32F1x0_standard_peripheral/Source/gd32f1x0_usart.c **** }
 394              		.loc 1 169 1 view .LVU92
 395 000e 7047     		bx	lr
 396              		.cfi_endproc
 397              	.LFE63:
 399              		.section	.text.usart_receive_config,"ax",%progbits
 400              		.align	1
 401              		.global	usart_receive_config
 402              		.syntax unified
 403              		.thumb
 404              		.thumb_func
 405              		.fpu softvfp
 407              	usart_receive_config:
 408              	.LVL27:
 409              	.LFB64:
 170:Drivers/GD32F1x0_standard_peripheral/Source/gd32f1x0_usart.c **** 
 171:Drivers/GD32F1x0_standard_peripheral/Source/gd32f1x0_usart.c **** /*!
 172:Drivers/GD32F1x0_standard_peripheral/Source/gd32f1x0_usart.c ****     \brief      configure USART receiver
 173:Drivers/GD32F1x0_standard_peripheral/Source/gd32f1x0_usart.c ****     \param[in]  usart_periph: USARTx(x=0,1)
 174:Drivers/GD32F1x0_standard_peripheral/Source/gd32f1x0_usart.c ****     \param[in]  rxconfig: enable or disable USART receiver
 175:Drivers/GD32F1x0_standard_peripheral/Source/gd32f1x0_usart.c ****       \arg        USART_RECEIVE_ENABLE: enable USART reception
 176:Drivers/GD32F1x0_standard_peripheral/Source/gd32f1x0_usart.c ****       \arg        USART_RECEIVE_DISABLE: disable USART reception
 177:Drivers/GD32F1x0_standard_peripheral/Source/gd32f1x0_usart.c ****     \param[out] none
 178:Drivers/GD32F1x0_standard_peripheral/Source/gd32f1x0_usart.c ****     \retval     none
 179:Drivers/GD32F1x0_standard_peripheral/Source/gd32f1x0_usart.c **** */
 180:Drivers/GD32F1x0_standard_peripheral/Source/gd32f1x0_usart.c **** void usart_receive_config(uint32_t usart_periph, uint32_t rxconfig)
 181:Drivers/GD32F1x0_standard_peripheral/Source/gd32f1x0_usart.c **** {
 410              		.loc 1 181 1 is_stmt 1 view -0
 411              		.cfi_startproc
 412              		@ args = 0, pretend = 0, frame = 0
 413              		@ frame_needed = 0, uses_anonymous_args = 0
 414              		@ link register save eliminated.
 182:Drivers/GD32F1x0_standard_peripheral/Source/gd32f1x0_usart.c ****     USART_CTL0(usart_periph) &= ~USART_CTL0_REN;
 415              		.loc 1 182 5 view .LVU94
 416              		.loc 1 182 30 is_stmt 0 view .LVU95
 417 0000 0268     		ldr	r2, [r0]
 418 0002 22F00402 		bic	r2, r2, #4
 419 0006 0260     		str	r2, [r0]
 183:Drivers/GD32F1x0_standard_peripheral/Source/gd32f1x0_usart.c ****     /* configure receiver mode */
 184:Drivers/GD32F1x0_standard_peripheral/Source/gd32f1x0_usart.c ****     USART_CTL0(usart_periph) |= rxconfig;
 420              		.loc 1 184 5 is_stmt 1 view .LVU96
 421              		.loc 1 184 30 is_stmt 0 view .LVU97
 422 0008 0368     		ldr	r3, [r0]
 423 000a 0B43     		orrs	r3, r3, r1
 424 000c 0360     		str	r3, [r0]
 185:Drivers/GD32F1x0_standard_peripheral/Source/gd32f1x0_usart.c **** }
 425              		.loc 1 185 1 view .LVU98
 426 000e 7047     		bx	lr
 427              		.cfi_endproc
 428              	.LFE64:
 430              		.section	.text.usart_data_transmit,"ax",%progbits
 431              		.align	1
 432              		.global	usart_data_transmit
 433              		.syntax unified
 434              		.thumb
 435              		.thumb_func
ARM GAS  /tmp/cc8PYp20.s 			page 12


 436              		.fpu softvfp
 438              	usart_data_transmit:
 439              	.LVL28:
 440              	.LFB65:
 186:Drivers/GD32F1x0_standard_peripheral/Source/gd32f1x0_usart.c **** 
 187:Drivers/GD32F1x0_standard_peripheral/Source/gd32f1x0_usart.c **** /*!
 188:Drivers/GD32F1x0_standard_peripheral/Source/gd32f1x0_usart.c ****     \brief      USART transmit data function
 189:Drivers/GD32F1x0_standard_peripheral/Source/gd32f1x0_usart.c ****     \param[in]  usart_periph: USARTx(x=0,1)
 190:Drivers/GD32F1x0_standard_peripheral/Source/gd32f1x0_usart.c ****     \param[in]  data: data of transmission
 191:Drivers/GD32F1x0_standard_peripheral/Source/gd32f1x0_usart.c ****     \param[out] none
 192:Drivers/GD32F1x0_standard_peripheral/Source/gd32f1x0_usart.c ****     \retval     none
 193:Drivers/GD32F1x0_standard_peripheral/Source/gd32f1x0_usart.c **** */
 194:Drivers/GD32F1x0_standard_peripheral/Source/gd32f1x0_usart.c **** void usart_data_transmit(uint32_t usart_periph, uint32_t data)
 195:Drivers/GD32F1x0_standard_peripheral/Source/gd32f1x0_usart.c **** {
 441              		.loc 1 195 1 is_stmt 1 view -0
 442              		.cfi_startproc
 443              		@ args = 0, pretend = 0, frame = 0
 444              		@ frame_needed = 0, uses_anonymous_args = 0
 445              		@ link register save eliminated.
 196:Drivers/GD32F1x0_standard_peripheral/Source/gd32f1x0_usart.c ****     USART_TDATA(usart_periph) = (USART_TDATA_TDATA & data);
 446              		.loc 1 196 5 view .LVU100
 447              		.loc 1 196 52 is_stmt 0 view .LVU101
 448 0000 C1F30801 		ubfx	r1, r1, #0, #9
 449              	.LVL29:
 450              		.loc 1 196 31 view .LVU102
 451 0004 8162     		str	r1, [r0, #40]
 197:Drivers/GD32F1x0_standard_peripheral/Source/gd32f1x0_usart.c **** }
 452              		.loc 1 197 1 view .LVU103
 453 0006 7047     		bx	lr
 454              		.cfi_endproc
 455              	.LFE65:
 457              		.section	.text.usart_data_receive,"ax",%progbits
 458              		.align	1
 459              		.global	usart_data_receive
 460              		.syntax unified
 461              		.thumb
 462              		.thumb_func
 463              		.fpu softvfp
 465              	usart_data_receive:
 466              	.LVL30:
 467              	.LFB66:
 198:Drivers/GD32F1x0_standard_peripheral/Source/gd32f1x0_usart.c **** 
 199:Drivers/GD32F1x0_standard_peripheral/Source/gd32f1x0_usart.c **** /*!
 200:Drivers/GD32F1x0_standard_peripheral/Source/gd32f1x0_usart.c ****     \brief      USART receive data function
 201:Drivers/GD32F1x0_standard_peripheral/Source/gd32f1x0_usart.c ****     \param[in]  usart_periph: USARTx(x=0,1)
 202:Drivers/GD32F1x0_standard_peripheral/Source/gd32f1x0_usart.c ****     \param[out] none
 203:Drivers/GD32F1x0_standard_peripheral/Source/gd32f1x0_usart.c ****     \retval     data of received
 204:Drivers/GD32F1x0_standard_peripheral/Source/gd32f1x0_usart.c **** */
 205:Drivers/GD32F1x0_standard_peripheral/Source/gd32f1x0_usart.c **** uint16_t usart_data_receive(uint32_t usart_periph)
 206:Drivers/GD32F1x0_standard_peripheral/Source/gd32f1x0_usart.c **** {
 468              		.loc 1 206 1 is_stmt 1 view -0
 469              		.cfi_startproc
 470              		@ args = 0, pretend = 0, frame = 0
 471              		@ frame_needed = 0, uses_anonymous_args = 0
 472              		@ link register save eliminated.
 207:Drivers/GD32F1x0_standard_peripheral/Source/gd32f1x0_usart.c ****     return (uint16_t)(GET_BITS(USART_RDATA(usart_periph), 0U, 8U));
 473              		.loc 1 207 5 view .LVU105
ARM GAS  /tmp/cc8PYp20.s 			page 13


 474              		.loc 1 207 23 is_stmt 0 view .LVU106
 475 0000 406A     		ldr	r0, [r0, #36]
 476              	.LVL31:
 208:Drivers/GD32F1x0_standard_peripheral/Source/gd32f1x0_usart.c **** }
 477              		.loc 1 208 1 view .LVU107
 478 0002 C0F30800 		ubfx	r0, r0, #0, #9
 479 0006 7047     		bx	lr
 480              		.cfi_endproc
 481              	.LFE66:
 483              		.section	.text.usart_data_first_config,"ax",%progbits
 484              		.align	1
 485              		.global	usart_data_first_config
 486              		.syntax unified
 487              		.thumb
 488              		.thumb_func
 489              		.fpu softvfp
 491              	usart_data_first_config:
 492              	.LVL32:
 493              	.LFB67:
 209:Drivers/GD32F1x0_standard_peripheral/Source/gd32f1x0_usart.c **** 
 210:Drivers/GD32F1x0_standard_peripheral/Source/gd32f1x0_usart.c **** /*!
 211:Drivers/GD32F1x0_standard_peripheral/Source/gd32f1x0_usart.c ****     \brief      data is transmitted/received with the LSB/MSB first
 212:Drivers/GD32F1x0_standard_peripheral/Source/gd32f1x0_usart.c ****     \param[in]  usart_periph: USARTx(x=0,1)
 213:Drivers/GD32F1x0_standard_peripheral/Source/gd32f1x0_usart.c ****     \param[in]  msbf: LSB/MSB
 214:Drivers/GD32F1x0_standard_peripheral/Source/gd32f1x0_usart.c ****       \arg        USART_MSBF_LSB: LSB first
 215:Drivers/GD32F1x0_standard_peripheral/Source/gd32f1x0_usart.c ****       \arg        USART_MSBF_MSB: MSB first
 216:Drivers/GD32F1x0_standard_peripheral/Source/gd32f1x0_usart.c ****     \param[out] none
 217:Drivers/GD32F1x0_standard_peripheral/Source/gd32f1x0_usart.c ****     \retval     none
 218:Drivers/GD32F1x0_standard_peripheral/Source/gd32f1x0_usart.c **** */
 219:Drivers/GD32F1x0_standard_peripheral/Source/gd32f1x0_usart.c **** void usart_data_first_config(uint32_t usart_periph, uint32_t msbf)
 220:Drivers/GD32F1x0_standard_peripheral/Source/gd32f1x0_usart.c **** {
 494              		.loc 1 220 1 is_stmt 1 view -0
 495              		.cfi_startproc
 496              		@ args = 0, pretend = 0, frame = 0
 497              		@ frame_needed = 0, uses_anonymous_args = 0
 498              		@ link register save eliminated.
 221:Drivers/GD32F1x0_standard_peripheral/Source/gd32f1x0_usart.c ****     USART_CTL0(usart_periph) &= ~(USART_CTL0_UEN);
 499              		.loc 1 221 5 view .LVU109
 500              		.loc 1 221 30 is_stmt 0 view .LVU110
 501 0000 0368     		ldr	r3, [r0]
 222:Drivers/GD32F1x0_standard_peripheral/Source/gd32f1x0_usart.c ****     /* configure LSB or MSB first */
 223:Drivers/GD32F1x0_standard_peripheral/Source/gd32f1x0_usart.c ****     USART_CTL1(usart_periph) &= ~(USART_CTL1_MSBF); 
 224:Drivers/GD32F1x0_standard_peripheral/Source/gd32f1x0_usart.c ****     USART_CTL1(usart_periph) |= (USART_CTL1_MSBF & msbf) ;
 502              		.loc 1 224 50 view .LVU111
 503 0002 01F40021 		and	r1, r1, #524288
 504              	.LVL33:
 221:Drivers/GD32F1x0_standard_peripheral/Source/gd32f1x0_usart.c ****     USART_CTL0(usart_periph) &= ~(USART_CTL0_UEN);
 505              		.loc 1 221 30 view .LVU112
 506 0006 23F00103 		bic	r3, r3, #1
 507 000a 0360     		str	r3, [r0]
 223:Drivers/GD32F1x0_standard_peripheral/Source/gd32f1x0_usart.c ****     USART_CTL1(usart_periph) |= (USART_CTL1_MSBF & msbf) ;
 508              		.loc 1 223 5 is_stmt 1 view .LVU113
 223:Drivers/GD32F1x0_standard_peripheral/Source/gd32f1x0_usart.c ****     USART_CTL1(usart_periph) |= (USART_CTL1_MSBF & msbf) ;
 509              		.loc 1 223 30 is_stmt 0 view .LVU114
 510 000c 4368     		ldr	r3, [r0, #4]
 511 000e 23F40023 		bic	r3, r3, #524288
 512 0012 4360     		str	r3, [r0, #4]
ARM GAS  /tmp/cc8PYp20.s 			page 14


 513              		.loc 1 224 5 is_stmt 1 view .LVU115
 514              		.loc 1 224 30 is_stmt 0 view .LVU116
 515 0014 4368     		ldr	r3, [r0, #4]
 516 0016 1943     		orrs	r1, r1, r3
 517 0018 4160     		str	r1, [r0, #4]
 225:Drivers/GD32F1x0_standard_peripheral/Source/gd32f1x0_usart.c **** }
 518              		.loc 1 225 1 view .LVU117
 519 001a 7047     		bx	lr
 520              		.cfi_endproc
 521              	.LFE67:
 523              		.section	.text.usart_invert_config,"ax",%progbits
 524              		.align	1
 525              		.global	usart_invert_config
 526              		.syntax unified
 527              		.thumb
 528              		.thumb_func
 529              		.fpu softvfp
 531              	usart_invert_config:
 532              	.LVL34:
 533              	.LFB68:
 226:Drivers/GD32F1x0_standard_peripheral/Source/gd32f1x0_usart.c **** 
 227:Drivers/GD32F1x0_standard_peripheral/Source/gd32f1x0_usart.c **** /*!
 228:Drivers/GD32F1x0_standard_peripheral/Source/gd32f1x0_usart.c ****     \brief      USART inverted configure
 229:Drivers/GD32F1x0_standard_peripheral/Source/gd32f1x0_usart.c ****     \param[in]  usart_periph: USARTx(x=0,1)
 230:Drivers/GD32F1x0_standard_peripheral/Source/gd32f1x0_usart.c ****     \param[in]  invertpara: refer to usart_invert_enum
 231:Drivers/GD32F1x0_standard_peripheral/Source/gd32f1x0_usart.c ****     \param[out] none
 232:Drivers/GD32F1x0_standard_peripheral/Source/gd32f1x0_usart.c ****     \retval     none
 233:Drivers/GD32F1x0_standard_peripheral/Source/gd32f1x0_usart.c **** */
 234:Drivers/GD32F1x0_standard_peripheral/Source/gd32f1x0_usart.c **** void usart_invert_config(uint32_t usart_periph, usart_invert_enum invertpara)
 235:Drivers/GD32F1x0_standard_peripheral/Source/gd32f1x0_usart.c **** {
 534              		.loc 1 235 1 is_stmt 1 view -0
 535              		.cfi_startproc
 536              		@ args = 0, pretend = 0, frame = 0
 537              		@ frame_needed = 0, uses_anonymous_args = 0
 538              		@ link register save eliminated.
 236:Drivers/GD32F1x0_standard_peripheral/Source/gd32f1x0_usart.c ****     USART_CTL0(usart_periph) &= ~(USART_CTL0_UEN);
 539              		.loc 1 236 5 view .LVU119
 540              		.loc 1 236 30 is_stmt 0 view .LVU120
 541 0000 0368     		ldr	r3, [r0]
 542 0002 23F00103 		bic	r3, r3, #1
 543 0006 0360     		str	r3, [r0]
 237:Drivers/GD32F1x0_standard_peripheral/Source/gd32f1x0_usart.c ****     /* inverted or not the specified signal */ 
 238:Drivers/GD32F1x0_standard_peripheral/Source/gd32f1x0_usart.c ****     switch(invertpara){
 544              		.loc 1 238 5 is_stmt 1 view .LVU121
 545 0008 0729     		cmp	r1, #7
 546 000a 09D8     		bhi	.L27
 547 000c DFE801F0 		tbb	[pc, r1]
 548              	.L30:
 549 0010 04       		.byte	(.L37-.L30)/2
 550 0011 09       		.byte	(.L36-.L30)/2
 551 0012 19       		.byte	(.L35-.L30)/2
 552 0013 0D       		.byte	(.L34-.L30)/2
 553 0014 1D       		.byte	(.L33-.L30)/2
 554 0015 11       		.byte	(.L32-.L30)/2
 555 0016 21       		.byte	(.L31-.L30)/2
 556 0017 15       		.byte	(.L29-.L30)/2
 557              		.p2align 1
ARM GAS  /tmp/cc8PYp20.s 			page 15


 558              	.L37:
 239:Drivers/GD32F1x0_standard_peripheral/Source/gd32f1x0_usart.c ****     case USART_DINV_ENABLE:
 240:Drivers/GD32F1x0_standard_peripheral/Source/gd32f1x0_usart.c ****         USART_CTL1(usart_periph) |= USART_CTL1_DINV;
 559              		.loc 1 240 9 view .LVU122
 560              		.loc 1 240 34 is_stmt 0 view .LVU123
 561 0018 4368     		ldr	r3, [r0, #4]
 562 001a 43F48023 		orr	r3, r3, #262144
 563              	.L38:
 241:Drivers/GD32F1x0_standard_peripheral/Source/gd32f1x0_usart.c ****         break;
 242:Drivers/GD32F1x0_standard_peripheral/Source/gd32f1x0_usart.c ****     case USART_DINV_DISABLE:
 243:Drivers/GD32F1x0_standard_peripheral/Source/gd32f1x0_usart.c ****         USART_CTL1(usart_periph) &= ~(USART_CTL1_DINV);
 244:Drivers/GD32F1x0_standard_peripheral/Source/gd32f1x0_usart.c ****         break;
 245:Drivers/GD32F1x0_standard_peripheral/Source/gd32f1x0_usart.c ****     case USART_TXPIN_DISABLE:
 246:Drivers/GD32F1x0_standard_peripheral/Source/gd32f1x0_usart.c ****         USART_CTL1(usart_periph) &= ~(USART_CTL1_TINV);
 247:Drivers/GD32F1x0_standard_peripheral/Source/gd32f1x0_usart.c ****         break;
 248:Drivers/GD32F1x0_standard_peripheral/Source/gd32f1x0_usart.c ****     case USART_RXPIN_DISABLE:
 249:Drivers/GD32F1x0_standard_peripheral/Source/gd32f1x0_usart.c ****         USART_CTL1(usart_periph) &= ~(USART_CTL1_RINV);
 250:Drivers/GD32F1x0_standard_peripheral/Source/gd32f1x0_usart.c ****         break;
 251:Drivers/GD32F1x0_standard_peripheral/Source/gd32f1x0_usart.c ****     case USART_SWAP_DISABLE:
 252:Drivers/GD32F1x0_standard_peripheral/Source/gd32f1x0_usart.c ****         USART_CTL1(usart_periph) &= ~(USART_CTL1_STRP);
 253:Drivers/GD32F1x0_standard_peripheral/Source/gd32f1x0_usart.c ****         break;
 254:Drivers/GD32F1x0_standard_peripheral/Source/gd32f1x0_usart.c ****     case USART_TXPIN_ENABLE:
 255:Drivers/GD32F1x0_standard_peripheral/Source/gd32f1x0_usart.c ****         USART_CTL1(usart_periph) |= USART_CTL1_TINV;
 256:Drivers/GD32F1x0_standard_peripheral/Source/gd32f1x0_usart.c ****         break;
 257:Drivers/GD32F1x0_standard_peripheral/Source/gd32f1x0_usart.c ****     case USART_RXPIN_ENABLE:
 258:Drivers/GD32F1x0_standard_peripheral/Source/gd32f1x0_usart.c ****         USART_CTL1(usart_periph) |= USART_CTL1_RINV;
 259:Drivers/GD32F1x0_standard_peripheral/Source/gd32f1x0_usart.c ****         break;
 260:Drivers/GD32F1x0_standard_peripheral/Source/gd32f1x0_usart.c ****     case USART_SWAP_ENABLE:
 261:Drivers/GD32F1x0_standard_peripheral/Source/gd32f1x0_usart.c ****         USART_CTL1(usart_periph) |= USART_CTL1_STRP;
 564              		.loc 1 261 34 view .LVU124
 565 001e 4360     		str	r3, [r0, #4]
 262:Drivers/GD32F1x0_standard_peripheral/Source/gd32f1x0_usart.c ****         break;
 566              		.loc 1 262 9 is_stmt 1 view .LVU125
 567              	.L27:
 263:Drivers/GD32F1x0_standard_peripheral/Source/gd32f1x0_usart.c ****     default:
 264:Drivers/GD32F1x0_standard_peripheral/Source/gd32f1x0_usart.c ****         break;
 265:Drivers/GD32F1x0_standard_peripheral/Source/gd32f1x0_usart.c ****     }
 266:Drivers/GD32F1x0_standard_peripheral/Source/gd32f1x0_usart.c **** }
 568              		.loc 1 266 1 is_stmt 0 view .LVU126
 569 0020 7047     		bx	lr
 570              	.L36:
 243:Drivers/GD32F1x0_standard_peripheral/Source/gd32f1x0_usart.c ****         break;
 571              		.loc 1 243 9 is_stmt 1 view .LVU127
 243:Drivers/GD32F1x0_standard_peripheral/Source/gd32f1x0_usart.c ****         break;
 572              		.loc 1 243 34 is_stmt 0 view .LVU128
 573 0022 4368     		ldr	r3, [r0, #4]
 574 0024 23F48023 		bic	r3, r3, #262144
 575 0028 F9E7     		b	.L38
 576              	.L34:
 246:Drivers/GD32F1x0_standard_peripheral/Source/gd32f1x0_usart.c ****         break;
 577              		.loc 1 246 9 is_stmt 1 view .LVU129
 246:Drivers/GD32F1x0_standard_peripheral/Source/gd32f1x0_usart.c ****         break;
 578              		.loc 1 246 34 is_stmt 0 view .LVU130
 579 002a 4368     		ldr	r3, [r0, #4]
 580 002c 23F40033 		bic	r3, r3, #131072
 581 0030 F5E7     		b	.L38
 582              	.L32:
ARM GAS  /tmp/cc8PYp20.s 			page 16


 249:Drivers/GD32F1x0_standard_peripheral/Source/gd32f1x0_usart.c ****         break;
 583              		.loc 1 249 9 is_stmt 1 view .LVU131
 249:Drivers/GD32F1x0_standard_peripheral/Source/gd32f1x0_usart.c ****         break;
 584              		.loc 1 249 34 is_stmt 0 view .LVU132
 585 0032 4368     		ldr	r3, [r0, #4]
 586 0034 23F48033 		bic	r3, r3, #65536
 587 0038 F1E7     		b	.L38
 588              	.L29:
 252:Drivers/GD32F1x0_standard_peripheral/Source/gd32f1x0_usart.c ****         break;
 589              		.loc 1 252 9 is_stmt 1 view .LVU133
 252:Drivers/GD32F1x0_standard_peripheral/Source/gd32f1x0_usart.c ****         break;
 590              		.loc 1 252 34 is_stmt 0 view .LVU134
 591 003a 4368     		ldr	r3, [r0, #4]
 592 003c 23F40043 		bic	r3, r3, #32768
 593 0040 EDE7     		b	.L38
 594              	.L35:
 255:Drivers/GD32F1x0_standard_peripheral/Source/gd32f1x0_usart.c ****         break;
 595              		.loc 1 255 9 is_stmt 1 view .LVU135
 255:Drivers/GD32F1x0_standard_peripheral/Source/gd32f1x0_usart.c ****         break;
 596              		.loc 1 255 34 is_stmt 0 view .LVU136
 597 0042 4368     		ldr	r3, [r0, #4]
 598 0044 43F40033 		orr	r3, r3, #131072
 599 0048 E9E7     		b	.L38
 600              	.L33:
 258:Drivers/GD32F1x0_standard_peripheral/Source/gd32f1x0_usart.c ****         break;
 601              		.loc 1 258 9 is_stmt 1 view .LVU137
 258:Drivers/GD32F1x0_standard_peripheral/Source/gd32f1x0_usart.c ****         break;
 602              		.loc 1 258 34 is_stmt 0 view .LVU138
 603 004a 4368     		ldr	r3, [r0, #4]
 604 004c 43F48033 		orr	r3, r3, #65536
 605 0050 E5E7     		b	.L38
 606              	.L31:
 261:Drivers/GD32F1x0_standard_peripheral/Source/gd32f1x0_usart.c ****         break;
 607              		.loc 1 261 9 is_stmt 1 view .LVU139
 261:Drivers/GD32F1x0_standard_peripheral/Source/gd32f1x0_usart.c ****         break;
 608              		.loc 1 261 34 is_stmt 0 view .LVU140
 609 0052 4368     		ldr	r3, [r0, #4]
 610 0054 43F40043 		orr	r3, r3, #32768
 611 0058 E1E7     		b	.L38
 612              		.cfi_endproc
 613              	.LFE68:
 615              		.section	.text.usart_overrun_enable,"ax",%progbits
 616              		.align	1
 617              		.global	usart_overrun_enable
 618              		.syntax unified
 619              		.thumb
 620              		.thumb_func
 621              		.fpu softvfp
 623              	usart_overrun_enable:
 624              	.LVL35:
 625              	.LFB69:
 267:Drivers/GD32F1x0_standard_peripheral/Source/gd32f1x0_usart.c **** 
 268:Drivers/GD32F1x0_standard_peripheral/Source/gd32f1x0_usart.c **** /*!
 269:Drivers/GD32F1x0_standard_peripheral/Source/gd32f1x0_usart.c ****     \brief      overrun function is enabled
 270:Drivers/GD32F1x0_standard_peripheral/Source/gd32f1x0_usart.c ****     \param[in]  usart_periph: USARTx(x=0,1)
 271:Drivers/GD32F1x0_standard_peripheral/Source/gd32f1x0_usart.c ****     \param[out] none
 272:Drivers/GD32F1x0_standard_peripheral/Source/gd32f1x0_usart.c ****     \retval     none
ARM GAS  /tmp/cc8PYp20.s 			page 17


 273:Drivers/GD32F1x0_standard_peripheral/Source/gd32f1x0_usart.c **** */
 274:Drivers/GD32F1x0_standard_peripheral/Source/gd32f1x0_usart.c **** void usart_overrun_enable(uint32_t usart_periph)
 275:Drivers/GD32F1x0_standard_peripheral/Source/gd32f1x0_usart.c **** {
 626              		.loc 1 275 1 is_stmt 1 view -0
 627              		.cfi_startproc
 628              		@ args = 0, pretend = 0, frame = 0
 629              		@ frame_needed = 0, uses_anonymous_args = 0
 630              		@ link register save eliminated.
 276:Drivers/GD32F1x0_standard_peripheral/Source/gd32f1x0_usart.c ****     USART_CTL0(usart_periph) &= ~(USART_CTL0_UEN);
 631              		.loc 1 276 5 view .LVU142
 632              		.loc 1 276 30 is_stmt 0 view .LVU143
 633 0000 0368     		ldr	r3, [r0]
 634 0002 23F00103 		bic	r3, r3, #1
 635 0006 0360     		str	r3, [r0]
 277:Drivers/GD32F1x0_standard_peripheral/Source/gd32f1x0_usart.c ****     USART_CTL2(usart_periph) &= ~(USART_CTL2_OVRD); 
 636              		.loc 1 277 5 is_stmt 1 view .LVU144
 637              		.loc 1 277 30 is_stmt 0 view .LVU145
 638 0008 8368     		ldr	r3, [r0, #8]
 639 000a 23F48053 		bic	r3, r3, #4096
 640 000e 8360     		str	r3, [r0, #8]
 278:Drivers/GD32F1x0_standard_peripheral/Source/gd32f1x0_usart.c **** }
 641              		.loc 1 278 1 view .LVU146
 642 0010 7047     		bx	lr
 643              		.cfi_endproc
 644              	.LFE69:
 646              		.section	.text.usart_overrun_disable,"ax",%progbits
 647              		.align	1
 648              		.global	usart_overrun_disable
 649              		.syntax unified
 650              		.thumb
 651              		.thumb_func
 652              		.fpu softvfp
 654              	usart_overrun_disable:
 655              	.LVL36:
 656              	.LFB70:
 279:Drivers/GD32F1x0_standard_peripheral/Source/gd32f1x0_usart.c **** 
 280:Drivers/GD32F1x0_standard_peripheral/Source/gd32f1x0_usart.c **** /*!
 281:Drivers/GD32F1x0_standard_peripheral/Source/gd32f1x0_usart.c ****     \brief      overrun function is disabled
 282:Drivers/GD32F1x0_standard_peripheral/Source/gd32f1x0_usart.c ****     \param[in]  usart_periph: USARTx(x=0,1)
 283:Drivers/GD32F1x0_standard_peripheral/Source/gd32f1x0_usart.c ****     \param[out] none
 284:Drivers/GD32F1x0_standard_peripheral/Source/gd32f1x0_usart.c ****     \retval     none
 285:Drivers/GD32F1x0_standard_peripheral/Source/gd32f1x0_usart.c **** */
 286:Drivers/GD32F1x0_standard_peripheral/Source/gd32f1x0_usart.c **** void usart_overrun_disable(uint32_t usart_periph)
 287:Drivers/GD32F1x0_standard_peripheral/Source/gd32f1x0_usart.c **** {
 657              		.loc 1 287 1 is_stmt 1 view -0
 658              		.cfi_startproc
 659              		@ args = 0, pretend = 0, frame = 0
 660              		@ frame_needed = 0, uses_anonymous_args = 0
 661              		@ link register save eliminated.
 288:Drivers/GD32F1x0_standard_peripheral/Source/gd32f1x0_usart.c ****     USART_CTL0(usart_periph) &= ~(USART_CTL0_UEN);
 662              		.loc 1 288 5 view .LVU148
 663              		.loc 1 288 30 is_stmt 0 view .LVU149
 664 0000 0368     		ldr	r3, [r0]
 665 0002 23F00103 		bic	r3, r3, #1
 666 0006 0360     		str	r3, [r0]
 289:Drivers/GD32F1x0_standard_peripheral/Source/gd32f1x0_usart.c ****     USART_CTL2(usart_periph) |= USART_CTL2_OVRD; 
 667              		.loc 1 289 5 is_stmt 1 view .LVU150
ARM GAS  /tmp/cc8PYp20.s 			page 18


 668              		.loc 1 289 30 is_stmt 0 view .LVU151
 669 0008 8368     		ldr	r3, [r0, #8]
 670 000a 43F48053 		orr	r3, r3, #4096
 671 000e 8360     		str	r3, [r0, #8]
 290:Drivers/GD32F1x0_standard_peripheral/Source/gd32f1x0_usart.c **** }
 672              		.loc 1 290 1 view .LVU152
 673 0010 7047     		bx	lr
 674              		.cfi_endproc
 675              	.LFE70:
 677              		.section	.text.usart_oversample_config,"ax",%progbits
 678              		.align	1
 679              		.global	usart_oversample_config
 680              		.syntax unified
 681              		.thumb
 682              		.thumb_func
 683              		.fpu softvfp
 685              	usart_oversample_config:
 686              	.LVL37:
 687              	.LFB71:
 291:Drivers/GD32F1x0_standard_peripheral/Source/gd32f1x0_usart.c **** 
 292:Drivers/GD32F1x0_standard_peripheral/Source/gd32f1x0_usart.c **** /*!
 293:Drivers/GD32F1x0_standard_peripheral/Source/gd32f1x0_usart.c ****     \brief      configure the USART oversample mode
 294:Drivers/GD32F1x0_standard_peripheral/Source/gd32f1x0_usart.c ****     \param[in]  usart_periph: USARTx(x=0,1)
 295:Drivers/GD32F1x0_standard_peripheral/Source/gd32f1x0_usart.c ****     \param[in]  oversamp: oversample value
 296:Drivers/GD32F1x0_standard_peripheral/Source/gd32f1x0_usart.c ****       \arg        USART_OVSMOD_8: oversampling by 8
 297:Drivers/GD32F1x0_standard_peripheral/Source/gd32f1x0_usart.c ****       \arg        USART_OVSMOD_16: oversampling by 16
 298:Drivers/GD32F1x0_standard_peripheral/Source/gd32f1x0_usart.c ****     \param[out] none
 299:Drivers/GD32F1x0_standard_peripheral/Source/gd32f1x0_usart.c ****     \retval     none
 300:Drivers/GD32F1x0_standard_peripheral/Source/gd32f1x0_usart.c **** */
 301:Drivers/GD32F1x0_standard_peripheral/Source/gd32f1x0_usart.c **** void usart_oversample_config(uint32_t usart_periph, uint32_t oversamp)
 302:Drivers/GD32F1x0_standard_peripheral/Source/gd32f1x0_usart.c **** {
 688              		.loc 1 302 1 is_stmt 1 view -0
 689              		.cfi_startproc
 690              		@ args = 0, pretend = 0, frame = 0
 691              		@ frame_needed = 0, uses_anonymous_args = 0
 692              		@ link register save eliminated.
 303:Drivers/GD32F1x0_standard_peripheral/Source/gd32f1x0_usart.c ****     /* disable USART */
 304:Drivers/GD32F1x0_standard_peripheral/Source/gd32f1x0_usart.c ****     USART_CTL0(usart_periph) &= ~(USART_CTL0_UEN);
 693              		.loc 1 304 5 view .LVU154
 694              		.loc 1 304 30 is_stmt 0 view .LVU155
 695 0000 0268     		ldr	r2, [r0]
 696 0002 22F00102 		bic	r2, r2, #1
 697 0006 0260     		str	r2, [r0]
 305:Drivers/GD32F1x0_standard_peripheral/Source/gd32f1x0_usart.c ****     /* clear OVSMOD bit */
 306:Drivers/GD32F1x0_standard_peripheral/Source/gd32f1x0_usart.c ****     USART_CTL0(usart_periph) &= ~(USART_CTL0_OVSMOD);
 698              		.loc 1 306 5 is_stmt 1 view .LVU156
 699              		.loc 1 306 30 is_stmt 0 view .LVU157
 700 0008 0268     		ldr	r2, [r0]
 701 000a 22F40042 		bic	r2, r2, #32768
 702 000e 0260     		str	r2, [r0]
 307:Drivers/GD32F1x0_standard_peripheral/Source/gd32f1x0_usart.c ****     USART_CTL0(usart_periph) |= oversamp;
 703              		.loc 1 307 5 is_stmt 1 view .LVU158
 704              		.loc 1 307 30 is_stmt 0 view .LVU159
 705 0010 0368     		ldr	r3, [r0]
 706 0012 0B43     		orrs	r3, r3, r1
 707 0014 0360     		str	r3, [r0]
 308:Drivers/GD32F1x0_standard_peripheral/Source/gd32f1x0_usart.c **** }
ARM GAS  /tmp/cc8PYp20.s 			page 19


 708              		.loc 1 308 1 view .LVU160
 709 0016 7047     		bx	lr
 710              		.cfi_endproc
 711              	.LFE71:
 713              		.section	.text.usart_sample_bit_config,"ax",%progbits
 714              		.align	1
 715              		.global	usart_sample_bit_config
 716              		.syntax unified
 717              		.thumb
 718              		.thumb_func
 719              		.fpu softvfp
 721              	usart_sample_bit_config:
 722              	.LVL38:
 723              	.LFB72:
 309:Drivers/GD32F1x0_standard_peripheral/Source/gd32f1x0_usart.c **** 
 310:Drivers/GD32F1x0_standard_peripheral/Source/gd32f1x0_usart.c **** /*!
 311:Drivers/GD32F1x0_standard_peripheral/Source/gd32f1x0_usart.c ****     \brief      sample bit method configure
 312:Drivers/GD32F1x0_standard_peripheral/Source/gd32f1x0_usart.c ****     \param[in]  usart_periph: USARTx(x=0,1)
 313:Drivers/GD32F1x0_standard_peripheral/Source/gd32f1x0_usart.c ****     \param[in]  osb: sample bit
 314:Drivers/GD32F1x0_standard_peripheral/Source/gd32f1x0_usart.c ****       \arg        USART_OSB_1BIT: 1 bit
 315:Drivers/GD32F1x0_standard_peripheral/Source/gd32f1x0_usart.c ****       \arg        USART_OSB_3BIT: 3 bits
 316:Drivers/GD32F1x0_standard_peripheral/Source/gd32f1x0_usart.c ****     \param[out] none
 317:Drivers/GD32F1x0_standard_peripheral/Source/gd32f1x0_usart.c ****     \retval     none
 318:Drivers/GD32F1x0_standard_peripheral/Source/gd32f1x0_usart.c **** */
 319:Drivers/GD32F1x0_standard_peripheral/Source/gd32f1x0_usart.c **** void usart_sample_bit_config(uint32_t usart_periph, uint32_t osb)
 320:Drivers/GD32F1x0_standard_peripheral/Source/gd32f1x0_usart.c **** {
 724              		.loc 1 320 1 is_stmt 1 view -0
 725              		.cfi_startproc
 726              		@ args = 0, pretend = 0, frame = 0
 727              		@ frame_needed = 0, uses_anonymous_args = 0
 728              		@ link register save eliminated.
 321:Drivers/GD32F1x0_standard_peripheral/Source/gd32f1x0_usart.c ****     /* disable USART */
 322:Drivers/GD32F1x0_standard_peripheral/Source/gd32f1x0_usart.c ****     USART_CTL0(usart_periph) &= ~(USART_CTL0_UEN);
 729              		.loc 1 322 5 view .LVU162
 730              		.loc 1 322 30 is_stmt 0 view .LVU163
 731 0000 0268     		ldr	r2, [r0]
 732 0002 22F00102 		bic	r2, r2, #1
 733 0006 0260     		str	r2, [r0]
 323:Drivers/GD32F1x0_standard_peripheral/Source/gd32f1x0_usart.c ****     USART_CTL2(usart_periph) &= ~(USART_CTL2_OSB);
 734              		.loc 1 323 5 is_stmt 1 view .LVU164
 735              		.loc 1 323 30 is_stmt 0 view .LVU165
 736 0008 8268     		ldr	r2, [r0, #8]
 737 000a 22F40062 		bic	r2, r2, #2048
 738 000e 8260     		str	r2, [r0, #8]
 324:Drivers/GD32F1x0_standard_peripheral/Source/gd32f1x0_usart.c ****     USART_CTL2(usart_periph) |= (osb);
 739              		.loc 1 324 5 is_stmt 1 view .LVU166
 740              		.loc 1 324 30 is_stmt 0 view .LVU167
 741 0010 8368     		ldr	r3, [r0, #8]
 742 0012 0B43     		orrs	r3, r3, r1
 743 0014 8360     		str	r3, [r0, #8]
 325:Drivers/GD32F1x0_standard_peripheral/Source/gd32f1x0_usart.c **** }
 744              		.loc 1 325 1 view .LVU168
 745 0016 7047     		bx	lr
 746              		.cfi_endproc
 747              	.LFE72:
 749              		.section	.text.usart_autobaud_detection_enable,"ax",%progbits
 750              		.align	1
ARM GAS  /tmp/cc8PYp20.s 			page 20


 751              		.global	usart_autobaud_detection_enable
 752              		.syntax unified
 753              		.thumb
 754              		.thumb_func
 755              		.fpu softvfp
 757              	usart_autobaud_detection_enable:
 758              	.LVL39:
 759              	.LFB73:
 326:Drivers/GD32F1x0_standard_peripheral/Source/gd32f1x0_usart.c **** 
 327:Drivers/GD32F1x0_standard_peripheral/Source/gd32f1x0_usart.c **** /*!
 328:Drivers/GD32F1x0_standard_peripheral/Source/gd32f1x0_usart.c ****     \brief      auto baud rate detection enable
 329:Drivers/GD32F1x0_standard_peripheral/Source/gd32f1x0_usart.c ****     \param[in]  usart_periph: USARTx(x=0)
 330:Drivers/GD32F1x0_standard_peripheral/Source/gd32f1x0_usart.c ****     \param[out] none
 331:Drivers/GD32F1x0_standard_peripheral/Source/gd32f1x0_usart.c ****     \retval     none
 332:Drivers/GD32F1x0_standard_peripheral/Source/gd32f1x0_usart.c **** */
 333:Drivers/GD32F1x0_standard_peripheral/Source/gd32f1x0_usart.c **** void usart_autobaud_detection_enable(uint32_t usart_periph)
 334:Drivers/GD32F1x0_standard_peripheral/Source/gd32f1x0_usart.c **** {
 760              		.loc 1 334 1 is_stmt 1 view -0
 761              		.cfi_startproc
 762              		@ args = 0, pretend = 0, frame = 0
 763              		@ frame_needed = 0, uses_anonymous_args = 0
 764              		@ link register save eliminated.
 335:Drivers/GD32F1x0_standard_peripheral/Source/gd32f1x0_usart.c ****     USART_CTL1(usart_periph) |= USART_CTL1_ABDEN;
 765              		.loc 1 335 5 view .LVU170
 766              		.loc 1 335 30 is_stmt 0 view .LVU171
 767 0000 4368     		ldr	r3, [r0, #4]
 768 0002 43F48013 		orr	r3, r3, #1048576
 769 0006 4360     		str	r3, [r0, #4]
 336:Drivers/GD32F1x0_standard_peripheral/Source/gd32f1x0_usart.c **** }
 770              		.loc 1 336 1 view .LVU172
 771 0008 7047     		bx	lr
 772              		.cfi_endproc
 773              	.LFE73:
 775              		.section	.text.usart_autobaud_detection_disable,"ax",%progbits
 776              		.align	1
 777              		.global	usart_autobaud_detection_disable
 778              		.syntax unified
 779              		.thumb
 780              		.thumb_func
 781              		.fpu softvfp
 783              	usart_autobaud_detection_disable:
 784              	.LVL40:
 785              	.LFB74:
 337:Drivers/GD32F1x0_standard_peripheral/Source/gd32f1x0_usart.c **** 
 338:Drivers/GD32F1x0_standard_peripheral/Source/gd32f1x0_usart.c **** /*!
 339:Drivers/GD32F1x0_standard_peripheral/Source/gd32f1x0_usart.c ****     \brief      auto baud rate detection disable
 340:Drivers/GD32F1x0_standard_peripheral/Source/gd32f1x0_usart.c ****     \param[in]  usart_periph: USARTx(x=0)
 341:Drivers/GD32F1x0_standard_peripheral/Source/gd32f1x0_usart.c ****     \param[out] none
 342:Drivers/GD32F1x0_standard_peripheral/Source/gd32f1x0_usart.c ****     \retval     none
 343:Drivers/GD32F1x0_standard_peripheral/Source/gd32f1x0_usart.c **** */
 344:Drivers/GD32F1x0_standard_peripheral/Source/gd32f1x0_usart.c **** void usart_autobaud_detection_disable(uint32_t usart_periph)
 345:Drivers/GD32F1x0_standard_peripheral/Source/gd32f1x0_usart.c **** {
 786              		.loc 1 345 1 is_stmt 1 view -0
 787              		.cfi_startproc
 788              		@ args = 0, pretend = 0, frame = 0
 789              		@ frame_needed = 0, uses_anonymous_args = 0
 790              		@ link register save eliminated.
ARM GAS  /tmp/cc8PYp20.s 			page 21


 346:Drivers/GD32F1x0_standard_peripheral/Source/gd32f1x0_usart.c ****     USART_CTL1(usart_periph) &= ~(USART_CTL1_ABDEN);
 791              		.loc 1 346 5 view .LVU174
 792              		.loc 1 346 30 is_stmt 0 view .LVU175
 793 0000 4368     		ldr	r3, [r0, #4]
 794 0002 23F48013 		bic	r3, r3, #1048576
 795 0006 4360     		str	r3, [r0, #4]
 347:Drivers/GD32F1x0_standard_peripheral/Source/gd32f1x0_usart.c **** }
 796              		.loc 1 347 1 view .LVU176
 797 0008 7047     		bx	lr
 798              		.cfi_endproc
 799              	.LFE74:
 801              		.section	.text.usart_autobaud_detection_mode_config,"ax",%progbits
 802              		.align	1
 803              		.global	usart_autobaud_detection_mode_config
 804              		.syntax unified
 805              		.thumb
 806              		.thumb_func
 807              		.fpu softvfp
 809              	usart_autobaud_detection_mode_config:
 810              	.LVL41:
 811              	.LFB75:
 348:Drivers/GD32F1x0_standard_peripheral/Source/gd32f1x0_usart.c **** 
 349:Drivers/GD32F1x0_standard_peripheral/Source/gd32f1x0_usart.c **** /*!
 350:Drivers/GD32F1x0_standard_peripheral/Source/gd32f1x0_usart.c ****     \brief      auto baud rate detection mode configure
 351:Drivers/GD32F1x0_standard_peripheral/Source/gd32f1x0_usart.c ****     \param[in]  usart_periph: USARTx(x=0)
 352:Drivers/GD32F1x0_standard_peripheral/Source/gd32f1x0_usart.c ****     \param[in]  abdmod: auto baud rate detection mode
 353:Drivers/GD32F1x0_standard_peripheral/Source/gd32f1x0_usart.c ****       \arg        USART_ABDM_FTOR: falling edge to rising edge measurement
 354:Drivers/GD32F1x0_standard_peripheral/Source/gd32f1x0_usart.c ****       \arg        USART_ABDM_FTOF: falling edge to falling edge measurement
 355:Drivers/GD32F1x0_standard_peripheral/Source/gd32f1x0_usart.c ****     \param[out] none
 356:Drivers/GD32F1x0_standard_peripheral/Source/gd32f1x0_usart.c ****     \retval     none
 357:Drivers/GD32F1x0_standard_peripheral/Source/gd32f1x0_usart.c **** */
 358:Drivers/GD32F1x0_standard_peripheral/Source/gd32f1x0_usart.c **** void usart_autobaud_detection_mode_config(uint32_t usart_periph, uint32_t abdmod)
 359:Drivers/GD32F1x0_standard_peripheral/Source/gd32f1x0_usart.c **** {
 812              		.loc 1 359 1 is_stmt 1 view -0
 813              		.cfi_startproc
 814              		@ args = 0, pretend = 0, frame = 0
 815              		@ frame_needed = 0, uses_anonymous_args = 0
 816              		@ link register save eliminated.
 360:Drivers/GD32F1x0_standard_peripheral/Source/gd32f1x0_usart.c ****     /* reset ABDM bits */
 361:Drivers/GD32F1x0_standard_peripheral/Source/gd32f1x0_usart.c ****     USART_CTL1(usart_periph) &= ~(USART_CTL1_ABDM);
 817              		.loc 1 361 5 view .LVU178
 818              		.loc 1 361 30 is_stmt 0 view .LVU179
 819 0000 4268     		ldr	r2, [r0, #4]
 820 0002 22F4C002 		bic	r2, r2, #6291456
 821 0006 4260     		str	r2, [r0, #4]
 362:Drivers/GD32F1x0_standard_peripheral/Source/gd32f1x0_usart.c ****     USART_CTL1(usart_periph) |= (abdmod);
 822              		.loc 1 362 5 is_stmt 1 view .LVU180
 823              		.loc 1 362 30 is_stmt 0 view .LVU181
 824 0008 4368     		ldr	r3, [r0, #4]
 825 000a 0B43     		orrs	r3, r3, r1
 826 000c 4360     		str	r3, [r0, #4]
 363:Drivers/GD32F1x0_standard_peripheral/Source/gd32f1x0_usart.c **** }
 827              		.loc 1 363 1 view .LVU182
 828 000e 7047     		bx	lr
 829              		.cfi_endproc
 830              	.LFE75:
 832              		.section	.text.usart_mute_mode_enable,"ax",%progbits
ARM GAS  /tmp/cc8PYp20.s 			page 22


 833              		.align	1
 834              		.global	usart_mute_mode_enable
 835              		.syntax unified
 836              		.thumb
 837              		.thumb_func
 838              		.fpu softvfp
 840              	usart_mute_mode_enable:
 841              	.LVL42:
 842              	.LFB76:
 364:Drivers/GD32F1x0_standard_peripheral/Source/gd32f1x0_usart.c **** 
 365:Drivers/GD32F1x0_standard_peripheral/Source/gd32f1x0_usart.c **** /*!
 366:Drivers/GD32F1x0_standard_peripheral/Source/gd32f1x0_usart.c ****     \brief      mute mode enable 
 367:Drivers/GD32F1x0_standard_peripheral/Source/gd32f1x0_usart.c ****     \param[in]  usart_periph: USARTx(x=0,1)
 368:Drivers/GD32F1x0_standard_peripheral/Source/gd32f1x0_usart.c ****     \param[out] none
 369:Drivers/GD32F1x0_standard_peripheral/Source/gd32f1x0_usart.c ****     \retval     none
 370:Drivers/GD32F1x0_standard_peripheral/Source/gd32f1x0_usart.c **** */
 371:Drivers/GD32F1x0_standard_peripheral/Source/gd32f1x0_usart.c **** void usart_mute_mode_enable(uint32_t usart_periph)
 372:Drivers/GD32F1x0_standard_peripheral/Source/gd32f1x0_usart.c **** {
 843              		.loc 1 372 1 is_stmt 1 view -0
 844              		.cfi_startproc
 845              		@ args = 0, pretend = 0, frame = 0
 846              		@ frame_needed = 0, uses_anonymous_args = 0
 847              		@ link register save eliminated.
 373:Drivers/GD32F1x0_standard_peripheral/Source/gd32f1x0_usart.c ****     USART_CTL0(usart_periph) |= USART_CTL0_MEN;
 848              		.loc 1 373 5 view .LVU184
 849              		.loc 1 373 30 is_stmt 0 view .LVU185
 850 0000 0368     		ldr	r3, [r0]
 851 0002 43F40053 		orr	r3, r3, #8192
 852 0006 0360     		str	r3, [r0]
 374:Drivers/GD32F1x0_standard_peripheral/Source/gd32f1x0_usart.c **** }
 853              		.loc 1 374 1 view .LVU186
 854 0008 7047     		bx	lr
 855              		.cfi_endproc
 856              	.LFE76:
 858              		.section	.text.usart_mute_mode_disable,"ax",%progbits
 859              		.align	1
 860              		.global	usart_mute_mode_disable
 861              		.syntax unified
 862              		.thumb
 863              		.thumb_func
 864              		.fpu softvfp
 866              	usart_mute_mode_disable:
 867              	.LVL43:
 868              	.LFB77:
 375:Drivers/GD32F1x0_standard_peripheral/Source/gd32f1x0_usart.c **** 
 376:Drivers/GD32F1x0_standard_peripheral/Source/gd32f1x0_usart.c **** /*!
 377:Drivers/GD32F1x0_standard_peripheral/Source/gd32f1x0_usart.c ****     \brief      mute mode disable 
 378:Drivers/GD32F1x0_standard_peripheral/Source/gd32f1x0_usart.c ****     \param[in]  usart_periph: USARTx(x=0,1)
 379:Drivers/GD32F1x0_standard_peripheral/Source/gd32f1x0_usart.c ****     \param[out] none
 380:Drivers/GD32F1x0_standard_peripheral/Source/gd32f1x0_usart.c ****     \retval     none
 381:Drivers/GD32F1x0_standard_peripheral/Source/gd32f1x0_usart.c **** */
 382:Drivers/GD32F1x0_standard_peripheral/Source/gd32f1x0_usart.c **** void usart_mute_mode_disable(uint32_t usart_periph)
 383:Drivers/GD32F1x0_standard_peripheral/Source/gd32f1x0_usart.c **** {
 869              		.loc 1 383 1 is_stmt 1 view -0
 870              		.cfi_startproc
 871              		@ args = 0, pretend = 0, frame = 0
 872              		@ frame_needed = 0, uses_anonymous_args = 0
ARM GAS  /tmp/cc8PYp20.s 			page 23


 873              		@ link register save eliminated.
 384:Drivers/GD32F1x0_standard_peripheral/Source/gd32f1x0_usart.c ****     USART_CTL0(usart_periph) &= ~(USART_CTL0_MEN);
 874              		.loc 1 384 5 view .LVU188
 875              		.loc 1 384 30 is_stmt 0 view .LVU189
 876 0000 0368     		ldr	r3, [r0]
 877 0002 23F40053 		bic	r3, r3, #8192
 878 0006 0360     		str	r3, [r0]
 385:Drivers/GD32F1x0_standard_peripheral/Source/gd32f1x0_usart.c **** }
 879              		.loc 1 385 1 view .LVU190
 880 0008 7047     		bx	lr
 881              		.cfi_endproc
 882              	.LFE77:
 884              		.section	.text.usart_mute_mode_wakeup_config,"ax",%progbits
 885              		.align	1
 886              		.global	usart_mute_mode_wakeup_config
 887              		.syntax unified
 888              		.thumb
 889              		.thumb_func
 890              		.fpu softvfp
 892              	usart_mute_mode_wakeup_config:
 893              	.LVL44:
 894              	.LFB78:
 386:Drivers/GD32F1x0_standard_peripheral/Source/gd32f1x0_usart.c **** 
 387:Drivers/GD32F1x0_standard_peripheral/Source/gd32f1x0_usart.c **** /*!
 388:Drivers/GD32F1x0_standard_peripheral/Source/gd32f1x0_usart.c ****     \brief      wakeup method in mute mode configure
 389:Drivers/GD32F1x0_standard_peripheral/Source/gd32f1x0_usart.c ****     \param[in]  usart_periph: USARTx(x=0,1)
 390:Drivers/GD32F1x0_standard_peripheral/Source/gd32f1x0_usart.c ****     \param[in]  wmethod: two methods be used to enter or exit the mute mode
 391:Drivers/GD32F1x0_standard_peripheral/Source/gd32f1x0_usart.c ****       \arg        USART_WM_IDLE: idle line
 392:Drivers/GD32F1x0_standard_peripheral/Source/gd32f1x0_usart.c ****       \arg        USART_WM_ADDR: address mark
 393:Drivers/GD32F1x0_standard_peripheral/Source/gd32f1x0_usart.c ****     \param[out] none
 394:Drivers/GD32F1x0_standard_peripheral/Source/gd32f1x0_usart.c ****     \retval     none
 395:Drivers/GD32F1x0_standard_peripheral/Source/gd32f1x0_usart.c **** */
 396:Drivers/GD32F1x0_standard_peripheral/Source/gd32f1x0_usart.c **** void usart_mute_mode_wakeup_config(uint32_t usart_periph, uint32_t wmethod)
 397:Drivers/GD32F1x0_standard_peripheral/Source/gd32f1x0_usart.c **** {
 895              		.loc 1 397 1 is_stmt 1 view -0
 896              		.cfi_startproc
 897              		@ args = 0, pretend = 0, frame = 0
 898              		@ frame_needed = 0, uses_anonymous_args = 0
 899              		@ link register save eliminated.
 398:Drivers/GD32F1x0_standard_peripheral/Source/gd32f1x0_usart.c ****     /* disable USART */
 399:Drivers/GD32F1x0_standard_peripheral/Source/gd32f1x0_usart.c ****     USART_CTL0(usart_periph) &= ~(USART_CTL0_UEN);
 900              		.loc 1 399 5 view .LVU192
 901              		.loc 1 399 30 is_stmt 0 view .LVU193
 902 0000 0268     		ldr	r2, [r0]
 903 0002 22F00102 		bic	r2, r2, #1
 904 0006 0260     		str	r2, [r0]
 400:Drivers/GD32F1x0_standard_peripheral/Source/gd32f1x0_usart.c ****     USART_CTL0(usart_periph) &= ~(USART_CTL0_WM);
 905              		.loc 1 400 5 is_stmt 1 view .LVU194
 906              		.loc 1 400 30 is_stmt 0 view .LVU195
 907 0008 0268     		ldr	r2, [r0]
 908 000a 22F40062 		bic	r2, r2, #2048
 909 000e 0260     		str	r2, [r0]
 401:Drivers/GD32F1x0_standard_peripheral/Source/gd32f1x0_usart.c ****     USART_CTL0(usart_periph) |= wmethod;
 910              		.loc 1 401 5 is_stmt 1 view .LVU196
 911              		.loc 1 401 30 is_stmt 0 view .LVU197
 912 0010 0368     		ldr	r3, [r0]
 913 0012 0B43     		orrs	r3, r3, r1
ARM GAS  /tmp/cc8PYp20.s 			page 24


 914 0014 0360     		str	r3, [r0]
 402:Drivers/GD32F1x0_standard_peripheral/Source/gd32f1x0_usart.c **** }
 915              		.loc 1 402 1 view .LVU198
 916 0016 7047     		bx	lr
 917              		.cfi_endproc
 918              	.LFE78:
 920              		.section	.text.usart_address_detection_mode_config,"ax",%progbits
 921              		.align	1
 922              		.global	usart_address_detection_mode_config
 923              		.syntax unified
 924              		.thumb
 925              		.thumb_func
 926              		.fpu softvfp
 928              	usart_address_detection_mode_config:
 929              	.LVL45:
 930              	.LFB79:
 403:Drivers/GD32F1x0_standard_peripheral/Source/gd32f1x0_usart.c **** 
 404:Drivers/GD32F1x0_standard_peripheral/Source/gd32f1x0_usart.c **** /*!
 405:Drivers/GD32F1x0_standard_peripheral/Source/gd32f1x0_usart.c ****     \brief      address detection mode configure
 406:Drivers/GD32F1x0_standard_peripheral/Source/gd32f1x0_usart.c ****     \param[in]  usart_periph: USARTx(x=0,1)
 407:Drivers/GD32F1x0_standard_peripheral/Source/gd32f1x0_usart.c ****     \param[in]  addmod: address detection mode
 408:Drivers/GD32F1x0_standard_peripheral/Source/gd32f1x0_usart.c ****       \arg        USART_ADDM_4BIT: 4 bits
 409:Drivers/GD32F1x0_standard_peripheral/Source/gd32f1x0_usart.c ****       \arg        USART_ADDM_FULLBIT: full bits
 410:Drivers/GD32F1x0_standard_peripheral/Source/gd32f1x0_usart.c ****     \param[out] none
 411:Drivers/GD32F1x0_standard_peripheral/Source/gd32f1x0_usart.c ****     \retval     none
 412:Drivers/GD32F1x0_standard_peripheral/Source/gd32f1x0_usart.c **** */
 413:Drivers/GD32F1x0_standard_peripheral/Source/gd32f1x0_usart.c **** void usart_address_detection_mode_config(uint32_t usart_periph, uint32_t addmod)
 414:Drivers/GD32F1x0_standard_peripheral/Source/gd32f1x0_usart.c **** {
 931              		.loc 1 414 1 is_stmt 1 view -0
 932              		.cfi_startproc
 933              		@ args = 0, pretend = 0, frame = 0
 934              		@ frame_needed = 0, uses_anonymous_args = 0
 935              		@ link register save eliminated.
 415:Drivers/GD32F1x0_standard_peripheral/Source/gd32f1x0_usart.c ****     /* disable USART */
 416:Drivers/GD32F1x0_standard_peripheral/Source/gd32f1x0_usart.c ****     USART_CTL0(usart_periph) &= ~(USART_CTL0_UEN);
 936              		.loc 1 416 5 view .LVU200
 937              		.loc 1 416 30 is_stmt 0 view .LVU201
 938 0000 0368     		ldr	r3, [r0]
 417:Drivers/GD32F1x0_standard_peripheral/Source/gd32f1x0_usart.c ****     USART_CTL1(usart_periph) &= ~(USART_CTL1_ADDM);
 418:Drivers/GD32F1x0_standard_peripheral/Source/gd32f1x0_usart.c ****     USART_CTL1(usart_periph) |= (USART_CTL1_ADDM & (addmod));
 939              		.loc 1 418 50 view .LVU202
 940 0002 01F01001 		and	r1, r1, #16
 941              	.LVL46:
 416:Drivers/GD32F1x0_standard_peripheral/Source/gd32f1x0_usart.c ****     USART_CTL1(usart_periph) &= ~(USART_CTL1_ADDM);
 942              		.loc 1 416 30 view .LVU203
 943 0006 23F00103 		bic	r3, r3, #1
 944 000a 0360     		str	r3, [r0]
 417:Drivers/GD32F1x0_standard_peripheral/Source/gd32f1x0_usart.c ****     USART_CTL1(usart_periph) &= ~(USART_CTL1_ADDM);
 945              		.loc 1 417 5 is_stmt 1 view .LVU204
 417:Drivers/GD32F1x0_standard_peripheral/Source/gd32f1x0_usart.c ****     USART_CTL1(usart_periph) &= ~(USART_CTL1_ADDM);
 946              		.loc 1 417 30 is_stmt 0 view .LVU205
 947 000c 4368     		ldr	r3, [r0, #4]
 948 000e 23F01003 		bic	r3, r3, #16
 949 0012 4360     		str	r3, [r0, #4]
 950              		.loc 1 418 5 is_stmt 1 view .LVU206
 951              		.loc 1 418 30 is_stmt 0 view .LVU207
 952 0014 4368     		ldr	r3, [r0, #4]
ARM GAS  /tmp/cc8PYp20.s 			page 25


 953 0016 1943     		orrs	r1, r1, r3
 954 0018 4160     		str	r1, [r0, #4]
 419:Drivers/GD32F1x0_standard_peripheral/Source/gd32f1x0_usart.c **** }
 955              		.loc 1 419 1 view .LVU208
 956 001a 7047     		bx	lr
 957              		.cfi_endproc
 958              	.LFE79:
 960              		.section	.text.usart_address_config,"ax",%progbits
 961              		.align	1
 962              		.global	usart_address_config
 963              		.syntax unified
 964              		.thumb
 965              		.thumb_func
 966              		.fpu softvfp
 968              	usart_address_config:
 969              	.LVL47:
 970              	.LFB80:
 420:Drivers/GD32F1x0_standard_peripheral/Source/gd32f1x0_usart.c **** 
 421:Drivers/GD32F1x0_standard_peripheral/Source/gd32f1x0_usart.c **** /*!
 422:Drivers/GD32F1x0_standard_peripheral/Source/gd32f1x0_usart.c ****     \brief      address of the USART terminal
 423:Drivers/GD32F1x0_standard_peripheral/Source/gd32f1x0_usart.c ****     \param[in]  usart_periph: USARTx(x=0,1)
 424:Drivers/GD32F1x0_standard_peripheral/Source/gd32f1x0_usart.c ****     \param[in]  addr: 0x00-0xFF, address of USART terminal
 425:Drivers/GD32F1x0_standard_peripheral/Source/gd32f1x0_usart.c ****     \param[out] none
 426:Drivers/GD32F1x0_standard_peripheral/Source/gd32f1x0_usart.c ****     \retval     none
 427:Drivers/GD32F1x0_standard_peripheral/Source/gd32f1x0_usart.c **** */
 428:Drivers/GD32F1x0_standard_peripheral/Source/gd32f1x0_usart.c **** void usart_address_config(uint32_t usart_periph, uint8_t addr)
 429:Drivers/GD32F1x0_standard_peripheral/Source/gd32f1x0_usart.c **** {
 971              		.loc 1 429 1 is_stmt 1 view -0
 972              		.cfi_startproc
 973              		@ args = 0, pretend = 0, frame = 0
 974              		@ frame_needed = 0, uses_anonymous_args = 0
 975              		@ link register save eliminated.
 430:Drivers/GD32F1x0_standard_peripheral/Source/gd32f1x0_usart.c ****     /* disable USART */
 431:Drivers/GD32F1x0_standard_peripheral/Source/gd32f1x0_usart.c ****     USART_CTL0(usart_periph) &= ~(USART_CTL0_UEN);
 976              		.loc 1 431 5 view .LVU210
 977              		.loc 1 431 30 is_stmt 0 view .LVU211
 978 0000 0268     		ldr	r2, [r0]
 979 0002 22F00102 		bic	r2, r2, #1
 980 0006 0260     		str	r2, [r0]
 432:Drivers/GD32F1x0_standard_peripheral/Source/gd32f1x0_usart.c ****     USART_CTL1(usart_periph) &= ~(USART_CTL1_ADDR);
 981              		.loc 1 432 5 is_stmt 1 view .LVU212
 982              		.loc 1 432 30 is_stmt 0 view .LVU213
 983 0008 4268     		ldr	r2, [r0, #4]
 984 000a 22F07F42 		bic	r2, r2, #-16777216
 985 000e 4260     		str	r2, [r0, #4]
 433:Drivers/GD32F1x0_standard_peripheral/Source/gd32f1x0_usart.c ****     USART_CTL1(usart_periph) |= (USART_CTL1_ADDR & (((uint32_t)addr) << 24));
 986              		.loc 1 433 5 is_stmt 1 view .LVU214
 987              		.loc 1 433 30 is_stmt 0 view .LVU215
 988 0010 4368     		ldr	r3, [r0, #4]
 989 0012 43EA0163 		orr	r3, r3, r1, lsl #24
 990 0016 4360     		str	r3, [r0, #4]
 434:Drivers/GD32F1x0_standard_peripheral/Source/gd32f1x0_usart.c **** }
 991              		.loc 1 434 1 view .LVU216
 992 0018 7047     		bx	lr
 993              		.cfi_endproc
 994              	.LFE80:
 996              		.section	.text.usart_receiver_timeout_enable,"ax",%progbits
ARM GAS  /tmp/cc8PYp20.s 			page 26


 997              		.align	1
 998              		.global	usart_receiver_timeout_enable
 999              		.syntax unified
 1000              		.thumb
 1001              		.thumb_func
 1002              		.fpu softvfp
 1004              	usart_receiver_timeout_enable:
 1005              	.LVL48:
 1006              	.LFB81:
 435:Drivers/GD32F1x0_standard_peripheral/Source/gd32f1x0_usart.c **** 
 436:Drivers/GD32F1x0_standard_peripheral/Source/gd32f1x0_usart.c **** /*!
 437:Drivers/GD32F1x0_standard_peripheral/Source/gd32f1x0_usart.c ****     \brief      receiver timeout enable
 438:Drivers/GD32F1x0_standard_peripheral/Source/gd32f1x0_usart.c ****     \param[in]  usart_periph: USARTx(x=0)
 439:Drivers/GD32F1x0_standard_peripheral/Source/gd32f1x0_usart.c ****     \param[out] none
 440:Drivers/GD32F1x0_standard_peripheral/Source/gd32f1x0_usart.c ****     \retval     none
 441:Drivers/GD32F1x0_standard_peripheral/Source/gd32f1x0_usart.c **** */
 442:Drivers/GD32F1x0_standard_peripheral/Source/gd32f1x0_usart.c **** void usart_receiver_timeout_enable(uint32_t usart_periph)
 443:Drivers/GD32F1x0_standard_peripheral/Source/gd32f1x0_usart.c **** {
 1007              		.loc 1 443 1 is_stmt 1 view -0
 1008              		.cfi_startproc
 1009              		@ args = 0, pretend = 0, frame = 0
 1010              		@ frame_needed = 0, uses_anonymous_args = 0
 1011              		@ link register save eliminated.
 444:Drivers/GD32F1x0_standard_peripheral/Source/gd32f1x0_usart.c ****     USART_CTL1(usart_periph) |= USART_CTL1_RTEN;
 1012              		.loc 1 444 5 view .LVU218
 1013              		.loc 1 444 30 is_stmt 0 view .LVU219
 1014 0000 4368     		ldr	r3, [r0, #4]
 1015 0002 43F40003 		orr	r3, r3, #8388608
 1016 0006 4360     		str	r3, [r0, #4]
 445:Drivers/GD32F1x0_standard_peripheral/Source/gd32f1x0_usart.c **** }
 1017              		.loc 1 445 1 view .LVU220
 1018 0008 7047     		bx	lr
 1019              		.cfi_endproc
 1020              	.LFE81:
 1022              		.section	.text.usart_receiver_timeout_disable,"ax",%progbits
 1023              		.align	1
 1024              		.global	usart_receiver_timeout_disable
 1025              		.syntax unified
 1026              		.thumb
 1027              		.thumb_func
 1028              		.fpu softvfp
 1030              	usart_receiver_timeout_disable:
 1031              	.LVL49:
 1032              	.LFB82:
 446:Drivers/GD32F1x0_standard_peripheral/Source/gd32f1x0_usart.c **** 
 447:Drivers/GD32F1x0_standard_peripheral/Source/gd32f1x0_usart.c **** /*!
 448:Drivers/GD32F1x0_standard_peripheral/Source/gd32f1x0_usart.c ****     \brief      receiver timeout disable
 449:Drivers/GD32F1x0_standard_peripheral/Source/gd32f1x0_usart.c ****     \param[in]  usart_periph: USARTx(x=0)
 450:Drivers/GD32F1x0_standard_peripheral/Source/gd32f1x0_usart.c ****     \param[out] none
 451:Drivers/GD32F1x0_standard_peripheral/Source/gd32f1x0_usart.c ****     \retval     none
 452:Drivers/GD32F1x0_standard_peripheral/Source/gd32f1x0_usart.c **** */
 453:Drivers/GD32F1x0_standard_peripheral/Source/gd32f1x0_usart.c **** void usart_receiver_timeout_disable(uint32_t usart_periph)
 454:Drivers/GD32F1x0_standard_peripheral/Source/gd32f1x0_usart.c **** {
 1033              		.loc 1 454 1 is_stmt 1 view -0
 1034              		.cfi_startproc
 1035              		@ args = 0, pretend = 0, frame = 0
 1036              		@ frame_needed = 0, uses_anonymous_args = 0
ARM GAS  /tmp/cc8PYp20.s 			page 27


 1037              		@ link register save eliminated.
 455:Drivers/GD32F1x0_standard_peripheral/Source/gd32f1x0_usart.c ****     USART_CTL1(usart_periph) &= ~(USART_CTL1_RTEN);
 1038              		.loc 1 455 5 view .LVU222
 1039              		.loc 1 455 30 is_stmt 0 view .LVU223
 1040 0000 4368     		ldr	r3, [r0, #4]
 1041 0002 23F40003 		bic	r3, r3, #8388608
 1042 0006 4360     		str	r3, [r0, #4]
 456:Drivers/GD32F1x0_standard_peripheral/Source/gd32f1x0_usart.c **** }
 1043              		.loc 1 456 1 view .LVU224
 1044 0008 7047     		bx	lr
 1045              		.cfi_endproc
 1046              	.LFE82:
 1048              		.section	.text.usart_receiver_timeout_config,"ax",%progbits
 1049              		.align	1
 1050              		.global	usart_receiver_timeout_config
 1051              		.syntax unified
 1052              		.thumb
 1053              		.thumb_func
 1054              		.fpu softvfp
 1056              	usart_receiver_timeout_config:
 1057              	.LVL50:
 1058              	.LFB83:
 457:Drivers/GD32F1x0_standard_peripheral/Source/gd32f1x0_usart.c **** 
 458:Drivers/GD32F1x0_standard_peripheral/Source/gd32f1x0_usart.c **** /*!
 459:Drivers/GD32F1x0_standard_peripheral/Source/gd32f1x0_usart.c ****     \brief      receiver timeout threshold configure
 460:Drivers/GD32F1x0_standard_peripheral/Source/gd32f1x0_usart.c ****     \param[in]  usart_periph: USARTx(x=0)
 461:Drivers/GD32F1x0_standard_peripheral/Source/gd32f1x0_usart.c ****     \param[in]  rtimeout: 0x000000-0xFFFFFF, receiver timeout value in terms of number of baud cloc
 462:Drivers/GD32F1x0_standard_peripheral/Source/gd32f1x0_usart.c ****     \param[out] none
 463:Drivers/GD32F1x0_standard_peripheral/Source/gd32f1x0_usart.c ****     \retval     none
 464:Drivers/GD32F1x0_standard_peripheral/Source/gd32f1x0_usart.c **** */
 465:Drivers/GD32F1x0_standard_peripheral/Source/gd32f1x0_usart.c **** void usart_receiver_timeout_config(uint32_t usart_periph, uint32_t rtimeout)
 466:Drivers/GD32F1x0_standard_peripheral/Source/gd32f1x0_usart.c **** {
 1059              		.loc 1 466 1 is_stmt 1 view -0
 1060              		.cfi_startproc
 1061              		@ args = 0, pretend = 0, frame = 0
 1062              		@ frame_needed = 0, uses_anonymous_args = 0
 1063              		@ link register save eliminated.
 467:Drivers/GD32F1x0_standard_peripheral/Source/gd32f1x0_usart.c ****     USART_RT(usart_periph) &= ~(USART_RT_RT);
 1064              		.loc 1 467 5 view .LVU226
 1065              		.loc 1 467 28 is_stmt 0 view .LVU227
 1066 0000 4269     		ldr	r2, [r0, #20]
 1067 0002 02F07F42 		and	r2, r2, #-16777216
 1068 0006 4261     		str	r2, [r0, #20]
 468:Drivers/GD32F1x0_standard_peripheral/Source/gd32f1x0_usart.c ****     USART_RT(usart_periph) |= (rtimeout);
 1069              		.loc 1 468 5 is_stmt 1 view .LVU228
 1070              		.loc 1 468 28 is_stmt 0 view .LVU229
 1071 0008 4369     		ldr	r3, [r0, #20]
 1072 000a 0B43     		orrs	r3, r3, r1
 1073 000c 4361     		str	r3, [r0, #20]
 469:Drivers/GD32F1x0_standard_peripheral/Source/gd32f1x0_usart.c **** }
 1074              		.loc 1 469 1 view .LVU230
 1075 000e 7047     		bx	lr
 1076              		.cfi_endproc
 1077              	.LFE83:
 1079              		.section	.text.usart_lin_mode_enable,"ax",%progbits
 1080              		.align	1
 1081              		.global	usart_lin_mode_enable
ARM GAS  /tmp/cc8PYp20.s 			page 28


 1082              		.syntax unified
 1083              		.thumb
 1084              		.thumb_func
 1085              		.fpu softvfp
 1087              	usart_lin_mode_enable:
 1088              	.LVL51:
 1089              	.LFB84:
 470:Drivers/GD32F1x0_standard_peripheral/Source/gd32f1x0_usart.c **** 
 471:Drivers/GD32F1x0_standard_peripheral/Source/gd32f1x0_usart.c **** /*!
 472:Drivers/GD32F1x0_standard_peripheral/Source/gd32f1x0_usart.c ****     \brief      LIN mode enable
 473:Drivers/GD32F1x0_standard_peripheral/Source/gd32f1x0_usart.c ****     \param[in]  usart_periph: USARTx(x=0)
 474:Drivers/GD32F1x0_standard_peripheral/Source/gd32f1x0_usart.c ****     \param[out] none
 475:Drivers/GD32F1x0_standard_peripheral/Source/gd32f1x0_usart.c ****     \retval     none
 476:Drivers/GD32F1x0_standard_peripheral/Source/gd32f1x0_usart.c **** */
 477:Drivers/GD32F1x0_standard_peripheral/Source/gd32f1x0_usart.c **** void usart_lin_mode_enable(uint32_t usart_periph)
 478:Drivers/GD32F1x0_standard_peripheral/Source/gd32f1x0_usart.c **** {
 1090              		.loc 1 478 1 is_stmt 1 view -0
 1091              		.cfi_startproc
 1092              		@ args = 0, pretend = 0, frame = 0
 1093              		@ frame_needed = 0, uses_anonymous_args = 0
 1094              		@ link register save eliminated.
 479:Drivers/GD32F1x0_standard_peripheral/Source/gd32f1x0_usart.c ****     /* disable USART */
 480:Drivers/GD32F1x0_standard_peripheral/Source/gd32f1x0_usart.c ****     USART_CTL0(usart_periph) &= ~(USART_CTL0_UEN);
 1095              		.loc 1 480 5 view .LVU232
 1096              		.loc 1 480 30 is_stmt 0 view .LVU233
 1097 0000 0368     		ldr	r3, [r0]
 1098 0002 23F00103 		bic	r3, r3, #1
 1099 0006 0360     		str	r3, [r0]
 481:Drivers/GD32F1x0_standard_peripheral/Source/gd32f1x0_usart.c ****     
 482:Drivers/GD32F1x0_standard_peripheral/Source/gd32f1x0_usart.c ****     USART_CTL1(usart_periph) |= USART_CTL1_LMEN;
 1100              		.loc 1 482 5 is_stmt 1 view .LVU234
 1101              		.loc 1 482 30 is_stmt 0 view .LVU235
 1102 0008 4368     		ldr	r3, [r0, #4]
 1103 000a 43F48043 		orr	r3, r3, #16384
 1104 000e 4360     		str	r3, [r0, #4]
 483:Drivers/GD32F1x0_standard_peripheral/Source/gd32f1x0_usart.c **** }
 1105              		.loc 1 483 1 view .LVU236
 1106 0010 7047     		bx	lr
 1107              		.cfi_endproc
 1108              	.LFE84:
 1110              		.section	.text.usart_lin_mode_disable,"ax",%progbits
 1111              		.align	1
 1112              		.global	usart_lin_mode_disable
 1113              		.syntax unified
 1114              		.thumb
 1115              		.thumb_func
 1116              		.fpu softvfp
 1118              	usart_lin_mode_disable:
 1119              	.LVL52:
 1120              	.LFB85:
 484:Drivers/GD32F1x0_standard_peripheral/Source/gd32f1x0_usart.c **** 
 485:Drivers/GD32F1x0_standard_peripheral/Source/gd32f1x0_usart.c **** /*!
 486:Drivers/GD32F1x0_standard_peripheral/Source/gd32f1x0_usart.c ****     \brief      LIN mode disable
 487:Drivers/GD32F1x0_standard_peripheral/Source/gd32f1x0_usart.c ****     \param[in]  usart_periph: USARTx(x=0)
 488:Drivers/GD32F1x0_standard_peripheral/Source/gd32f1x0_usart.c ****     \param[out] none
 489:Drivers/GD32F1x0_standard_peripheral/Source/gd32f1x0_usart.c ****     \retval     none
 490:Drivers/GD32F1x0_standard_peripheral/Source/gd32f1x0_usart.c **** */
ARM GAS  /tmp/cc8PYp20.s 			page 29


 491:Drivers/GD32F1x0_standard_peripheral/Source/gd32f1x0_usart.c **** void usart_lin_mode_disable(uint32_t usart_periph)
 492:Drivers/GD32F1x0_standard_peripheral/Source/gd32f1x0_usart.c **** {   
 1121              		.loc 1 492 1 is_stmt 1 view -0
 1122              		.cfi_startproc
 1123              		@ args = 0, pretend = 0, frame = 0
 1124              		@ frame_needed = 0, uses_anonymous_args = 0
 1125              		@ link register save eliminated.
 493:Drivers/GD32F1x0_standard_peripheral/Source/gd32f1x0_usart.c ****     /* disable USART */
 494:Drivers/GD32F1x0_standard_peripheral/Source/gd32f1x0_usart.c ****     USART_CTL0(usart_periph) &= ~(USART_CTL0_UEN);
 1126              		.loc 1 494 5 view .LVU238
 1127              		.loc 1 494 30 is_stmt 0 view .LVU239
 1128 0000 0368     		ldr	r3, [r0]
 1129 0002 23F00103 		bic	r3, r3, #1
 1130 0006 0360     		str	r3, [r0]
 495:Drivers/GD32F1x0_standard_peripheral/Source/gd32f1x0_usart.c ****     
 496:Drivers/GD32F1x0_standard_peripheral/Source/gd32f1x0_usart.c ****     USART_CTL1(usart_periph) &= ~(USART_CTL1_LMEN);
 1131              		.loc 1 496 5 is_stmt 1 view .LVU240
 1132              		.loc 1 496 30 is_stmt 0 view .LVU241
 1133 0008 4368     		ldr	r3, [r0, #4]
 1134 000a 23F48043 		bic	r3, r3, #16384
 1135 000e 4360     		str	r3, [r0, #4]
 497:Drivers/GD32F1x0_standard_peripheral/Source/gd32f1x0_usart.c **** }
 1136              		.loc 1 497 1 view .LVU242
 1137 0010 7047     		bx	lr
 1138              		.cfi_endproc
 1139              	.LFE85:
 1141              		.section	.text.usart_lin_break_dection_length_config,"ax",%progbits
 1142              		.align	1
 1143              		.global	usart_lin_break_dection_length_config
 1144              		.syntax unified
 1145              		.thumb
 1146              		.thumb_func
 1147              		.fpu softvfp
 1149              	usart_lin_break_dection_length_config:
 1150              	.LVL53:
 1151              	.LFB86:
 498:Drivers/GD32F1x0_standard_peripheral/Source/gd32f1x0_usart.c **** 
 499:Drivers/GD32F1x0_standard_peripheral/Source/gd32f1x0_usart.c **** /*!
 500:Drivers/GD32F1x0_standard_peripheral/Source/gd32f1x0_usart.c ****     \brief      LIN break detection length
 501:Drivers/GD32F1x0_standard_peripheral/Source/gd32f1x0_usart.c ****     \param[in]  usart_periph: USARTx(x=0)
 502:Drivers/GD32F1x0_standard_peripheral/Source/gd32f1x0_usart.c ****     \param[in]  lblen: LIN break detection length
 503:Drivers/GD32F1x0_standard_peripheral/Source/gd32f1x0_usart.c ****       \arg        USART_LBLEN_10B: 10 bits break detection
 504:Drivers/GD32F1x0_standard_peripheral/Source/gd32f1x0_usart.c ****       \arg        USART_LBLEN_11B: 11 bits break detection
 505:Drivers/GD32F1x0_standard_peripheral/Source/gd32f1x0_usart.c ****     \param[out] none
 506:Drivers/GD32F1x0_standard_peripheral/Source/gd32f1x0_usart.c ****     \retval     none
 507:Drivers/GD32F1x0_standard_peripheral/Source/gd32f1x0_usart.c **** */
 508:Drivers/GD32F1x0_standard_peripheral/Source/gd32f1x0_usart.c **** void usart_lin_break_dection_length_config(uint32_t usart_periph, uint32_t lblen)
 509:Drivers/GD32F1x0_standard_peripheral/Source/gd32f1x0_usart.c **** {
 1152              		.loc 1 509 1 is_stmt 1 view -0
 1153              		.cfi_startproc
 1154              		@ args = 0, pretend = 0, frame = 0
 1155              		@ frame_needed = 0, uses_anonymous_args = 0
 1156              		@ link register save eliminated.
 510:Drivers/GD32F1x0_standard_peripheral/Source/gd32f1x0_usart.c ****     /* disable USART */
 511:Drivers/GD32F1x0_standard_peripheral/Source/gd32f1x0_usart.c ****     USART_CTL0(usart_periph) &= ~(USART_CTL0_UEN);
 1157              		.loc 1 511 5 view .LVU244
 1158              		.loc 1 511 30 is_stmt 0 view .LVU245
ARM GAS  /tmp/cc8PYp20.s 			page 30


 1159 0000 0368     		ldr	r3, [r0]
 512:Drivers/GD32F1x0_standard_peripheral/Source/gd32f1x0_usart.c ****     
 513:Drivers/GD32F1x0_standard_peripheral/Source/gd32f1x0_usart.c ****     USART_CTL1(usart_periph) |= (USART_CTL1_LBLEN & (lblen));
 1160              		.loc 1 513 51 view .LVU246
 1161 0002 01F02001 		and	r1, r1, #32
 1162              	.LVL54:
 511:Drivers/GD32F1x0_standard_peripheral/Source/gd32f1x0_usart.c ****     
 1163              		.loc 1 511 30 view .LVU247
 1164 0006 23F00103 		bic	r3, r3, #1
 1165 000a 0360     		str	r3, [r0]
 1166              		.loc 1 513 5 is_stmt 1 view .LVU248
 1167              		.loc 1 513 30 is_stmt 0 view .LVU249
 1168 000c 4368     		ldr	r3, [r0, #4]
 1169 000e 1943     		orrs	r1, r1, r3
 1170 0010 4160     		str	r1, [r0, #4]
 514:Drivers/GD32F1x0_standard_peripheral/Source/gd32f1x0_usart.c **** }
 1171              		.loc 1 514 1 view .LVU250
 1172 0012 7047     		bx	lr
 1173              		.cfi_endproc
 1174              	.LFE86:
 1176              		.section	.text.usart_halfduplex_enable,"ax",%progbits
 1177              		.align	1
 1178              		.global	usart_halfduplex_enable
 1179              		.syntax unified
 1180              		.thumb
 1181              		.thumb_func
 1182              		.fpu softvfp
 1184              	usart_halfduplex_enable:
 1185              	.LVL55:
 1186              	.LFB87:
 515:Drivers/GD32F1x0_standard_peripheral/Source/gd32f1x0_usart.c **** 
 516:Drivers/GD32F1x0_standard_peripheral/Source/gd32f1x0_usart.c **** /*!
 517:Drivers/GD32F1x0_standard_peripheral/Source/gd32f1x0_usart.c ****     \brief      half-duplex enable
 518:Drivers/GD32F1x0_standard_peripheral/Source/gd32f1x0_usart.c ****     \param[in]  usart_periph: USARTx(x=0,1)
 519:Drivers/GD32F1x0_standard_peripheral/Source/gd32f1x0_usart.c ****     \param[out] none
 520:Drivers/GD32F1x0_standard_peripheral/Source/gd32f1x0_usart.c ****     \retval     none
 521:Drivers/GD32F1x0_standard_peripheral/Source/gd32f1x0_usart.c **** */
 522:Drivers/GD32F1x0_standard_peripheral/Source/gd32f1x0_usart.c **** void usart_halfduplex_enable(uint32_t usart_periph)
 523:Drivers/GD32F1x0_standard_peripheral/Source/gd32f1x0_usart.c **** {   
 1187              		.loc 1 523 1 is_stmt 1 view -0
 1188              		.cfi_startproc
 1189              		@ args = 0, pretend = 0, frame = 0
 1190              		@ frame_needed = 0, uses_anonymous_args = 0
 1191              		@ link register save eliminated.
 524:Drivers/GD32F1x0_standard_peripheral/Source/gd32f1x0_usart.c ****     /* disable USART */
 525:Drivers/GD32F1x0_standard_peripheral/Source/gd32f1x0_usart.c ****     USART_CTL0(usart_periph) &= ~(USART_CTL0_UEN);
 1192              		.loc 1 525 5 view .LVU252
 1193              		.loc 1 525 30 is_stmt 0 view .LVU253
 1194 0000 0368     		ldr	r3, [r0]
 1195 0002 23F00103 		bic	r3, r3, #1
 1196 0006 0360     		str	r3, [r0]
 526:Drivers/GD32F1x0_standard_peripheral/Source/gd32f1x0_usart.c ****     
 527:Drivers/GD32F1x0_standard_peripheral/Source/gd32f1x0_usart.c ****     USART_CTL2(usart_periph) |= USART_CTL2_HDEN;
 1197              		.loc 1 527 5 is_stmt 1 view .LVU254
 1198              		.loc 1 527 30 is_stmt 0 view .LVU255
 1199 0008 8368     		ldr	r3, [r0, #8]
 1200 000a 43F00803 		orr	r3, r3, #8
ARM GAS  /tmp/cc8PYp20.s 			page 31


 1201 000e 8360     		str	r3, [r0, #8]
 528:Drivers/GD32F1x0_standard_peripheral/Source/gd32f1x0_usart.c **** }
 1202              		.loc 1 528 1 view .LVU256
 1203 0010 7047     		bx	lr
 1204              		.cfi_endproc
 1205              	.LFE87:
 1207              		.section	.text.usart_halfduplex_disable,"ax",%progbits
 1208              		.align	1
 1209              		.global	usart_halfduplex_disable
 1210              		.syntax unified
 1211              		.thumb
 1212              		.thumb_func
 1213              		.fpu softvfp
 1215              	usart_halfduplex_disable:
 1216              	.LVL56:
 1217              	.LFB88:
 529:Drivers/GD32F1x0_standard_peripheral/Source/gd32f1x0_usart.c **** 
 530:Drivers/GD32F1x0_standard_peripheral/Source/gd32f1x0_usart.c **** /*!
 531:Drivers/GD32F1x0_standard_peripheral/Source/gd32f1x0_usart.c ****     \brief      half-duplex disable
 532:Drivers/GD32F1x0_standard_peripheral/Source/gd32f1x0_usart.c ****     \param[in]  usart_periph: USARTx(x=0,1)
 533:Drivers/GD32F1x0_standard_peripheral/Source/gd32f1x0_usart.c ****     \param[out] none
 534:Drivers/GD32F1x0_standard_peripheral/Source/gd32f1x0_usart.c ****     \retval     none
 535:Drivers/GD32F1x0_standard_peripheral/Source/gd32f1x0_usart.c **** */
 536:Drivers/GD32F1x0_standard_peripheral/Source/gd32f1x0_usart.c **** void usart_halfduplex_disable(uint32_t usart_periph)
 537:Drivers/GD32F1x0_standard_peripheral/Source/gd32f1x0_usart.c **** {  
 1218              		.loc 1 537 1 is_stmt 1 view -0
 1219              		.cfi_startproc
 1220              		@ args = 0, pretend = 0, frame = 0
 1221              		@ frame_needed = 0, uses_anonymous_args = 0
 1222              		@ link register save eliminated.
 538:Drivers/GD32F1x0_standard_peripheral/Source/gd32f1x0_usart.c ****     /* disable USART */
 539:Drivers/GD32F1x0_standard_peripheral/Source/gd32f1x0_usart.c ****     USART_CTL0(usart_periph) &= ~(USART_CTL0_UEN);
 1223              		.loc 1 539 5 view .LVU258
 1224              		.loc 1 539 30 is_stmt 0 view .LVU259
 1225 0000 0368     		ldr	r3, [r0]
 1226 0002 23F00103 		bic	r3, r3, #1
 1227 0006 0360     		str	r3, [r0]
 540:Drivers/GD32F1x0_standard_peripheral/Source/gd32f1x0_usart.c ****     
 541:Drivers/GD32F1x0_standard_peripheral/Source/gd32f1x0_usart.c ****     USART_CTL2(usart_periph) &= ~(USART_CTL2_HDEN);
 1228              		.loc 1 541 5 is_stmt 1 view .LVU260
 1229              		.loc 1 541 30 is_stmt 0 view .LVU261
 1230 0008 8368     		ldr	r3, [r0, #8]
 1231 000a 23F00803 		bic	r3, r3, #8
 1232 000e 8360     		str	r3, [r0, #8]
 542:Drivers/GD32F1x0_standard_peripheral/Source/gd32f1x0_usart.c **** }
 1233              		.loc 1 542 1 view .LVU262
 1234 0010 7047     		bx	lr
 1235              		.cfi_endproc
 1236              	.LFE88:
 1238              		.section	.text.usart_clock_enable,"ax",%progbits
 1239              		.align	1
 1240              		.global	usart_clock_enable
 1241              		.syntax unified
 1242              		.thumb
 1243              		.thumb_func
 1244              		.fpu softvfp
 1246              	usart_clock_enable:
ARM GAS  /tmp/cc8PYp20.s 			page 32


 1247              	.LVL57:
 1248              	.LFB89:
 543:Drivers/GD32F1x0_standard_peripheral/Source/gd32f1x0_usart.c **** 
 544:Drivers/GD32F1x0_standard_peripheral/Source/gd32f1x0_usart.c **** /*!
 545:Drivers/GD32F1x0_standard_peripheral/Source/gd32f1x0_usart.c ****     \brief      clock enable
 546:Drivers/GD32F1x0_standard_peripheral/Source/gd32f1x0_usart.c ****     \param[in]  usart_periph: USARTx(x=0)
 547:Drivers/GD32F1x0_standard_peripheral/Source/gd32f1x0_usart.c ****     \param[out] none
 548:Drivers/GD32F1x0_standard_peripheral/Source/gd32f1x0_usart.c ****     \retval     none
 549:Drivers/GD32F1x0_standard_peripheral/Source/gd32f1x0_usart.c **** */
 550:Drivers/GD32F1x0_standard_peripheral/Source/gd32f1x0_usart.c **** void usart_clock_enable(uint32_t usart_periph)
 551:Drivers/GD32F1x0_standard_peripheral/Source/gd32f1x0_usart.c **** {   
 1249              		.loc 1 551 1 is_stmt 1 view -0
 1250              		.cfi_startproc
 1251              		@ args = 0, pretend = 0, frame = 0
 1252              		@ frame_needed = 0, uses_anonymous_args = 0
 1253              		@ link register save eliminated.
 552:Drivers/GD32F1x0_standard_peripheral/Source/gd32f1x0_usart.c ****     /* disable USART */
 553:Drivers/GD32F1x0_standard_peripheral/Source/gd32f1x0_usart.c ****     USART_CTL0(usart_periph) &= ~(USART_CTL0_UEN);
 1254              		.loc 1 553 5 view .LVU264
 1255              		.loc 1 553 30 is_stmt 0 view .LVU265
 1256 0000 0368     		ldr	r3, [r0]
 1257 0002 23F00103 		bic	r3, r3, #1
 1258 0006 0360     		str	r3, [r0]
 554:Drivers/GD32F1x0_standard_peripheral/Source/gd32f1x0_usart.c ****     
 555:Drivers/GD32F1x0_standard_peripheral/Source/gd32f1x0_usart.c ****     USART_CTL1(usart_periph) |= USART_CTL1_CKEN;
 1259              		.loc 1 555 5 is_stmt 1 view .LVU266
 1260              		.loc 1 555 30 is_stmt 0 view .LVU267
 1261 0008 4368     		ldr	r3, [r0, #4]
 1262 000a 43F40063 		orr	r3, r3, #2048
 1263 000e 4360     		str	r3, [r0, #4]
 556:Drivers/GD32F1x0_standard_peripheral/Source/gd32f1x0_usart.c **** }
 1264              		.loc 1 556 1 view .LVU268
 1265 0010 7047     		bx	lr
 1266              		.cfi_endproc
 1267              	.LFE89:
 1269              		.section	.text.usart_clock_disable,"ax",%progbits
 1270              		.align	1
 1271              		.global	usart_clock_disable
 1272              		.syntax unified
 1273              		.thumb
 1274              		.thumb_func
 1275              		.fpu softvfp
 1277              	usart_clock_disable:
 1278              	.LVL58:
 1279              	.LFB90:
 557:Drivers/GD32F1x0_standard_peripheral/Source/gd32f1x0_usart.c **** 
 558:Drivers/GD32F1x0_standard_peripheral/Source/gd32f1x0_usart.c **** /*!
 559:Drivers/GD32F1x0_standard_peripheral/Source/gd32f1x0_usart.c ****     \brief      clock disable
 560:Drivers/GD32F1x0_standard_peripheral/Source/gd32f1x0_usart.c ****     \param[in]  usart_periph: USARTx(x=0)
 561:Drivers/GD32F1x0_standard_peripheral/Source/gd32f1x0_usart.c ****     \param[out] none
 562:Drivers/GD32F1x0_standard_peripheral/Source/gd32f1x0_usart.c ****     \retval     none
 563:Drivers/GD32F1x0_standard_peripheral/Source/gd32f1x0_usart.c **** */
 564:Drivers/GD32F1x0_standard_peripheral/Source/gd32f1x0_usart.c **** void usart_clock_disable(uint32_t usart_periph)
 565:Drivers/GD32F1x0_standard_peripheral/Source/gd32f1x0_usart.c **** {  
 1280              		.loc 1 565 1 is_stmt 1 view -0
 1281              		.cfi_startproc
 1282              		@ args = 0, pretend = 0, frame = 0
ARM GAS  /tmp/cc8PYp20.s 			page 33


 1283              		@ frame_needed = 0, uses_anonymous_args = 0
 1284              		@ link register save eliminated.
 566:Drivers/GD32F1x0_standard_peripheral/Source/gd32f1x0_usart.c ****     /* disable USART */
 567:Drivers/GD32F1x0_standard_peripheral/Source/gd32f1x0_usart.c ****     USART_CTL0(usart_periph) &= ~(USART_CTL0_UEN);
 1285              		.loc 1 567 5 view .LVU270
 1286              		.loc 1 567 30 is_stmt 0 view .LVU271
 1287 0000 0368     		ldr	r3, [r0]
 1288 0002 23F00103 		bic	r3, r3, #1
 1289 0006 0360     		str	r3, [r0]
 568:Drivers/GD32F1x0_standard_peripheral/Source/gd32f1x0_usart.c ****     
 569:Drivers/GD32F1x0_standard_peripheral/Source/gd32f1x0_usart.c ****     USART_CTL1(usart_periph) &= ~(USART_CTL1_CKEN);
 1290              		.loc 1 569 5 is_stmt 1 view .LVU272
 1291              		.loc 1 569 30 is_stmt 0 view .LVU273
 1292 0008 4368     		ldr	r3, [r0, #4]
 1293 000a 23F40063 		bic	r3, r3, #2048
 1294 000e 4360     		str	r3, [r0, #4]
 570:Drivers/GD32F1x0_standard_peripheral/Source/gd32f1x0_usart.c **** }
 1295              		.loc 1 570 1 view .LVU274
 1296 0010 7047     		bx	lr
 1297              		.cfi_endproc
 1298              	.LFE90:
 1300              		.section	.text.usart_synchronous_clock_config,"ax",%progbits
 1301              		.align	1
 1302              		.global	usart_synchronous_clock_config
 1303              		.syntax unified
 1304              		.thumb
 1305              		.thumb_func
 1306              		.fpu softvfp
 1308              	usart_synchronous_clock_config:
 1309              	.LVL59:
 1310              	.LFB91:
 571:Drivers/GD32F1x0_standard_peripheral/Source/gd32f1x0_usart.c **** 
 572:Drivers/GD32F1x0_standard_peripheral/Source/gd32f1x0_usart.c **** /*!
 573:Drivers/GD32F1x0_standard_peripheral/Source/gd32f1x0_usart.c ****     \brief      configure USART synchronous mode parameters
 574:Drivers/GD32F1x0_standard_peripheral/Source/gd32f1x0_usart.c ****     \param[in]  usart_periph: USARTx(x=0,1)
 575:Drivers/GD32F1x0_standard_peripheral/Source/gd32f1x0_usart.c ****     \param[in]  clen: last bit clock pulse
 576:Drivers/GD32F1x0_standard_peripheral/Source/gd32f1x0_usart.c ****       \arg        USART_CLEN_NONE: clock pulse of the last data bit (MSB) is not output to the CK p
 577:Drivers/GD32F1x0_standard_peripheral/Source/gd32f1x0_usart.c ****       \arg        USART_CLEN_EN:   clock pulse of the last data bit (MSB) is output to the CK pin  
 578:Drivers/GD32F1x0_standard_peripheral/Source/gd32f1x0_usart.c ****     \param[in]  cph: clock phase
 579:Drivers/GD32F1x0_standard_peripheral/Source/gd32f1x0_usart.c ****       \arg        USART_CPH_1CK: first clock transition is the first data capture edge 
 580:Drivers/GD32F1x0_standard_peripheral/Source/gd32f1x0_usart.c ****       \arg        USART_CPH_2CK: second clock transition is the first data capture edge
 581:Drivers/GD32F1x0_standard_peripheral/Source/gd32f1x0_usart.c ****     \param[in]  cpl: clock polarity 
 582:Drivers/GD32F1x0_standard_peripheral/Source/gd32f1x0_usart.c ****       \arg        USART_CPL_LOW:  steady low value on CK pin 
 583:Drivers/GD32F1x0_standard_peripheral/Source/gd32f1x0_usart.c ****       \arg        USART_CPL_HIGH: steady high value on CK pin
 584:Drivers/GD32F1x0_standard_peripheral/Source/gd32f1x0_usart.c ****     \param[out] none
 585:Drivers/GD32F1x0_standard_peripheral/Source/gd32f1x0_usart.c ****     \retval     none
 586:Drivers/GD32F1x0_standard_peripheral/Source/gd32f1x0_usart.c **** */
 587:Drivers/GD32F1x0_standard_peripheral/Source/gd32f1x0_usart.c **** void usart_synchronous_clock_config(uint32_t usart_periph, uint32_t clen, uint32_t cph, uint32_t cp
 588:Drivers/GD32F1x0_standard_peripheral/Source/gd32f1x0_usart.c **** {
 1311              		.loc 1 588 1 is_stmt 1 view -0
 1312              		.cfi_startproc
 1313              		@ args = 0, pretend = 0, frame = 0
 1314              		@ frame_needed = 0, uses_anonymous_args = 0
 589:Drivers/GD32F1x0_standard_peripheral/Source/gd32f1x0_usart.c ****     /* disable USART */
 590:Drivers/GD32F1x0_standard_peripheral/Source/gd32f1x0_usart.c ****     USART_CTL0(usart_periph) &= ~(USART_CTL0_UEN);
 1315              		.loc 1 590 5 view .LVU276
 588:Drivers/GD32F1x0_standard_peripheral/Source/gd32f1x0_usart.c ****     /* disable USART */
ARM GAS  /tmp/cc8PYp20.s 			page 34


 1316              		.loc 1 588 1 is_stmt 0 view .LVU277
 1317 0000 10B5     		push	{r4, lr}
 1318              	.LCFI4:
 1319              		.cfi_def_cfa_offset 8
 1320              		.cfi_offset 4, -8
 1321              		.cfi_offset 14, -4
 1322              		.loc 1 590 30 view .LVU278
 1323 0002 0468     		ldr	r4, [r0]
 591:Drivers/GD32F1x0_standard_peripheral/Source/gd32f1x0_usart.c ****     /*  reset USART_CTL1 CLEN,CPH,CPL bits */
 592:Drivers/GD32F1x0_standard_peripheral/Source/gd32f1x0_usart.c ****     USART_CTL1(usart_periph) &= ~(USART_CTL1_CLEN | USART_CTL1_CPH | USART_CTL1_CPL);
 593:Drivers/GD32F1x0_standard_peripheral/Source/gd32f1x0_usart.c **** 
 594:Drivers/GD32F1x0_standard_peripheral/Source/gd32f1x0_usart.c ****     USART_CTL1(usart_periph) |= (USART_CTL1_CLEN & clen);
 1324              		.loc 1 594 50 view .LVU279
 1325 0004 01F48071 		and	r1, r1, #256
 1326              	.LVL60:
 590:Drivers/GD32F1x0_standard_peripheral/Source/gd32f1x0_usart.c ****     /*  reset USART_CTL1 CLEN,CPH,CPL bits */
 1327              		.loc 1 590 30 view .LVU280
 1328 0008 24F00104 		bic	r4, r4, #1
 1329 000c 0460     		str	r4, [r0]
 592:Drivers/GD32F1x0_standard_peripheral/Source/gd32f1x0_usart.c **** 
 1330              		.loc 1 592 5 is_stmt 1 view .LVU281
 592:Drivers/GD32F1x0_standard_peripheral/Source/gd32f1x0_usart.c **** 
 1331              		.loc 1 592 30 is_stmt 0 view .LVU282
 1332 000e 4468     		ldr	r4, [r0, #4]
 595:Drivers/GD32F1x0_standard_peripheral/Source/gd32f1x0_usart.c ****     USART_CTL1(usart_periph) |= (USART_CTL1_CPH & cph);
 1333              		.loc 1 595 49 view .LVU283
 1334 0010 02F40072 		and	r2, r2, #512
 1335              	.LVL61:
 592:Drivers/GD32F1x0_standard_peripheral/Source/gd32f1x0_usart.c **** 
 1336              		.loc 1 592 30 view .LVU284
 1337 0014 24F4E064 		bic	r4, r4, #1792
 1338 0018 4460     		str	r4, [r0, #4]
 594:Drivers/GD32F1x0_standard_peripheral/Source/gd32f1x0_usart.c ****     USART_CTL1(usart_periph) |= (USART_CTL1_CPH & cph);
 1339              		.loc 1 594 5 is_stmt 1 view .LVU285
 594:Drivers/GD32F1x0_standard_peripheral/Source/gd32f1x0_usart.c ****     USART_CTL1(usart_periph) |= (USART_CTL1_CPH & cph);
 1340              		.loc 1 594 30 is_stmt 0 view .LVU286
 1341 001a 4468     		ldr	r4, [r0, #4]
 596:Drivers/GD32F1x0_standard_peripheral/Source/gd32f1x0_usart.c ****     USART_CTL1(usart_periph) |= (USART_CTL1_CPL & cpl);
 1342              		.loc 1 596 49 view .LVU287
 1343 001c 03F48063 		and	r3, r3, #1024
 1344              	.LVL62:
 594:Drivers/GD32F1x0_standard_peripheral/Source/gd32f1x0_usart.c ****     USART_CTL1(usart_periph) |= (USART_CTL1_CPH & cph);
 1345              		.loc 1 594 30 view .LVU288
 1346 0020 2143     		orrs	r1, r1, r4
 1347 0022 4160     		str	r1, [r0, #4]
 595:Drivers/GD32F1x0_standard_peripheral/Source/gd32f1x0_usart.c ****     USART_CTL1(usart_periph) |= (USART_CTL1_CPH & cph);
 1348              		.loc 1 595 5 is_stmt 1 view .LVU289
 595:Drivers/GD32F1x0_standard_peripheral/Source/gd32f1x0_usart.c ****     USART_CTL1(usart_periph) |= (USART_CTL1_CPH & cph);
 1349              		.loc 1 595 30 is_stmt 0 view .LVU290
 1350 0024 4168     		ldr	r1, [r0, #4]
 1351 0026 0A43     		orrs	r2, r2, r1
 1352 0028 4260     		str	r2, [r0, #4]
 1353              		.loc 1 596 5 is_stmt 1 view .LVU291
 1354              		.loc 1 596 30 is_stmt 0 view .LVU292
 1355 002a 4268     		ldr	r2, [r0, #4]
 1356 002c 1343     		orrs	r3, r3, r2
 1357 002e 4360     		str	r3, [r0, #4]
ARM GAS  /tmp/cc8PYp20.s 			page 35


 597:Drivers/GD32F1x0_standard_peripheral/Source/gd32f1x0_usart.c **** }
 1358              		.loc 1 597 1 view .LVU293
 1359 0030 10BD     		pop	{r4, pc}
 1360              		.cfi_endproc
 1361              	.LFE91:
 1363              		.section	.text.usart_smartcard_mode_enable,"ax",%progbits
 1364              		.align	1
 1365              		.global	usart_smartcard_mode_enable
 1366              		.syntax unified
 1367              		.thumb
 1368              		.thumb_func
 1369              		.fpu softvfp
 1371              	usart_smartcard_mode_enable:
 1372              	.LVL63:
 1373              	.LFB92:
 598:Drivers/GD32F1x0_standard_peripheral/Source/gd32f1x0_usart.c **** 
 599:Drivers/GD32F1x0_standard_peripheral/Source/gd32f1x0_usart.c **** /*!
 600:Drivers/GD32F1x0_standard_peripheral/Source/gd32f1x0_usart.c ****     \brief      smartcard mode enable
 601:Drivers/GD32F1x0_standard_peripheral/Source/gd32f1x0_usart.c ****     \param[in]  usart_periph: USARTx(x=0)
 602:Drivers/GD32F1x0_standard_peripheral/Source/gd32f1x0_usart.c ****     \param[out] none
 603:Drivers/GD32F1x0_standard_peripheral/Source/gd32f1x0_usart.c ****     \retval     none
 604:Drivers/GD32F1x0_standard_peripheral/Source/gd32f1x0_usart.c **** */
 605:Drivers/GD32F1x0_standard_peripheral/Source/gd32f1x0_usart.c **** void usart_smartcard_mode_enable(uint32_t usart_periph)
 606:Drivers/GD32F1x0_standard_peripheral/Source/gd32f1x0_usart.c **** {   
 1374              		.loc 1 606 1 is_stmt 1 view -0
 1375              		.cfi_startproc
 1376              		@ args = 0, pretend = 0, frame = 0
 1377              		@ frame_needed = 0, uses_anonymous_args = 0
 1378              		@ link register save eliminated.
 607:Drivers/GD32F1x0_standard_peripheral/Source/gd32f1x0_usart.c ****     /* disable USART */
 608:Drivers/GD32F1x0_standard_peripheral/Source/gd32f1x0_usart.c ****     USART_CTL0(usart_periph) &= ~(USART_CTL0_UEN);
 1379              		.loc 1 608 5 view .LVU295
 1380              		.loc 1 608 30 is_stmt 0 view .LVU296
 1381 0000 0368     		ldr	r3, [r0]
 1382 0002 23F00103 		bic	r3, r3, #1
 1383 0006 0360     		str	r3, [r0]
 609:Drivers/GD32F1x0_standard_peripheral/Source/gd32f1x0_usart.c ****     
 610:Drivers/GD32F1x0_standard_peripheral/Source/gd32f1x0_usart.c ****     USART_CTL2(usart_periph) |= USART_CTL2_SCEN;
 1384              		.loc 1 610 5 is_stmt 1 view .LVU297
 1385              		.loc 1 610 30 is_stmt 0 view .LVU298
 1386 0008 8368     		ldr	r3, [r0, #8]
 1387 000a 43F02003 		orr	r3, r3, #32
 1388 000e 8360     		str	r3, [r0, #8]
 611:Drivers/GD32F1x0_standard_peripheral/Source/gd32f1x0_usart.c **** }
 1389              		.loc 1 611 1 view .LVU299
 1390 0010 7047     		bx	lr
 1391              		.cfi_endproc
 1392              	.LFE92:
 1394              		.section	.text.usart_smartcard_mode_disable,"ax",%progbits
 1395              		.align	1
 1396              		.global	usart_smartcard_mode_disable
 1397              		.syntax unified
 1398              		.thumb
 1399              		.thumb_func
 1400              		.fpu softvfp
 1402              	usart_smartcard_mode_disable:
 1403              	.LVL64:
ARM GAS  /tmp/cc8PYp20.s 			page 36


 1404              	.LFB93:
 612:Drivers/GD32F1x0_standard_peripheral/Source/gd32f1x0_usart.c **** 
 613:Drivers/GD32F1x0_standard_peripheral/Source/gd32f1x0_usart.c **** /*!
 614:Drivers/GD32F1x0_standard_peripheral/Source/gd32f1x0_usart.c ****     \brief      smartcard mode disable
 615:Drivers/GD32F1x0_standard_peripheral/Source/gd32f1x0_usart.c ****     \param[in]  usart_periph: USARTx(x=0)
 616:Drivers/GD32F1x0_standard_peripheral/Source/gd32f1x0_usart.c ****     \param[out] none
 617:Drivers/GD32F1x0_standard_peripheral/Source/gd32f1x0_usart.c ****     \retval     none
 618:Drivers/GD32F1x0_standard_peripheral/Source/gd32f1x0_usart.c **** */
 619:Drivers/GD32F1x0_standard_peripheral/Source/gd32f1x0_usart.c **** void usart_smartcard_mode_disable(uint32_t usart_periph)
 620:Drivers/GD32F1x0_standard_peripheral/Source/gd32f1x0_usart.c **** {  
 1405              		.loc 1 620 1 is_stmt 1 view -0
 1406              		.cfi_startproc
 1407              		@ args = 0, pretend = 0, frame = 0
 1408              		@ frame_needed = 0, uses_anonymous_args = 0
 1409              		@ link register save eliminated.
 621:Drivers/GD32F1x0_standard_peripheral/Source/gd32f1x0_usart.c ****     /* disable USART */
 622:Drivers/GD32F1x0_standard_peripheral/Source/gd32f1x0_usart.c ****     USART_CTL0(usart_periph) &= ~(USART_CTL0_UEN);
 1410              		.loc 1 622 5 view .LVU301
 1411              		.loc 1 622 30 is_stmt 0 view .LVU302
 1412 0000 0368     		ldr	r3, [r0]
 1413 0002 23F00103 		bic	r3, r3, #1
 1414 0006 0360     		str	r3, [r0]
 623:Drivers/GD32F1x0_standard_peripheral/Source/gd32f1x0_usart.c ****     
 624:Drivers/GD32F1x0_standard_peripheral/Source/gd32f1x0_usart.c ****     USART_CTL2(usart_periph) &= ~(USART_CTL2_SCEN);
 1415              		.loc 1 624 5 is_stmt 1 view .LVU303
 1416              		.loc 1 624 30 is_stmt 0 view .LVU304
 1417 0008 8368     		ldr	r3, [r0, #8]
 1418 000a 23F02003 		bic	r3, r3, #32
 1419 000e 8360     		str	r3, [r0, #8]
 625:Drivers/GD32F1x0_standard_peripheral/Source/gd32f1x0_usart.c **** }
 1420              		.loc 1 625 1 view .LVU305
 1421 0010 7047     		bx	lr
 1422              		.cfi_endproc
 1423              	.LFE93:
 1425              		.section	.text.usart_smartcard_mode_nack_enable,"ax",%progbits
 1426              		.align	1
 1427              		.global	usart_smartcard_mode_nack_enable
 1428              		.syntax unified
 1429              		.thumb
 1430              		.thumb_func
 1431              		.fpu softvfp
 1433              	usart_smartcard_mode_nack_enable:
 1434              	.LVL65:
 1435              	.LFB94:
 626:Drivers/GD32F1x0_standard_peripheral/Source/gd32f1x0_usart.c **** 
 627:Drivers/GD32F1x0_standard_peripheral/Source/gd32f1x0_usart.c **** /*!
 628:Drivers/GD32F1x0_standard_peripheral/Source/gd32f1x0_usart.c ****     \brief      NACK enable in smartcard mode
 629:Drivers/GD32F1x0_standard_peripheral/Source/gd32f1x0_usart.c ****     \param[in]  usart_periph: USARTx(x=0)
 630:Drivers/GD32F1x0_standard_peripheral/Source/gd32f1x0_usart.c ****     \param[out] none
 631:Drivers/GD32F1x0_standard_peripheral/Source/gd32f1x0_usart.c ****     \retval     none
 632:Drivers/GD32F1x0_standard_peripheral/Source/gd32f1x0_usart.c **** */
 633:Drivers/GD32F1x0_standard_peripheral/Source/gd32f1x0_usart.c **** void usart_smartcard_mode_nack_enable(uint32_t usart_periph)
 634:Drivers/GD32F1x0_standard_peripheral/Source/gd32f1x0_usart.c **** {   
 1436              		.loc 1 634 1 is_stmt 1 view -0
 1437              		.cfi_startproc
 1438              		@ args = 0, pretend = 0, frame = 0
 1439              		@ frame_needed = 0, uses_anonymous_args = 0
ARM GAS  /tmp/cc8PYp20.s 			page 37


 1440              		@ link register save eliminated.
 635:Drivers/GD32F1x0_standard_peripheral/Source/gd32f1x0_usart.c ****     /* disable USART */
 636:Drivers/GD32F1x0_standard_peripheral/Source/gd32f1x0_usart.c ****     USART_CTL0(usart_periph) &= ~(USART_CTL0_UEN);
 1441              		.loc 1 636 5 view .LVU307
 1442              		.loc 1 636 30 is_stmt 0 view .LVU308
 1443 0000 0368     		ldr	r3, [r0]
 1444 0002 23F00103 		bic	r3, r3, #1
 1445 0006 0360     		str	r3, [r0]
 637:Drivers/GD32F1x0_standard_peripheral/Source/gd32f1x0_usart.c ****     
 638:Drivers/GD32F1x0_standard_peripheral/Source/gd32f1x0_usart.c ****     USART_CTL2(usart_periph) |= USART_CTL2_NKEN;
 1446              		.loc 1 638 5 is_stmt 1 view .LVU309
 1447              		.loc 1 638 30 is_stmt 0 view .LVU310
 1448 0008 8368     		ldr	r3, [r0, #8]
 1449 000a 43F01003 		orr	r3, r3, #16
 1450 000e 8360     		str	r3, [r0, #8]
 639:Drivers/GD32F1x0_standard_peripheral/Source/gd32f1x0_usart.c **** }
 1451              		.loc 1 639 1 view .LVU311
 1452 0010 7047     		bx	lr
 1453              		.cfi_endproc
 1454              	.LFE94:
 1456              		.section	.text.usart_smartcard_mode_nack_disable,"ax",%progbits
 1457              		.align	1
 1458              		.global	usart_smartcard_mode_nack_disable
 1459              		.syntax unified
 1460              		.thumb
 1461              		.thumb_func
 1462              		.fpu softvfp
 1464              	usart_smartcard_mode_nack_disable:
 1465              	.LVL66:
 1466              	.LFB95:
 640:Drivers/GD32F1x0_standard_peripheral/Source/gd32f1x0_usart.c **** 
 641:Drivers/GD32F1x0_standard_peripheral/Source/gd32f1x0_usart.c **** /*!
 642:Drivers/GD32F1x0_standard_peripheral/Source/gd32f1x0_usart.c ****     \brief      NACK disable in smartcard mode
 643:Drivers/GD32F1x0_standard_peripheral/Source/gd32f1x0_usart.c ****     \param[in]  usart_periph: USARTx(x=0)
 644:Drivers/GD32F1x0_standard_peripheral/Source/gd32f1x0_usart.c ****     \param[out] none
 645:Drivers/GD32F1x0_standard_peripheral/Source/gd32f1x0_usart.c ****     \retval     none
 646:Drivers/GD32F1x0_standard_peripheral/Source/gd32f1x0_usart.c **** */
 647:Drivers/GD32F1x0_standard_peripheral/Source/gd32f1x0_usart.c **** void usart_smartcard_mode_nack_disable(uint32_t usart_periph)
 648:Drivers/GD32F1x0_standard_peripheral/Source/gd32f1x0_usart.c **** {  
 1467              		.loc 1 648 1 is_stmt 1 view -0
 1468              		.cfi_startproc
 1469              		@ args = 0, pretend = 0, frame = 0
 1470              		@ frame_needed = 0, uses_anonymous_args = 0
 1471              		@ link register save eliminated.
 649:Drivers/GD32F1x0_standard_peripheral/Source/gd32f1x0_usart.c ****     /* disable USART */
 650:Drivers/GD32F1x0_standard_peripheral/Source/gd32f1x0_usart.c ****     USART_CTL0(usart_periph) &= ~(USART_CTL0_UEN);
 1472              		.loc 1 650 5 view .LVU313
 1473              		.loc 1 650 30 is_stmt 0 view .LVU314
 1474 0000 0368     		ldr	r3, [r0]
 1475 0002 23F00103 		bic	r3, r3, #1
 1476 0006 0360     		str	r3, [r0]
 651:Drivers/GD32F1x0_standard_peripheral/Source/gd32f1x0_usart.c ****     
 652:Drivers/GD32F1x0_standard_peripheral/Source/gd32f1x0_usart.c ****     USART_CTL2(usart_periph) &= ~(USART_CTL2_NKEN);
 1477              		.loc 1 652 5 is_stmt 1 view .LVU315
 1478              		.loc 1 652 30 is_stmt 0 view .LVU316
 1479 0008 8368     		ldr	r3, [r0, #8]
 1480 000a 23F01003 		bic	r3, r3, #16
ARM GAS  /tmp/cc8PYp20.s 			page 38


 1481 000e 8360     		str	r3, [r0, #8]
 653:Drivers/GD32F1x0_standard_peripheral/Source/gd32f1x0_usart.c **** }
 1482              		.loc 1 653 1 view .LVU317
 1483 0010 7047     		bx	lr
 1484              		.cfi_endproc
 1485              	.LFE95:
 1487              		.section	.text.usart_guard_time_config,"ax",%progbits
 1488              		.align	1
 1489              		.global	usart_guard_time_config
 1490              		.syntax unified
 1491              		.thumb
 1492              		.thumb_func
 1493              		.fpu softvfp
 1495              	usart_guard_time_config:
 1496              	.LVL67:
 1497              	.LFB96:
 654:Drivers/GD32F1x0_standard_peripheral/Source/gd32f1x0_usart.c **** 
 655:Drivers/GD32F1x0_standard_peripheral/Source/gd32f1x0_usart.c **** /*!
 656:Drivers/GD32F1x0_standard_peripheral/Source/gd32f1x0_usart.c ****     \brief      guard time value configure in smartcard mode
 657:Drivers/GD32F1x0_standard_peripheral/Source/gd32f1x0_usart.c ****     \param[in]  usart_periph: USARTx(x=0)
 658:Drivers/GD32F1x0_standard_peripheral/Source/gd32f1x0_usart.c ****     \param[in]  guat: 0x00-0xFF
 659:Drivers/GD32F1x0_standard_peripheral/Source/gd32f1x0_usart.c ****     \param[out] none
 660:Drivers/GD32F1x0_standard_peripheral/Source/gd32f1x0_usart.c ****     \retval     none
 661:Drivers/GD32F1x0_standard_peripheral/Source/gd32f1x0_usart.c **** */
 662:Drivers/GD32F1x0_standard_peripheral/Source/gd32f1x0_usart.c **** void usart_guard_time_config(uint32_t usart_periph, uint32_t guat)
 663:Drivers/GD32F1x0_standard_peripheral/Source/gd32f1x0_usart.c **** {
 1498              		.loc 1 663 1 is_stmt 1 view -0
 1499              		.cfi_startproc
 1500              		@ args = 0, pretend = 0, frame = 0
 1501              		@ frame_needed = 0, uses_anonymous_args = 0
 1502              		@ link register save eliminated.
 664:Drivers/GD32F1x0_standard_peripheral/Source/gd32f1x0_usart.c ****     /* disable USART */
 665:Drivers/GD32F1x0_standard_peripheral/Source/gd32f1x0_usart.c ****     USART_CTL0(usart_periph) &= ~(USART_CTL0_UEN);
 1503              		.loc 1 665 5 view .LVU319
 1504              		.loc 1 665 30 is_stmt 0 view .LVU320
 1505 0000 0368     		ldr	r3, [r0]
 666:Drivers/GD32F1x0_standard_peripheral/Source/gd32f1x0_usart.c ****     
 667:Drivers/GD32F1x0_standard_peripheral/Source/gd32f1x0_usart.c ****     USART_GP(usart_periph) &= ~(USART_GP_GUAT);
 668:Drivers/GD32F1x0_standard_peripheral/Source/gd32f1x0_usart.c ****     USART_GP(usart_periph) |= (USART_GP_GUAT & ((guat) << 8));
 1506              		.loc 1 668 56 view .LVU321
 1507 0002 0902     		lsls	r1, r1, #8
 1508              	.LVL68:
 665:Drivers/GD32F1x0_standard_peripheral/Source/gd32f1x0_usart.c ****     
 1509              		.loc 1 665 30 view .LVU322
 1510 0004 23F00103 		bic	r3, r3, #1
 1511 0008 0360     		str	r3, [r0]
 667:Drivers/GD32F1x0_standard_peripheral/Source/gd32f1x0_usart.c ****     USART_GP(usart_periph) |= (USART_GP_GUAT & ((guat) << 8));
 1512              		.loc 1 667 5 is_stmt 1 view .LVU323
 667:Drivers/GD32F1x0_standard_peripheral/Source/gd32f1x0_usart.c ****     USART_GP(usart_periph) |= (USART_GP_GUAT & ((guat) << 8));
 1513              		.loc 1 667 28 is_stmt 0 view .LVU324
 1514 000a 0369     		ldr	r3, [r0, #16]
 1515              		.loc 1 668 46 view .LVU325
 1516 000c 89B2     		uxth	r1, r1
 667:Drivers/GD32F1x0_standard_peripheral/Source/gd32f1x0_usart.c ****     USART_GP(usart_periph) |= (USART_GP_GUAT & ((guat) << 8));
 1517              		.loc 1 667 28 view .LVU326
 1518 000e 23F47F43 		bic	r3, r3, #65280
 1519 0012 0361     		str	r3, [r0, #16]
ARM GAS  /tmp/cc8PYp20.s 			page 39


 1520              		.loc 1 668 5 is_stmt 1 view .LVU327
 1521              		.loc 1 668 28 is_stmt 0 view .LVU328
 1522 0014 0369     		ldr	r3, [r0, #16]
 1523 0016 1943     		orrs	r1, r1, r3
 1524 0018 0161     		str	r1, [r0, #16]
 669:Drivers/GD32F1x0_standard_peripheral/Source/gd32f1x0_usart.c **** }
 1525              		.loc 1 669 1 view .LVU329
 1526 001a 7047     		bx	lr
 1527              		.cfi_endproc
 1528              	.LFE96:
 1530              		.section	.text.usart_block_length_config,"ax",%progbits
 1531              		.align	1
 1532              		.global	usart_block_length_config
 1533              		.syntax unified
 1534              		.thumb
 1535              		.thumb_func
 1536              		.fpu softvfp
 1538              	usart_block_length_config:
 1539              	.LVL69:
 1540              	.LFB97:
 670:Drivers/GD32F1x0_standard_peripheral/Source/gd32f1x0_usart.c **** 
 671:Drivers/GD32F1x0_standard_peripheral/Source/gd32f1x0_usart.c **** /*!
 672:Drivers/GD32F1x0_standard_peripheral/Source/gd32f1x0_usart.c ****     \brief      block length configure
 673:Drivers/GD32F1x0_standard_peripheral/Source/gd32f1x0_usart.c ****     \param[in]  usart_periph: USARTx(x=0)
 674:Drivers/GD32F1x0_standard_peripheral/Source/gd32f1x0_usart.c ****     \param[in]  bl: 0x00-0xFF
 675:Drivers/GD32F1x0_standard_peripheral/Source/gd32f1x0_usart.c ****     \param[out] none
 676:Drivers/GD32F1x0_standard_peripheral/Source/gd32f1x0_usart.c ****     \retval     none
 677:Drivers/GD32F1x0_standard_peripheral/Source/gd32f1x0_usart.c **** */
 678:Drivers/GD32F1x0_standard_peripheral/Source/gd32f1x0_usart.c **** void usart_block_length_config(uint32_t usart_periph, uint32_t bl)
 679:Drivers/GD32F1x0_standard_peripheral/Source/gd32f1x0_usart.c **** {   
 1541              		.loc 1 679 1 is_stmt 1 view -0
 1542              		.cfi_startproc
 1543              		@ args = 0, pretend = 0, frame = 0
 1544              		@ frame_needed = 0, uses_anonymous_args = 0
 1545              		@ link register save eliminated.
 680:Drivers/GD32F1x0_standard_peripheral/Source/gd32f1x0_usart.c ****     USART_RT(usart_periph) &= ~(USART_RT_BL);
 1546              		.loc 1 680 5 view .LVU331
 1547              		.loc 1 680 28 is_stmt 0 view .LVU332
 1548 0000 4269     		ldr	r2, [r0, #20]
 1549 0002 22F07F42 		bic	r2, r2, #-16777216
 1550 0006 4261     		str	r2, [r0, #20]
 681:Drivers/GD32F1x0_standard_peripheral/Source/gd32f1x0_usart.c ****     USART_RT(usart_periph) |= (USART_RT_BL & ((bl) << 24));
 1551              		.loc 1 681 5 is_stmt 1 view .LVU333
 1552              		.loc 1 681 28 is_stmt 0 view .LVU334
 1553 0008 4369     		ldr	r3, [r0, #20]
 1554 000a 43EA0163 		orr	r3, r3, r1, lsl #24
 1555 000e 4361     		str	r3, [r0, #20]
 682:Drivers/GD32F1x0_standard_peripheral/Source/gd32f1x0_usart.c **** }
 1556              		.loc 1 682 1 view .LVU335
 1557 0010 7047     		bx	lr
 1558              		.cfi_endproc
 1559              	.LFE97:
 1561              		.section	.text.usart_smartcard_autoretry_config,"ax",%progbits
 1562              		.align	1
 1563              		.global	usart_smartcard_autoretry_config
 1564              		.syntax unified
 1565              		.thumb
ARM GAS  /tmp/cc8PYp20.s 			page 40


 1566              		.thumb_func
 1567              		.fpu softvfp
 1569              	usart_smartcard_autoretry_config:
 1570              	.LVL70:
 1571              	.LFB98:
 683:Drivers/GD32F1x0_standard_peripheral/Source/gd32f1x0_usart.c **** 
 684:Drivers/GD32F1x0_standard_peripheral/Source/gd32f1x0_usart.c **** /*!
 685:Drivers/GD32F1x0_standard_peripheral/Source/gd32f1x0_usart.c ****     \brief      smartcard auto-retry number configure
 686:Drivers/GD32F1x0_standard_peripheral/Source/gd32f1x0_usart.c ****     \param[in]  usart_periph: USARTx(x=0)
 687:Drivers/GD32F1x0_standard_peripheral/Source/gd32f1x0_usart.c ****     \param[in]  scrtnum: 0x0-0x7, smartcard auto-retry number
 688:Drivers/GD32F1x0_standard_peripheral/Source/gd32f1x0_usart.c ****     \param[out] none
 689:Drivers/GD32F1x0_standard_peripheral/Source/gd32f1x0_usart.c ****     \retval     none
 690:Drivers/GD32F1x0_standard_peripheral/Source/gd32f1x0_usart.c **** */
 691:Drivers/GD32F1x0_standard_peripheral/Source/gd32f1x0_usart.c **** void usart_smartcard_autoretry_config(uint32_t usart_periph, uint32_t scrtnum)
 692:Drivers/GD32F1x0_standard_peripheral/Source/gd32f1x0_usart.c **** {   
 1572              		.loc 1 692 1 is_stmt 1 view -0
 1573              		.cfi_startproc
 1574              		@ args = 0, pretend = 0, frame = 0
 1575              		@ frame_needed = 0, uses_anonymous_args = 0
 1576              		@ link register save eliminated.
 693:Drivers/GD32F1x0_standard_peripheral/Source/gd32f1x0_usart.c ****     /* disable USART */
 694:Drivers/GD32F1x0_standard_peripheral/Source/gd32f1x0_usart.c ****     USART_CTL0(usart_periph) &= ~(USART_CTL0_UEN);
 1577              		.loc 1 694 5 view .LVU337
 1578              		.loc 1 694 30 is_stmt 0 view .LVU338
 1579 0000 0368     		ldr	r3, [r0]
 695:Drivers/GD32F1x0_standard_peripheral/Source/gd32f1x0_usart.c ****     
 696:Drivers/GD32F1x0_standard_peripheral/Source/gd32f1x0_usart.c ****     USART_CTL2(usart_periph) &= ~(USART_CTL2_SCRTNUM);    
 697:Drivers/GD32F1x0_standard_peripheral/Source/gd32f1x0_usart.c ****     USART_CTL2(usart_periph) |= (USART_CTL2_SCRTNUM & ((scrtnum) << 17));
 1580              		.loc 1 697 66 view .LVU339
 1581 0002 4904     		lsls	r1, r1, #17
 1582              	.LVL71:
 694:Drivers/GD32F1x0_standard_peripheral/Source/gd32f1x0_usart.c ****     
 1583              		.loc 1 694 30 view .LVU340
 1584 0004 23F00103 		bic	r3, r3, #1
 1585 0008 0360     		str	r3, [r0]
 696:Drivers/GD32F1x0_standard_peripheral/Source/gd32f1x0_usart.c ****     USART_CTL2(usart_periph) |= (USART_CTL2_SCRTNUM & ((scrtnum) << 17));
 1586              		.loc 1 696 5 is_stmt 1 view .LVU341
 696:Drivers/GD32F1x0_standard_peripheral/Source/gd32f1x0_usart.c ****     USART_CTL2(usart_periph) |= (USART_CTL2_SCRTNUM & ((scrtnum) << 17));
 1587              		.loc 1 696 30 is_stmt 0 view .LVU342
 1588 000a 8368     		ldr	r3, [r0, #8]
 1589              		.loc 1 697 53 view .LVU343
 1590 000c 01F46021 		and	r1, r1, #917504
 696:Drivers/GD32F1x0_standard_peripheral/Source/gd32f1x0_usart.c ****     USART_CTL2(usart_periph) |= (USART_CTL2_SCRTNUM & ((scrtnum) << 17));
 1591              		.loc 1 696 30 view .LVU344
 1592 0010 23F46023 		bic	r3, r3, #917504
 1593 0014 8360     		str	r3, [r0, #8]
 1594              		.loc 1 697 5 is_stmt 1 view .LVU345
 1595              		.loc 1 697 30 is_stmt 0 view .LVU346
 1596 0016 8368     		ldr	r3, [r0, #8]
 1597 0018 1943     		orrs	r1, r1, r3
 1598 001a 8160     		str	r1, [r0, #8]
 698:Drivers/GD32F1x0_standard_peripheral/Source/gd32f1x0_usart.c **** }
 1599              		.loc 1 698 1 view .LVU347
 1600 001c 7047     		bx	lr
 1601              		.cfi_endproc
 1602              	.LFE98:
 1604              		.section	.text.usart_irda_mode_enable,"ax",%progbits
ARM GAS  /tmp/cc8PYp20.s 			page 41


 1605              		.align	1
 1606              		.global	usart_irda_mode_enable
 1607              		.syntax unified
 1608              		.thumb
 1609              		.thumb_func
 1610              		.fpu softvfp
 1612              	usart_irda_mode_enable:
 1613              	.LVL72:
 1614              	.LFB99:
 699:Drivers/GD32F1x0_standard_peripheral/Source/gd32f1x0_usart.c **** 
 700:Drivers/GD32F1x0_standard_peripheral/Source/gd32f1x0_usart.c **** /*!
 701:Drivers/GD32F1x0_standard_peripheral/Source/gd32f1x0_usart.c ****     \brief      IrDA mode enable
 702:Drivers/GD32F1x0_standard_peripheral/Source/gd32f1x0_usart.c ****     \param[in]  usart_periph: USARTx(x=0)
 703:Drivers/GD32F1x0_standard_peripheral/Source/gd32f1x0_usart.c ****     \param[out] none
 704:Drivers/GD32F1x0_standard_peripheral/Source/gd32f1x0_usart.c ****     \retval     none
 705:Drivers/GD32F1x0_standard_peripheral/Source/gd32f1x0_usart.c **** */
 706:Drivers/GD32F1x0_standard_peripheral/Source/gd32f1x0_usart.c **** void usart_irda_mode_enable(uint32_t usart_periph)
 707:Drivers/GD32F1x0_standard_peripheral/Source/gd32f1x0_usart.c **** {   
 1615              		.loc 1 707 1 is_stmt 1 view -0
 1616              		.cfi_startproc
 1617              		@ args = 0, pretend = 0, frame = 0
 1618              		@ frame_needed = 0, uses_anonymous_args = 0
 1619              		@ link register save eliminated.
 708:Drivers/GD32F1x0_standard_peripheral/Source/gd32f1x0_usart.c ****     /* disable USART */
 709:Drivers/GD32F1x0_standard_peripheral/Source/gd32f1x0_usart.c ****     USART_CTL0(usart_periph) &= ~(USART_CTL0_UEN);
 1620              		.loc 1 709 5 view .LVU349
 1621              		.loc 1 709 30 is_stmt 0 view .LVU350
 1622 0000 0368     		ldr	r3, [r0]
 1623 0002 23F00103 		bic	r3, r3, #1
 1624 0006 0360     		str	r3, [r0]
 710:Drivers/GD32F1x0_standard_peripheral/Source/gd32f1x0_usart.c ****     
 711:Drivers/GD32F1x0_standard_peripheral/Source/gd32f1x0_usart.c ****     USART_CTL2(usart_periph) |= USART_CTL2_IREN;
 1625              		.loc 1 711 5 is_stmt 1 view .LVU351
 1626              		.loc 1 711 30 is_stmt 0 view .LVU352
 1627 0008 8368     		ldr	r3, [r0, #8]
 1628 000a 43F00203 		orr	r3, r3, #2
 1629 000e 8360     		str	r3, [r0, #8]
 712:Drivers/GD32F1x0_standard_peripheral/Source/gd32f1x0_usart.c **** }
 1630              		.loc 1 712 1 view .LVU353
 1631 0010 7047     		bx	lr
 1632              		.cfi_endproc
 1633              	.LFE99:
 1635              		.section	.text.usart_irda_mode_disable,"ax",%progbits
 1636              		.align	1
 1637              		.global	usart_irda_mode_disable
 1638              		.syntax unified
 1639              		.thumb
 1640              		.thumb_func
 1641              		.fpu softvfp
 1643              	usart_irda_mode_disable:
 1644              	.LVL73:
 1645              	.LFB100:
 713:Drivers/GD32F1x0_standard_peripheral/Source/gd32f1x0_usart.c **** 
 714:Drivers/GD32F1x0_standard_peripheral/Source/gd32f1x0_usart.c **** /*!
 715:Drivers/GD32F1x0_standard_peripheral/Source/gd32f1x0_usart.c ****     \brief      IrDA mode disable
 716:Drivers/GD32F1x0_standard_peripheral/Source/gd32f1x0_usart.c ****     \param[in]  usart_periph: USARTx(x=0)
 717:Drivers/GD32F1x0_standard_peripheral/Source/gd32f1x0_usart.c ****     \param[out] none
ARM GAS  /tmp/cc8PYp20.s 			page 42


 718:Drivers/GD32F1x0_standard_peripheral/Source/gd32f1x0_usart.c ****     \retval     none
 719:Drivers/GD32F1x0_standard_peripheral/Source/gd32f1x0_usart.c **** */
 720:Drivers/GD32F1x0_standard_peripheral/Source/gd32f1x0_usart.c **** void usart_irda_mode_disable(uint32_t usart_periph)
 721:Drivers/GD32F1x0_standard_peripheral/Source/gd32f1x0_usart.c **** {  
 1646              		.loc 1 721 1 is_stmt 1 view -0
 1647              		.cfi_startproc
 1648              		@ args = 0, pretend = 0, frame = 0
 1649              		@ frame_needed = 0, uses_anonymous_args = 0
 1650              		@ link register save eliminated.
 722:Drivers/GD32F1x0_standard_peripheral/Source/gd32f1x0_usart.c ****     /* disable USART */
 723:Drivers/GD32F1x0_standard_peripheral/Source/gd32f1x0_usart.c ****     USART_CTL0(usart_periph) &= ~(USART_CTL0_UEN);
 1651              		.loc 1 723 5 view .LVU355
 1652              		.loc 1 723 30 is_stmt 0 view .LVU356
 1653 0000 0368     		ldr	r3, [r0]
 1654 0002 23F00103 		bic	r3, r3, #1
 1655 0006 0360     		str	r3, [r0]
 724:Drivers/GD32F1x0_standard_peripheral/Source/gd32f1x0_usart.c ****     
 725:Drivers/GD32F1x0_standard_peripheral/Source/gd32f1x0_usart.c ****     USART_CTL2(usart_periph) &= ~(USART_CTL2_IREN);
 1656              		.loc 1 725 5 is_stmt 1 view .LVU357
 1657              		.loc 1 725 30 is_stmt 0 view .LVU358
 1658 0008 8368     		ldr	r3, [r0, #8]
 1659 000a 23F00203 		bic	r3, r3, #2
 1660 000e 8360     		str	r3, [r0, #8]
 726:Drivers/GD32F1x0_standard_peripheral/Source/gd32f1x0_usart.c **** }
 1661              		.loc 1 726 1 view .LVU359
 1662 0010 7047     		bx	lr
 1663              		.cfi_endproc
 1664              	.LFE100:
 1666              		.section	.text.usart_irda_lowpower_config,"ax",%progbits
 1667              		.align	1
 1668              		.global	usart_irda_lowpower_config
 1669              		.syntax unified
 1670              		.thumb
 1671              		.thumb_func
 1672              		.fpu softvfp
 1674              	usart_irda_lowpower_config:
 1675              	.LVL74:
 1676              	.LFB101:
 727:Drivers/GD32F1x0_standard_peripheral/Source/gd32f1x0_usart.c **** 
 728:Drivers/GD32F1x0_standard_peripheral/Source/gd32f1x0_usart.c **** /*!
 729:Drivers/GD32F1x0_standard_peripheral/Source/gd32f1x0_usart.c ****     \brief      IrDA low-power configure
 730:Drivers/GD32F1x0_standard_peripheral/Source/gd32f1x0_usart.c ****     \param[in]  usart_periph: USARTx(x=0)
 731:Drivers/GD32F1x0_standard_peripheral/Source/gd32f1x0_usart.c ****     \param[in]  irlp: IrDA low-power or normal
 732:Drivers/GD32F1x0_standard_peripheral/Source/gd32f1x0_usart.c ****       \arg        USART_IRLP_LOW:    low-power
 733:Drivers/GD32F1x0_standard_peripheral/Source/gd32f1x0_usart.c ****       \arg        USART_IRLP_NORMAL: normal
 734:Drivers/GD32F1x0_standard_peripheral/Source/gd32f1x0_usart.c ****     \param[out] none
 735:Drivers/GD32F1x0_standard_peripheral/Source/gd32f1x0_usart.c ****     \retval     none
 736:Drivers/GD32F1x0_standard_peripheral/Source/gd32f1x0_usart.c **** */
 737:Drivers/GD32F1x0_standard_peripheral/Source/gd32f1x0_usart.c **** void usart_irda_lowpower_config(uint32_t usart_periph, uint32_t irlp)
 738:Drivers/GD32F1x0_standard_peripheral/Source/gd32f1x0_usart.c **** {   
 1677              		.loc 1 738 1 is_stmt 1 view -0
 1678              		.cfi_startproc
 1679              		@ args = 0, pretend = 0, frame = 0
 1680              		@ frame_needed = 0, uses_anonymous_args = 0
 1681              		@ link register save eliminated.
 739:Drivers/GD32F1x0_standard_peripheral/Source/gd32f1x0_usart.c ****     /* disable USART */
 740:Drivers/GD32F1x0_standard_peripheral/Source/gd32f1x0_usart.c ****     USART_CTL0(usart_periph) &= ~(USART_CTL0_UEN);
ARM GAS  /tmp/cc8PYp20.s 			page 43


 1682              		.loc 1 740 5 view .LVU361
 1683              		.loc 1 740 30 is_stmt 0 view .LVU362
 1684 0000 0368     		ldr	r3, [r0]
 741:Drivers/GD32F1x0_standard_peripheral/Source/gd32f1x0_usart.c ****     
 742:Drivers/GD32F1x0_standard_peripheral/Source/gd32f1x0_usart.c ****     USART_CTL2(usart_periph) |= (USART_CTL2_IRLP & irlp);
 1685              		.loc 1 742 50 view .LVU363
 1686 0002 01F00401 		and	r1, r1, #4
 1687              	.LVL75:
 740:Drivers/GD32F1x0_standard_peripheral/Source/gd32f1x0_usart.c ****     
 1688              		.loc 1 740 30 view .LVU364
 1689 0006 23F00103 		bic	r3, r3, #1
 1690 000a 0360     		str	r3, [r0]
 1691              		.loc 1 742 5 is_stmt 1 view .LVU365
 1692              		.loc 1 742 30 is_stmt 0 view .LVU366
 1693 000c 8368     		ldr	r3, [r0, #8]
 1694 000e 1943     		orrs	r1, r1, r3
 1695 0010 8160     		str	r1, [r0, #8]
 743:Drivers/GD32F1x0_standard_peripheral/Source/gd32f1x0_usart.c **** }
 1696              		.loc 1 743 1 view .LVU367
 1697 0012 7047     		bx	lr
 1698              		.cfi_endproc
 1699              	.LFE101:
 1701              		.section	.text.usart_prescaler_config,"ax",%progbits
 1702              		.align	1
 1703              		.global	usart_prescaler_config
 1704              		.syntax unified
 1705              		.thumb
 1706              		.thumb_func
 1707              		.fpu softvfp
 1709              	usart_prescaler_config:
 1710              	.LVL76:
 1711              	.LFB102:
 744:Drivers/GD32F1x0_standard_peripheral/Source/gd32f1x0_usart.c **** 
 745:Drivers/GD32F1x0_standard_peripheral/Source/gd32f1x0_usart.c **** /*!
 746:Drivers/GD32F1x0_standard_peripheral/Source/gd32f1x0_usart.c ****     \brief      configure the peripheral clock prescaler in USART IrDA low-power mode or in USART S
 747:Drivers/GD32F1x0_standard_peripheral/Source/gd32f1x0_usart.c ****     \param[in]  usart_periph: USARTx(x=0)
 748:Drivers/GD32F1x0_standard_peripheral/Source/gd32f1x0_usart.c ****     \param[in]  psc: 0x00-0xFF
 749:Drivers/GD32F1x0_standard_peripheral/Source/gd32f1x0_usart.c ****     \param[out] none
 750:Drivers/GD32F1x0_standard_peripheral/Source/gd32f1x0_usart.c ****     \retval     none
 751:Drivers/GD32F1x0_standard_peripheral/Source/gd32f1x0_usart.c **** */
 752:Drivers/GD32F1x0_standard_peripheral/Source/gd32f1x0_usart.c **** void usart_prescaler_config(uint32_t usart_periph, uint32_t psc)
 753:Drivers/GD32F1x0_standard_peripheral/Source/gd32f1x0_usart.c **** {
 1712              		.loc 1 753 1 is_stmt 1 view -0
 1713              		.cfi_startproc
 1714              		@ args = 0, pretend = 0, frame = 0
 1715              		@ frame_needed = 0, uses_anonymous_args = 0
 1716              		@ link register save eliminated.
 754:Drivers/GD32F1x0_standard_peripheral/Source/gd32f1x0_usart.c ****     /* disable USART */
 755:Drivers/GD32F1x0_standard_peripheral/Source/gd32f1x0_usart.c ****     USART_CTL0(usart_periph) &= ~(USART_CTL0_UEN);
 1717              		.loc 1 755 5 view .LVU369
 1718              		.loc 1 755 30 is_stmt 0 view .LVU370
 1719 0000 0268     		ldr	r2, [r0]
 1720 0002 22F00102 		bic	r2, r2, #1
 1721 0006 0260     		str	r2, [r0]
 756:Drivers/GD32F1x0_standard_peripheral/Source/gd32f1x0_usart.c ****     
 757:Drivers/GD32F1x0_standard_peripheral/Source/gd32f1x0_usart.c ****     USART_GP(usart_periph) &= ~(USART_GP_PSC);
 1722              		.loc 1 757 5 is_stmt 1 view .LVU371
ARM GAS  /tmp/cc8PYp20.s 			page 44


 1723              		.loc 1 757 28 is_stmt 0 view .LVU372
 1724 0008 0269     		ldr	r2, [r0, #16]
 1725 000a 22F0FF02 		bic	r2, r2, #255
 1726 000e 0261     		str	r2, [r0, #16]
 758:Drivers/GD32F1x0_standard_peripheral/Source/gd32f1x0_usart.c ****     USART_GP(usart_periph) |= psc;
 1727              		.loc 1 758 5 is_stmt 1 view .LVU373
 1728              		.loc 1 758 28 is_stmt 0 view .LVU374
 1729 0010 0369     		ldr	r3, [r0, #16]
 1730 0012 0B43     		orrs	r3, r3, r1
 1731 0014 0361     		str	r3, [r0, #16]
 759:Drivers/GD32F1x0_standard_peripheral/Source/gd32f1x0_usart.c **** }
 1732              		.loc 1 759 1 view .LVU375
 1733 0016 7047     		bx	lr
 1734              		.cfi_endproc
 1735              	.LFE102:
 1737              		.section	.text.usart_hardware_flow_rts_config,"ax",%progbits
 1738              		.align	1
 1739              		.global	usart_hardware_flow_rts_config
 1740              		.syntax unified
 1741              		.thumb
 1742              		.thumb_func
 1743              		.fpu softvfp
 1745              	usart_hardware_flow_rts_config:
 1746              	.LVL77:
 1747              	.LFB103:
 760:Drivers/GD32F1x0_standard_peripheral/Source/gd32f1x0_usart.c **** 
 761:Drivers/GD32F1x0_standard_peripheral/Source/gd32f1x0_usart.c **** /*!
 762:Drivers/GD32F1x0_standard_peripheral/Source/gd32f1x0_usart.c ****     \brief      configure hardware flow control RTS
 763:Drivers/GD32F1x0_standard_peripheral/Source/gd32f1x0_usart.c ****     \param[in]  usart_periph: USARTx(x=0,1)
 764:Drivers/GD32F1x0_standard_peripheral/Source/gd32f1x0_usart.c ****     \param[in]  rtsconfig: enable or disable RTS
 765:Drivers/GD32F1x0_standard_peripheral/Source/gd32f1x0_usart.c ****       \arg        USART_RTS_ENABLE:  enable RTS
 766:Drivers/GD32F1x0_standard_peripheral/Source/gd32f1x0_usart.c ****       \arg        USART_RTS_DISABLE: disable RTS
 767:Drivers/GD32F1x0_standard_peripheral/Source/gd32f1x0_usart.c ****     \param[out] none
 768:Drivers/GD32F1x0_standard_peripheral/Source/gd32f1x0_usart.c ****     \retval     none
 769:Drivers/GD32F1x0_standard_peripheral/Source/gd32f1x0_usart.c **** */
 770:Drivers/GD32F1x0_standard_peripheral/Source/gd32f1x0_usart.c **** void usart_hardware_flow_rts_config(uint32_t usart_periph, uint32_t rtsconfig)
 771:Drivers/GD32F1x0_standard_peripheral/Source/gd32f1x0_usart.c **** {
 1748              		.loc 1 771 1 is_stmt 1 view -0
 1749              		.cfi_startproc
 1750              		@ args = 0, pretend = 0, frame = 0
 1751              		@ frame_needed = 0, uses_anonymous_args = 0
 1752              		@ link register save eliminated.
 772:Drivers/GD32F1x0_standard_peripheral/Source/gd32f1x0_usart.c ****     /* disable USART */
 773:Drivers/GD32F1x0_standard_peripheral/Source/gd32f1x0_usart.c ****     USART_CTL0(usart_periph) &= ~(USART_CTL0_UEN);
 1753              		.loc 1 773 5 view .LVU377
 1754              		.loc 1 773 30 is_stmt 0 view .LVU378
 1755 0000 0268     		ldr	r2, [r0]
 1756 0002 22F00102 		bic	r2, r2, #1
 1757 0006 0260     		str	r2, [r0]
 774:Drivers/GD32F1x0_standard_peripheral/Source/gd32f1x0_usart.c **** 
 775:Drivers/GD32F1x0_standard_peripheral/Source/gd32f1x0_usart.c ****     USART_CTL2(usart_periph) &= ~(USART_CTL2_RTSEN);
 1758              		.loc 1 775 5 is_stmt 1 view .LVU379
 1759              		.loc 1 775 30 is_stmt 0 view .LVU380
 1760 0008 8268     		ldr	r2, [r0, #8]
 1761 000a 22F48072 		bic	r2, r2, #256
 1762 000e 8260     		str	r2, [r0, #8]
 776:Drivers/GD32F1x0_standard_peripheral/Source/gd32f1x0_usart.c ****     USART_CTL2(usart_periph) |= rtsconfig;
ARM GAS  /tmp/cc8PYp20.s 			page 45


 1763              		.loc 1 776 5 is_stmt 1 view .LVU381
 1764              		.loc 1 776 30 is_stmt 0 view .LVU382
 1765 0010 8368     		ldr	r3, [r0, #8]
 1766 0012 0B43     		orrs	r3, r3, r1
 1767 0014 8360     		str	r3, [r0, #8]
 777:Drivers/GD32F1x0_standard_peripheral/Source/gd32f1x0_usart.c **** }
 1768              		.loc 1 777 1 view .LVU383
 1769 0016 7047     		bx	lr
 1770              		.cfi_endproc
 1771              	.LFE103:
 1773              		.section	.text.usart_hardware_flow_cts_config,"ax",%progbits
 1774              		.align	1
 1775              		.global	usart_hardware_flow_cts_config
 1776              		.syntax unified
 1777              		.thumb
 1778              		.thumb_func
 1779              		.fpu softvfp
 1781              	usart_hardware_flow_cts_config:
 1782              	.LVL78:
 1783              	.LFB104:
 778:Drivers/GD32F1x0_standard_peripheral/Source/gd32f1x0_usart.c **** 
 779:Drivers/GD32F1x0_standard_peripheral/Source/gd32f1x0_usart.c **** /*!
 780:Drivers/GD32F1x0_standard_peripheral/Source/gd32f1x0_usart.c ****     \brief      configure hardware flow control CTS
 781:Drivers/GD32F1x0_standard_peripheral/Source/gd32f1x0_usart.c ****     \param[in]  usart_periph: USARTx(x=0,1)
 782:Drivers/GD32F1x0_standard_peripheral/Source/gd32f1x0_usart.c ****     \param[in]  ctsconfig:  enable or disable CTS
 783:Drivers/GD32F1x0_standard_peripheral/Source/gd32f1x0_usart.c ****       \arg        USART_CTS_ENABLE:  enable CTS
 784:Drivers/GD32F1x0_standard_peripheral/Source/gd32f1x0_usart.c ****       \arg        USART_CTS_DISABLE: disable CTS
 785:Drivers/GD32F1x0_standard_peripheral/Source/gd32f1x0_usart.c ****     \param[out] none
 786:Drivers/GD32F1x0_standard_peripheral/Source/gd32f1x0_usart.c ****     \retval     none
 787:Drivers/GD32F1x0_standard_peripheral/Source/gd32f1x0_usart.c **** */
 788:Drivers/GD32F1x0_standard_peripheral/Source/gd32f1x0_usart.c **** void usart_hardware_flow_cts_config(uint32_t usart_periph, uint32_t ctsconfig)
 789:Drivers/GD32F1x0_standard_peripheral/Source/gd32f1x0_usart.c **** {
 1784              		.loc 1 789 1 is_stmt 1 view -0
 1785              		.cfi_startproc
 1786              		@ args = 0, pretend = 0, frame = 0
 1787              		@ frame_needed = 0, uses_anonymous_args = 0
 1788              		@ link register save eliminated.
 790:Drivers/GD32F1x0_standard_peripheral/Source/gd32f1x0_usart.c ****     /* disable USART */
 791:Drivers/GD32F1x0_standard_peripheral/Source/gd32f1x0_usart.c ****     USART_CTL0(usart_periph) &= ~(USART_CTL0_UEN);
 1789              		.loc 1 791 5 view .LVU385
 1790              		.loc 1 791 30 is_stmt 0 view .LVU386
 1791 0000 0268     		ldr	r2, [r0]
 1792 0002 22F00102 		bic	r2, r2, #1
 1793 0006 0260     		str	r2, [r0]
 792:Drivers/GD32F1x0_standard_peripheral/Source/gd32f1x0_usart.c **** 
 793:Drivers/GD32F1x0_standard_peripheral/Source/gd32f1x0_usart.c ****     USART_CTL2(usart_periph) &= ~USART_CTL2_CTSEN;
 1794              		.loc 1 793 5 is_stmt 1 view .LVU387
 1795              		.loc 1 793 30 is_stmt 0 view .LVU388
 1796 0008 8268     		ldr	r2, [r0, #8]
 1797 000a 22F40072 		bic	r2, r2, #512
 1798 000e 8260     		str	r2, [r0, #8]
 794:Drivers/GD32F1x0_standard_peripheral/Source/gd32f1x0_usart.c ****     USART_CTL2(usart_periph) |= ctsconfig;
 1799              		.loc 1 794 5 is_stmt 1 view .LVU389
 1800              		.loc 1 794 30 is_stmt 0 view .LVU390
 1801 0010 8368     		ldr	r3, [r0, #8]
 1802 0012 0B43     		orrs	r3, r3, r1
 1803 0014 8360     		str	r3, [r0, #8]
ARM GAS  /tmp/cc8PYp20.s 			page 46


 795:Drivers/GD32F1x0_standard_peripheral/Source/gd32f1x0_usart.c **** }
 1804              		.loc 1 795 1 view .LVU391
 1805 0016 7047     		bx	lr
 1806              		.cfi_endproc
 1807              	.LFE104:
 1809              		.section	.text.usart_rs485_driver_enable,"ax",%progbits
 1810              		.align	1
 1811              		.global	usart_rs485_driver_enable
 1812              		.syntax unified
 1813              		.thumb
 1814              		.thumb_func
 1815              		.fpu softvfp
 1817              	usart_rs485_driver_enable:
 1818              	.LVL79:
 1819              	.LFB105:
 796:Drivers/GD32F1x0_standard_peripheral/Source/gd32f1x0_usart.c **** 
 797:Drivers/GD32F1x0_standard_peripheral/Source/gd32f1x0_usart.c **** /*!
 798:Drivers/GD32F1x0_standard_peripheral/Source/gd32f1x0_usart.c ****     \brief      RS485 driver enable
 799:Drivers/GD32F1x0_standard_peripheral/Source/gd32f1x0_usart.c ****     \param[in]  usart_periph: USARTx(x=0,1)
 800:Drivers/GD32F1x0_standard_peripheral/Source/gd32f1x0_usart.c ****     \param[out] none
 801:Drivers/GD32F1x0_standard_peripheral/Source/gd32f1x0_usart.c ****     \retval     none
 802:Drivers/GD32F1x0_standard_peripheral/Source/gd32f1x0_usart.c **** */
 803:Drivers/GD32F1x0_standard_peripheral/Source/gd32f1x0_usart.c **** void usart_rs485_driver_enable(uint32_t usart_periph)
 804:Drivers/GD32F1x0_standard_peripheral/Source/gd32f1x0_usart.c **** {   
 1820              		.loc 1 804 1 is_stmt 1 view -0
 1821              		.cfi_startproc
 1822              		@ args = 0, pretend = 0, frame = 0
 1823              		@ frame_needed = 0, uses_anonymous_args = 0
 1824              		@ link register save eliminated.
 805:Drivers/GD32F1x0_standard_peripheral/Source/gd32f1x0_usart.c ****     /* disable USART */
 806:Drivers/GD32F1x0_standard_peripheral/Source/gd32f1x0_usart.c ****     USART_CTL0(usart_periph) &= ~(USART_CTL0_UEN);
 1825              		.loc 1 806 5 view .LVU393
 1826              		.loc 1 806 30 is_stmt 0 view .LVU394
 1827 0000 0368     		ldr	r3, [r0]
 1828 0002 23F00103 		bic	r3, r3, #1
 1829 0006 0360     		str	r3, [r0]
 807:Drivers/GD32F1x0_standard_peripheral/Source/gd32f1x0_usart.c ****     
 808:Drivers/GD32F1x0_standard_peripheral/Source/gd32f1x0_usart.c ****     USART_CTL2(usart_periph) |= USART_CTL2_DEM;
 1830              		.loc 1 808 5 is_stmt 1 view .LVU395
 1831              		.loc 1 808 30 is_stmt 0 view .LVU396
 1832 0008 8368     		ldr	r3, [r0, #8]
 1833 000a 43F48043 		orr	r3, r3, #16384
 1834 000e 8360     		str	r3, [r0, #8]
 809:Drivers/GD32F1x0_standard_peripheral/Source/gd32f1x0_usart.c **** }
 1835              		.loc 1 809 1 view .LVU397
 1836 0010 7047     		bx	lr
 1837              		.cfi_endproc
 1838              	.LFE105:
 1840              		.section	.text.usart_rs485_driver_disable,"ax",%progbits
 1841              		.align	1
 1842              		.global	usart_rs485_driver_disable
 1843              		.syntax unified
 1844              		.thumb
 1845              		.thumb_func
 1846              		.fpu softvfp
 1848              	usart_rs485_driver_disable:
 1849              	.LVL80:
ARM GAS  /tmp/cc8PYp20.s 			page 47


 1850              	.LFB106:
 810:Drivers/GD32F1x0_standard_peripheral/Source/gd32f1x0_usart.c **** 
 811:Drivers/GD32F1x0_standard_peripheral/Source/gd32f1x0_usart.c **** /*!
 812:Drivers/GD32F1x0_standard_peripheral/Source/gd32f1x0_usart.c ****     \brief      RS485 driver disable 
 813:Drivers/GD32F1x0_standard_peripheral/Source/gd32f1x0_usart.c ****     \param[in]  usart_periph: USARTx(x=0,1)
 814:Drivers/GD32F1x0_standard_peripheral/Source/gd32f1x0_usart.c ****     \param[out] none
 815:Drivers/GD32F1x0_standard_peripheral/Source/gd32f1x0_usart.c ****     \retval     none
 816:Drivers/GD32F1x0_standard_peripheral/Source/gd32f1x0_usart.c **** */
 817:Drivers/GD32F1x0_standard_peripheral/Source/gd32f1x0_usart.c **** void usart_rs485_driver_disable(uint32_t usart_periph)
 818:Drivers/GD32F1x0_standard_peripheral/Source/gd32f1x0_usart.c **** {  
 1851              		.loc 1 818 1 is_stmt 1 view -0
 1852              		.cfi_startproc
 1853              		@ args = 0, pretend = 0, frame = 0
 1854              		@ frame_needed = 0, uses_anonymous_args = 0
 1855              		@ link register save eliminated.
 819:Drivers/GD32F1x0_standard_peripheral/Source/gd32f1x0_usart.c ****     /* disable USART */
 820:Drivers/GD32F1x0_standard_peripheral/Source/gd32f1x0_usart.c ****     USART_CTL0(usart_periph) &= ~(USART_CTL0_UEN);
 1856              		.loc 1 820 5 view .LVU399
 1857              		.loc 1 820 30 is_stmt 0 view .LVU400
 1858 0000 0368     		ldr	r3, [r0]
 1859 0002 23F00103 		bic	r3, r3, #1
 1860 0006 0360     		str	r3, [r0]
 821:Drivers/GD32F1x0_standard_peripheral/Source/gd32f1x0_usart.c ****     
 822:Drivers/GD32F1x0_standard_peripheral/Source/gd32f1x0_usart.c ****     USART_CTL2(usart_periph) &= ~(USART_CTL2_DEM);
 1861              		.loc 1 822 5 is_stmt 1 view .LVU401
 1862              		.loc 1 822 30 is_stmt 0 view .LVU402
 1863 0008 8368     		ldr	r3, [r0, #8]
 1864 000a 23F48043 		bic	r3, r3, #16384
 1865 000e 8360     		str	r3, [r0, #8]
 823:Drivers/GD32F1x0_standard_peripheral/Source/gd32f1x0_usart.c **** }
 1866              		.loc 1 823 1 view .LVU403
 1867 0010 7047     		bx	lr
 1868              		.cfi_endproc
 1869              	.LFE106:
 1871              		.section	.text.usart_driver_assertime_config,"ax",%progbits
 1872              		.align	1
 1873              		.global	usart_driver_assertime_config
 1874              		.syntax unified
 1875              		.thumb
 1876              		.thumb_func
 1877              		.fpu softvfp
 1879              	usart_driver_assertime_config:
 1880              	.LVL81:
 1881              	.LFB107:
 824:Drivers/GD32F1x0_standard_peripheral/Source/gd32f1x0_usart.c **** 
 825:Drivers/GD32F1x0_standard_peripheral/Source/gd32f1x0_usart.c **** /*!
 826:Drivers/GD32F1x0_standard_peripheral/Source/gd32f1x0_usart.c ****     \brief      driver enable assertion time configure
 827:Drivers/GD32F1x0_standard_peripheral/Source/gd32f1x0_usart.c ****     \param[in]  usart_periph: USARTx(x=0,1)
 828:Drivers/GD32F1x0_standard_peripheral/Source/gd32f1x0_usart.c ****     \param[in]  deatime: 0x00-0x1F
 829:Drivers/GD32F1x0_standard_peripheral/Source/gd32f1x0_usart.c ****     \param[out] none
 830:Drivers/GD32F1x0_standard_peripheral/Source/gd32f1x0_usart.c ****     \retval     none
 831:Drivers/GD32F1x0_standard_peripheral/Source/gd32f1x0_usart.c **** */
 832:Drivers/GD32F1x0_standard_peripheral/Source/gd32f1x0_usart.c **** void usart_driver_assertime_config(uint32_t usart_periph, uint32_t deatime)
 833:Drivers/GD32F1x0_standard_peripheral/Source/gd32f1x0_usart.c **** {
 1882              		.loc 1 833 1 is_stmt 1 view -0
 1883              		.cfi_startproc
 1884              		@ args = 0, pretend = 0, frame = 0
ARM GAS  /tmp/cc8PYp20.s 			page 48


 1885              		@ frame_needed = 0, uses_anonymous_args = 0
 1886              		@ link register save eliminated.
 834:Drivers/GD32F1x0_standard_peripheral/Source/gd32f1x0_usart.c ****     /* disable USART */
 835:Drivers/GD32F1x0_standard_peripheral/Source/gd32f1x0_usart.c ****     USART_CTL0(usart_periph) &= ~(USART_CTL0_UEN);
 1887              		.loc 1 835 5 view .LVU405
 1888              		.loc 1 835 30 is_stmt 0 view .LVU406
 1889 0000 0368     		ldr	r3, [r0]
 836:Drivers/GD32F1x0_standard_peripheral/Source/gd32f1x0_usart.c ****     
 837:Drivers/GD32F1x0_standard_peripheral/Source/gd32f1x0_usart.c ****     USART_CTL0(usart_periph) &= ~(USART_CTL0_DEA);
 838:Drivers/GD32F1x0_standard_peripheral/Source/gd32f1x0_usart.c ****     USART_CTL0(usart_periph) |= (USART_CTL0_DEA & ((deatime) << 21));
 1890              		.loc 1 838 62 view .LVU407
 1891 0002 4905     		lsls	r1, r1, #21
 1892              	.LVL82:
 835:Drivers/GD32F1x0_standard_peripheral/Source/gd32f1x0_usart.c ****     
 1893              		.loc 1 835 30 view .LVU408
 1894 0004 23F00103 		bic	r3, r3, #1
 1895 0008 0360     		str	r3, [r0]
 837:Drivers/GD32F1x0_standard_peripheral/Source/gd32f1x0_usart.c ****     USART_CTL0(usart_periph) |= (USART_CTL0_DEA & ((deatime) << 21));
 1896              		.loc 1 837 5 is_stmt 1 view .LVU409
 837:Drivers/GD32F1x0_standard_peripheral/Source/gd32f1x0_usart.c ****     USART_CTL0(usart_periph) |= (USART_CTL0_DEA & ((deatime) << 21));
 1897              		.loc 1 837 30 is_stmt 0 view .LVU410
 1898 000a 0368     		ldr	r3, [r0]
 1899              		.loc 1 838 49 view .LVU411
 1900 000c 01F07871 		and	r1, r1, #65011712
 837:Drivers/GD32F1x0_standard_peripheral/Source/gd32f1x0_usart.c ****     USART_CTL0(usart_periph) |= (USART_CTL0_DEA & ((deatime) << 21));
 1901              		.loc 1 837 30 view .LVU412
 1902 0010 23F07873 		bic	r3, r3, #65011712
 1903 0014 0360     		str	r3, [r0]
 1904              		.loc 1 838 5 is_stmt 1 view .LVU413
 1905              		.loc 1 838 30 is_stmt 0 view .LVU414
 1906 0016 0368     		ldr	r3, [r0]
 1907 0018 1943     		orrs	r1, r1, r3
 1908 001a 0160     		str	r1, [r0]
 839:Drivers/GD32F1x0_standard_peripheral/Source/gd32f1x0_usart.c **** }
 1909              		.loc 1 839 1 view .LVU415
 1910 001c 7047     		bx	lr
 1911              		.cfi_endproc
 1912              	.LFE107:
 1914              		.section	.text.usart_driver_deassertime_config,"ax",%progbits
 1915              		.align	1
 1916              		.global	usart_driver_deassertime_config
 1917              		.syntax unified
 1918              		.thumb
 1919              		.thumb_func
 1920              		.fpu softvfp
 1922              	usart_driver_deassertime_config:
 1923              	.LVL83:
 1924              	.LFB108:
 840:Drivers/GD32F1x0_standard_peripheral/Source/gd32f1x0_usart.c **** 
 841:Drivers/GD32F1x0_standard_peripheral/Source/gd32f1x0_usart.c **** /*!
 842:Drivers/GD32F1x0_standard_peripheral/Source/gd32f1x0_usart.c ****     \brief      driver enable de-assertion time configure
 843:Drivers/GD32F1x0_standard_peripheral/Source/gd32f1x0_usart.c ****     \param[in]  usart_periph: USARTx(x=0,1)
 844:Drivers/GD32F1x0_standard_peripheral/Source/gd32f1x0_usart.c ****     \param[in]  dedtime: 0x00-0x1F
 845:Drivers/GD32F1x0_standard_peripheral/Source/gd32f1x0_usart.c ****     \param[out] none
 846:Drivers/GD32F1x0_standard_peripheral/Source/gd32f1x0_usart.c ****     \retval     none
 847:Drivers/GD32F1x0_standard_peripheral/Source/gd32f1x0_usart.c **** */
 848:Drivers/GD32F1x0_standard_peripheral/Source/gd32f1x0_usart.c **** void usart_driver_deassertime_config(uint32_t usart_periph, uint32_t dedtime)
ARM GAS  /tmp/cc8PYp20.s 			page 49


 849:Drivers/GD32F1x0_standard_peripheral/Source/gd32f1x0_usart.c **** {
 1925              		.loc 1 849 1 is_stmt 1 view -0
 1926              		.cfi_startproc
 1927              		@ args = 0, pretend = 0, frame = 0
 1928              		@ frame_needed = 0, uses_anonymous_args = 0
 1929              		@ link register save eliminated.
 850:Drivers/GD32F1x0_standard_peripheral/Source/gd32f1x0_usart.c ****     /* disable USART */
 851:Drivers/GD32F1x0_standard_peripheral/Source/gd32f1x0_usart.c ****     USART_CTL0(usart_periph) &= ~(USART_CTL0_UEN);
 1930              		.loc 1 851 5 view .LVU417
 1931              		.loc 1 851 30 is_stmt 0 view .LVU418
 1932 0000 0368     		ldr	r3, [r0]
 852:Drivers/GD32F1x0_standard_peripheral/Source/gd32f1x0_usart.c ****     
 853:Drivers/GD32F1x0_standard_peripheral/Source/gd32f1x0_usart.c ****     USART_CTL0(usart_periph) &= ~(USART_CTL0_DED);
 854:Drivers/GD32F1x0_standard_peripheral/Source/gd32f1x0_usart.c ****     USART_CTL0(usart_periph) |= (USART_CTL0_DED & ((dedtime) << 16));
 1933              		.loc 1 854 62 view .LVU419
 1934 0002 0904     		lsls	r1, r1, #16
 1935              	.LVL84:
 851:Drivers/GD32F1x0_standard_peripheral/Source/gd32f1x0_usart.c ****     
 1936              		.loc 1 851 30 view .LVU420
 1937 0004 23F00103 		bic	r3, r3, #1
 1938 0008 0360     		str	r3, [r0]
 853:Drivers/GD32F1x0_standard_peripheral/Source/gd32f1x0_usart.c ****     USART_CTL0(usart_periph) |= (USART_CTL0_DED & ((dedtime) << 16));
 1939              		.loc 1 853 5 is_stmt 1 view .LVU421
 853:Drivers/GD32F1x0_standard_peripheral/Source/gd32f1x0_usart.c ****     USART_CTL0(usart_periph) |= (USART_CTL0_DED & ((dedtime) << 16));
 1940              		.loc 1 853 30 is_stmt 0 view .LVU422
 1941 000a 0368     		ldr	r3, [r0]
 1942              		.loc 1 854 49 view .LVU423
 1943 000c 01F4F811 		and	r1, r1, #2031616
 853:Drivers/GD32F1x0_standard_peripheral/Source/gd32f1x0_usart.c ****     USART_CTL0(usart_periph) |= (USART_CTL0_DED & ((dedtime) << 16));
 1944              		.loc 1 853 30 view .LVU424
 1945 0010 23F4F813 		bic	r3, r3, #2031616
 1946 0014 0360     		str	r3, [r0]
 1947              		.loc 1 854 5 is_stmt 1 view .LVU425
 1948              		.loc 1 854 30 is_stmt 0 view .LVU426
 1949 0016 0368     		ldr	r3, [r0]
 1950 0018 1943     		orrs	r1, r1, r3
 1951 001a 0160     		str	r1, [r0]
 855:Drivers/GD32F1x0_standard_peripheral/Source/gd32f1x0_usart.c **** }
 1952              		.loc 1 855 1 view .LVU427
 1953 001c 7047     		bx	lr
 1954              		.cfi_endproc
 1955              	.LFE108:
 1957              		.section	.text.usart_depolarity_config,"ax",%progbits
 1958              		.align	1
 1959              		.global	usart_depolarity_config
 1960              		.syntax unified
 1961              		.thumb
 1962              		.thumb_func
 1963              		.fpu softvfp
 1965              	usart_depolarity_config:
 1966              	.LVL85:
 1967              	.LFB109:
 856:Drivers/GD32F1x0_standard_peripheral/Source/gd32f1x0_usart.c **** 
 857:Drivers/GD32F1x0_standard_peripheral/Source/gd32f1x0_usart.c **** /*!
 858:Drivers/GD32F1x0_standard_peripheral/Source/gd32f1x0_usart.c ****     \brief      configure driver enable polarity mode
 859:Drivers/GD32F1x0_standard_peripheral/Source/gd32f1x0_usart.c ****     \param[in]  usart_periph: USARTx(x=0,1)
 860:Drivers/GD32F1x0_standard_peripheral/Source/gd32f1x0_usart.c ****     \param[in]  dep: DE signal
ARM GAS  /tmp/cc8PYp20.s 			page 50


 861:Drivers/GD32F1x0_standard_peripheral/Source/gd32f1x0_usart.c ****       \arg        USART_DEP_HIGH: DE signal is active high 
 862:Drivers/GD32F1x0_standard_peripheral/Source/gd32f1x0_usart.c ****       \arg        USART_DEP_LOW:  DE signal is active low
 863:Drivers/GD32F1x0_standard_peripheral/Source/gd32f1x0_usart.c ****     \param[out] none
 864:Drivers/GD32F1x0_standard_peripheral/Source/gd32f1x0_usart.c ****     \retval     none
 865:Drivers/GD32F1x0_standard_peripheral/Source/gd32f1x0_usart.c **** */
 866:Drivers/GD32F1x0_standard_peripheral/Source/gd32f1x0_usart.c **** void usart_depolarity_config(uint32_t usart_periph, uint32_t dep)
 867:Drivers/GD32F1x0_standard_peripheral/Source/gd32f1x0_usart.c **** {
 1968              		.loc 1 867 1 is_stmt 1 view -0
 1969              		.cfi_startproc
 1970              		@ args = 0, pretend = 0, frame = 0
 1971              		@ frame_needed = 0, uses_anonymous_args = 0
 1972              		@ link register save eliminated.
 868:Drivers/GD32F1x0_standard_peripheral/Source/gd32f1x0_usart.c ****     /* disable USART */
 869:Drivers/GD32F1x0_standard_peripheral/Source/gd32f1x0_usart.c ****     USART_CTL0(usart_periph) &= ~(USART_CTL0_UEN);
 1973              		.loc 1 869 5 view .LVU429
 1974              		.loc 1 869 30 is_stmt 0 view .LVU430
 1975 0000 0368     		ldr	r3, [r0]
 870:Drivers/GD32F1x0_standard_peripheral/Source/gd32f1x0_usart.c ****     /* reset DEP bit */
 871:Drivers/GD32F1x0_standard_peripheral/Source/gd32f1x0_usart.c ****     USART_CTL2(usart_periph) &= ~(USART_CTL2_DEP);
 872:Drivers/GD32F1x0_standard_peripheral/Source/gd32f1x0_usart.c ****     USART_CTL2(usart_periph) |= (USART_CTL2_DEP & dep);
 1976              		.loc 1 872 49 view .LVU431
 1977 0002 01F40041 		and	r1, r1, #32768
 1978              	.LVL86:
 869:Drivers/GD32F1x0_standard_peripheral/Source/gd32f1x0_usart.c ****     /* reset DEP bit */
 1979              		.loc 1 869 30 view .LVU432
 1980 0006 23F00103 		bic	r3, r3, #1
 1981 000a 0360     		str	r3, [r0]
 871:Drivers/GD32F1x0_standard_peripheral/Source/gd32f1x0_usart.c ****     USART_CTL2(usart_periph) |= (USART_CTL2_DEP & dep);
 1982              		.loc 1 871 5 is_stmt 1 view .LVU433
 871:Drivers/GD32F1x0_standard_peripheral/Source/gd32f1x0_usart.c ****     USART_CTL2(usart_periph) |= (USART_CTL2_DEP & dep);
 1983              		.loc 1 871 30 is_stmt 0 view .LVU434
 1984 000c 8368     		ldr	r3, [r0, #8]
 1985 000e 23F40043 		bic	r3, r3, #32768
 1986 0012 8360     		str	r3, [r0, #8]
 1987              		.loc 1 872 5 is_stmt 1 view .LVU435
 1988              		.loc 1 872 30 is_stmt 0 view .LVU436
 1989 0014 8368     		ldr	r3, [r0, #8]
 1990 0016 1943     		orrs	r1, r1, r3
 1991 0018 8160     		str	r1, [r0, #8]
 873:Drivers/GD32F1x0_standard_peripheral/Source/gd32f1x0_usart.c **** }
 1992              		.loc 1 873 1 view .LVU437
 1993 001a 7047     		bx	lr
 1994              		.cfi_endproc
 1995              	.LFE109:
 1997              		.section	.text.usart_dma_receive_config,"ax",%progbits
 1998              		.align	1
 1999              		.global	usart_dma_receive_config
 2000              		.syntax unified
 2001              		.thumb
 2002              		.thumb_func
 2003              		.fpu softvfp
 2005              	usart_dma_receive_config:
 2006              	.LVL87:
 2007              	.LFB110:
 874:Drivers/GD32F1x0_standard_peripheral/Source/gd32f1x0_usart.c **** 
 875:Drivers/GD32F1x0_standard_peripheral/Source/gd32f1x0_usart.c **** /*!
 876:Drivers/GD32F1x0_standard_peripheral/Source/gd32f1x0_usart.c ****     \brief      configure USART DMA reception
ARM GAS  /tmp/cc8PYp20.s 			page 51


 877:Drivers/GD32F1x0_standard_peripheral/Source/gd32f1x0_usart.c ****     \param[in]  usart_periph: USARTx(x=0,1)
 878:Drivers/GD32F1x0_standard_peripheral/Source/gd32f1x0_usart.c ****     \param[in]  dmacmd: enable or disable DMA for reception
 879:Drivers/GD32F1x0_standard_peripheral/Source/gd32f1x0_usart.c ****       \arg        USART_DENR_ENABLE:  DMA enable for reception
 880:Drivers/GD32F1x0_standard_peripheral/Source/gd32f1x0_usart.c ****       \arg        USART_DENR_DISABLE: DMA disable for reception
 881:Drivers/GD32F1x0_standard_peripheral/Source/gd32f1x0_usart.c ****     \param[out] none
 882:Drivers/GD32F1x0_standard_peripheral/Source/gd32f1x0_usart.c ****     \retval     none
 883:Drivers/GD32F1x0_standard_peripheral/Source/gd32f1x0_usart.c **** */
 884:Drivers/GD32F1x0_standard_peripheral/Source/gd32f1x0_usart.c **** void usart_dma_receive_config(uint32_t usart_periph, uint32_t dmacmd)
 885:Drivers/GD32F1x0_standard_peripheral/Source/gd32f1x0_usart.c **** {
 2008              		.loc 1 885 1 is_stmt 1 view -0
 2009              		.cfi_startproc
 2010              		@ args = 0, pretend = 0, frame = 0
 2011              		@ frame_needed = 0, uses_anonymous_args = 0
 2012              		@ link register save eliminated.
 886:Drivers/GD32F1x0_standard_peripheral/Source/gd32f1x0_usart.c ****     USART_CTL2(usart_periph) &= ~USART_CTL2_DENR;
 2013              		.loc 1 886 5 view .LVU439
 2014              		.loc 1 886 30 is_stmt 0 view .LVU440
 2015 0000 8268     		ldr	r2, [r0, #8]
 2016 0002 22F04002 		bic	r2, r2, #64
 2017 0006 8260     		str	r2, [r0, #8]
 887:Drivers/GD32F1x0_standard_peripheral/Source/gd32f1x0_usart.c ****     /* configure DMA reception */
 888:Drivers/GD32F1x0_standard_peripheral/Source/gd32f1x0_usart.c ****     USART_CTL2(usart_periph) |= dmacmd;
 2018              		.loc 1 888 5 is_stmt 1 view .LVU441
 2019              		.loc 1 888 30 is_stmt 0 view .LVU442
 2020 0008 8368     		ldr	r3, [r0, #8]
 2021 000a 0B43     		orrs	r3, r3, r1
 2022 000c 8360     		str	r3, [r0, #8]
 889:Drivers/GD32F1x0_standard_peripheral/Source/gd32f1x0_usart.c **** }
 2023              		.loc 1 889 1 view .LVU443
 2024 000e 7047     		bx	lr
 2025              		.cfi_endproc
 2026              	.LFE110:
 2028              		.section	.text.usart_dma_transmit_config,"ax",%progbits
 2029              		.align	1
 2030              		.global	usart_dma_transmit_config
 2031              		.syntax unified
 2032              		.thumb
 2033              		.thumb_func
 2034              		.fpu softvfp
 2036              	usart_dma_transmit_config:
 2037              	.LVL88:
 2038              	.LFB111:
 890:Drivers/GD32F1x0_standard_peripheral/Source/gd32f1x0_usart.c **** 
 891:Drivers/GD32F1x0_standard_peripheral/Source/gd32f1x0_usart.c **** /*!
 892:Drivers/GD32F1x0_standard_peripheral/Source/gd32f1x0_usart.c ****     \brief      configure USART DMA transmission
 893:Drivers/GD32F1x0_standard_peripheral/Source/gd32f1x0_usart.c ****     \param[in]  usart_periph: USARTx(x=0,1)
 894:Drivers/GD32F1x0_standard_peripheral/Source/gd32f1x0_usart.c ****     \param[in]  dmacmd: enable or disable DMA for transmission
 895:Drivers/GD32F1x0_standard_peripheral/Source/gd32f1x0_usart.c ****       \arg        USART_DENT_ENABLE:  DMA enable for transmission
 896:Drivers/GD32F1x0_standard_peripheral/Source/gd32f1x0_usart.c ****       \arg        USART_DENT_DISABLE: DMA disable for transmission
 897:Drivers/GD32F1x0_standard_peripheral/Source/gd32f1x0_usart.c ****     \param[out] none
 898:Drivers/GD32F1x0_standard_peripheral/Source/gd32f1x0_usart.c ****     \retval     none
 899:Drivers/GD32F1x0_standard_peripheral/Source/gd32f1x0_usart.c **** */
 900:Drivers/GD32F1x0_standard_peripheral/Source/gd32f1x0_usart.c **** void usart_dma_transmit_config(uint32_t usart_periph, uint32_t dmacmd)
 901:Drivers/GD32F1x0_standard_peripheral/Source/gd32f1x0_usart.c **** {
 2039              		.loc 1 901 1 is_stmt 1 view -0
 2040              		.cfi_startproc
 2041              		@ args = 0, pretend = 0, frame = 0
ARM GAS  /tmp/cc8PYp20.s 			page 52


 2042              		@ frame_needed = 0, uses_anonymous_args = 0
 2043              		@ link register save eliminated.
 902:Drivers/GD32F1x0_standard_peripheral/Source/gd32f1x0_usart.c ****     USART_CTL2(usart_periph) &= ~USART_CTL2_DENT;
 2044              		.loc 1 902 5 view .LVU445
 2045              		.loc 1 902 30 is_stmt 0 view .LVU446
 2046 0000 8268     		ldr	r2, [r0, #8]
 2047 0002 22F08002 		bic	r2, r2, #128
 2048 0006 8260     		str	r2, [r0, #8]
 903:Drivers/GD32F1x0_standard_peripheral/Source/gd32f1x0_usart.c ****     /* configure DMA transmission */
 904:Drivers/GD32F1x0_standard_peripheral/Source/gd32f1x0_usart.c ****     USART_CTL2(usart_periph) |= dmacmd;
 2049              		.loc 1 904 5 is_stmt 1 view .LVU447
 2050              		.loc 1 904 30 is_stmt 0 view .LVU448
 2051 0008 8368     		ldr	r3, [r0, #8]
 2052 000a 0B43     		orrs	r3, r3, r1
 2053 000c 8360     		str	r3, [r0, #8]
 905:Drivers/GD32F1x0_standard_peripheral/Source/gd32f1x0_usart.c **** }
 2054              		.loc 1 905 1 view .LVU449
 2055 000e 7047     		bx	lr
 2056              		.cfi_endproc
 2057              	.LFE111:
 2059              		.section	.text.usart_reception_error_dma_disable,"ax",%progbits
 2060              		.align	1
 2061              		.global	usart_reception_error_dma_disable
 2062              		.syntax unified
 2063              		.thumb
 2064              		.thumb_func
 2065              		.fpu softvfp
 2067              	usart_reception_error_dma_disable:
 2068              	.LVL89:
 2069              	.LFB112:
 906:Drivers/GD32F1x0_standard_peripheral/Source/gd32f1x0_usart.c **** 
 907:Drivers/GD32F1x0_standard_peripheral/Source/gd32f1x0_usart.c **** /*!
 908:Drivers/GD32F1x0_standard_peripheral/Source/gd32f1x0_usart.c ****     \brief      disable DMA on reception error
 909:Drivers/GD32F1x0_standard_peripheral/Source/gd32f1x0_usart.c ****     \param[in]  usart_periph: USARTx(x=0,1)
 910:Drivers/GD32F1x0_standard_peripheral/Source/gd32f1x0_usart.c ****     \param[out] none
 911:Drivers/GD32F1x0_standard_peripheral/Source/gd32f1x0_usart.c ****     \retval     none
 912:Drivers/GD32F1x0_standard_peripheral/Source/gd32f1x0_usart.c **** */
 913:Drivers/GD32F1x0_standard_peripheral/Source/gd32f1x0_usart.c **** void usart_reception_error_dma_disable(uint32_t usart_periph)
 914:Drivers/GD32F1x0_standard_peripheral/Source/gd32f1x0_usart.c **** {
 2070              		.loc 1 914 1 is_stmt 1 view -0
 2071              		.cfi_startproc
 2072              		@ args = 0, pretend = 0, frame = 0
 2073              		@ frame_needed = 0, uses_anonymous_args = 0
 2074              		@ link register save eliminated.
 915:Drivers/GD32F1x0_standard_peripheral/Source/gd32f1x0_usart.c ****     /* disable USART */
 916:Drivers/GD32F1x0_standard_peripheral/Source/gd32f1x0_usart.c ****     USART_CTL0(usart_periph) &= ~(USART_CTL0_UEN);
 2075              		.loc 1 916 5 view .LVU451
 2076              		.loc 1 916 30 is_stmt 0 view .LVU452
 2077 0000 0368     		ldr	r3, [r0]
 2078 0002 23F00103 		bic	r3, r3, #1
 2079 0006 0360     		str	r3, [r0]
 917:Drivers/GD32F1x0_standard_peripheral/Source/gd32f1x0_usart.c ****     USART_CTL2(usart_periph) |= USART_CTL2_DDRE;
 2080              		.loc 1 917 5 is_stmt 1 view .LVU453
 2081              		.loc 1 917 30 is_stmt 0 view .LVU454
 2082 0008 8368     		ldr	r3, [r0, #8]
 2083 000a 43F40053 		orr	r3, r3, #8192
 2084 000e 8360     		str	r3, [r0, #8]
ARM GAS  /tmp/cc8PYp20.s 			page 53


 918:Drivers/GD32F1x0_standard_peripheral/Source/gd32f1x0_usart.c **** }
 2085              		.loc 1 918 1 view .LVU455
 2086 0010 7047     		bx	lr
 2087              		.cfi_endproc
 2088              	.LFE112:
 2090              		.section	.text.usart_reception_error_dma_enable,"ax",%progbits
 2091              		.align	1
 2092              		.global	usart_reception_error_dma_enable
 2093              		.syntax unified
 2094              		.thumb
 2095              		.thumb_func
 2096              		.fpu softvfp
 2098              	usart_reception_error_dma_enable:
 2099              	.LVL90:
 2100              	.LFB113:
 919:Drivers/GD32F1x0_standard_peripheral/Source/gd32f1x0_usart.c **** 
 920:Drivers/GD32F1x0_standard_peripheral/Source/gd32f1x0_usart.c **** /*!
 921:Drivers/GD32F1x0_standard_peripheral/Source/gd32f1x0_usart.c ****     \brief      enable DMA on reception error 
 922:Drivers/GD32F1x0_standard_peripheral/Source/gd32f1x0_usart.c ****     \param[in]  usart_periph: USARTx(x=0,1)
 923:Drivers/GD32F1x0_standard_peripheral/Source/gd32f1x0_usart.c ****     \param[out] none
 924:Drivers/GD32F1x0_standard_peripheral/Source/gd32f1x0_usart.c ****     \retval     none
 925:Drivers/GD32F1x0_standard_peripheral/Source/gd32f1x0_usart.c **** */
 926:Drivers/GD32F1x0_standard_peripheral/Source/gd32f1x0_usart.c **** void usart_reception_error_dma_enable(uint32_t usart_periph)
 927:Drivers/GD32F1x0_standard_peripheral/Source/gd32f1x0_usart.c **** {
 2101              		.loc 1 927 1 is_stmt 1 view -0
 2102              		.cfi_startproc
 2103              		@ args = 0, pretend = 0, frame = 0
 2104              		@ frame_needed = 0, uses_anonymous_args = 0
 2105              		@ link register save eliminated.
 928:Drivers/GD32F1x0_standard_peripheral/Source/gd32f1x0_usart.c ****     /* disable USART */
 929:Drivers/GD32F1x0_standard_peripheral/Source/gd32f1x0_usart.c ****     USART_CTL0(usart_periph) &= ~(USART_CTL0_UEN);
 2106              		.loc 1 929 5 view .LVU457
 2107              		.loc 1 929 30 is_stmt 0 view .LVU458
 2108 0000 0368     		ldr	r3, [r0]
 2109 0002 23F00103 		bic	r3, r3, #1
 2110 0006 0360     		str	r3, [r0]
 930:Drivers/GD32F1x0_standard_peripheral/Source/gd32f1x0_usart.c ****     USART_CTL2(usart_periph) &= ~(USART_CTL2_DDRE);
 2111              		.loc 1 930 5 is_stmt 1 view .LVU459
 2112              		.loc 1 930 30 is_stmt 0 view .LVU460
 2113 0008 8368     		ldr	r3, [r0, #8]
 2114 000a 23F40053 		bic	r3, r3, #8192
 2115 000e 8360     		str	r3, [r0, #8]
 931:Drivers/GD32F1x0_standard_peripheral/Source/gd32f1x0_usart.c **** }
 2116              		.loc 1 931 1 view .LVU461
 2117 0010 7047     		bx	lr
 2118              		.cfi_endproc
 2119              	.LFE113:
 2121              		.section	.text.usart_wakeup_enable,"ax",%progbits
 2122              		.align	1
 2123              		.global	usart_wakeup_enable
 2124              		.syntax unified
 2125              		.thumb
 2126              		.thumb_func
 2127              		.fpu softvfp
 2129              	usart_wakeup_enable:
 2130              	.LVL91:
 2131              	.LFB114:
ARM GAS  /tmp/cc8PYp20.s 			page 54


 932:Drivers/GD32F1x0_standard_peripheral/Source/gd32f1x0_usart.c **** 
 933:Drivers/GD32F1x0_standard_peripheral/Source/gd32f1x0_usart.c **** /*!
 934:Drivers/GD32F1x0_standard_peripheral/Source/gd32f1x0_usart.c ****     \brief      USART be able to wake up the MCU from deep-sleep mode
 935:Drivers/GD32F1x0_standard_peripheral/Source/gd32f1x0_usart.c ****     \param[in]  usart_periph: USARTx(x=0)
 936:Drivers/GD32F1x0_standard_peripheral/Source/gd32f1x0_usart.c ****     \param[out] none
 937:Drivers/GD32F1x0_standard_peripheral/Source/gd32f1x0_usart.c ****     \retval     none
 938:Drivers/GD32F1x0_standard_peripheral/Source/gd32f1x0_usart.c **** */
 939:Drivers/GD32F1x0_standard_peripheral/Source/gd32f1x0_usart.c **** void usart_wakeup_enable(uint32_t usart_periph)
 940:Drivers/GD32F1x0_standard_peripheral/Source/gd32f1x0_usart.c **** {
 2132              		.loc 1 940 1 is_stmt 1 view -0
 2133              		.cfi_startproc
 2134              		@ args = 0, pretend = 0, frame = 0
 2135              		@ frame_needed = 0, uses_anonymous_args = 0
 2136              		@ link register save eliminated.
 941:Drivers/GD32F1x0_standard_peripheral/Source/gd32f1x0_usart.c ****     USART_CTL0(usart_periph) |= USART_CTL0_UESM;
 2137              		.loc 1 941 5 view .LVU463
 2138              		.loc 1 941 30 is_stmt 0 view .LVU464
 2139 0000 0368     		ldr	r3, [r0]
 2140 0002 43F00203 		orr	r3, r3, #2
 2141 0006 0360     		str	r3, [r0]
 942:Drivers/GD32F1x0_standard_peripheral/Source/gd32f1x0_usart.c **** }
 2142              		.loc 1 942 1 view .LVU465
 2143 0008 7047     		bx	lr
 2144              		.cfi_endproc
 2145              	.LFE114:
 2147              		.section	.text.usart_wakeup_disable,"ax",%progbits
 2148              		.align	1
 2149              		.global	usart_wakeup_disable
 2150              		.syntax unified
 2151              		.thumb
 2152              		.thumb_func
 2153              		.fpu softvfp
 2155              	usart_wakeup_disable:
 2156              	.LVL92:
 2157              	.LFB115:
 943:Drivers/GD32F1x0_standard_peripheral/Source/gd32f1x0_usart.c **** 
 944:Drivers/GD32F1x0_standard_peripheral/Source/gd32f1x0_usart.c **** /*!
 945:Drivers/GD32F1x0_standard_peripheral/Source/gd32f1x0_usart.c ****     \brief      USART be not able to wake up the MCU from deep-sleep mode 
 946:Drivers/GD32F1x0_standard_peripheral/Source/gd32f1x0_usart.c ****     \param[in]  usart_periph: USARTx(x=0)
 947:Drivers/GD32F1x0_standard_peripheral/Source/gd32f1x0_usart.c ****     \param[out] none
 948:Drivers/GD32F1x0_standard_peripheral/Source/gd32f1x0_usart.c ****     \retval     none
 949:Drivers/GD32F1x0_standard_peripheral/Source/gd32f1x0_usart.c **** */
 950:Drivers/GD32F1x0_standard_peripheral/Source/gd32f1x0_usart.c **** void usart_wakeup_disable(uint32_t usart_periph)
 951:Drivers/GD32F1x0_standard_peripheral/Source/gd32f1x0_usart.c **** {
 2158              		.loc 1 951 1 is_stmt 1 view -0
 2159              		.cfi_startproc
 2160              		@ args = 0, pretend = 0, frame = 0
 2161              		@ frame_needed = 0, uses_anonymous_args = 0
 2162              		@ link register save eliminated.
 952:Drivers/GD32F1x0_standard_peripheral/Source/gd32f1x0_usart.c ****     USART_CTL0(usart_periph) &= ~(USART_CTL0_UESM);
 2163              		.loc 1 952 5 view .LVU467
 2164              		.loc 1 952 30 is_stmt 0 view .LVU468
 2165 0000 0368     		ldr	r3, [r0]
 2166 0002 23F00203 		bic	r3, r3, #2
 2167 0006 0360     		str	r3, [r0]
 953:Drivers/GD32F1x0_standard_peripheral/Source/gd32f1x0_usart.c **** }
 2168              		.loc 1 953 1 view .LVU469
ARM GAS  /tmp/cc8PYp20.s 			page 55


 2169 0008 7047     		bx	lr
 2170              		.cfi_endproc
 2171              	.LFE115:
 2173              		.section	.text.usart_wakeup_mode_config,"ax",%progbits
 2174              		.align	1
 2175              		.global	usart_wakeup_mode_config
 2176              		.syntax unified
 2177              		.thumb
 2178              		.thumb_func
 2179              		.fpu softvfp
 2181              	usart_wakeup_mode_config:
 2182              	.LVL93:
 2183              	.LFB116:
 954:Drivers/GD32F1x0_standard_peripheral/Source/gd32f1x0_usart.c **** 
 955:Drivers/GD32F1x0_standard_peripheral/Source/gd32f1x0_usart.c **** /*!
 956:Drivers/GD32F1x0_standard_peripheral/Source/gd32f1x0_usart.c ****     \brief      wakeup mode from deep-sleep mode
 957:Drivers/GD32F1x0_standard_peripheral/Source/gd32f1x0_usart.c ****     \param[in]  usart_periph: USARTx(x=0)
 958:Drivers/GD32F1x0_standard_peripheral/Source/gd32f1x0_usart.c ****     \param[in]  wum: wakeup mode 
 959:Drivers/GD32F1x0_standard_peripheral/Source/gd32f1x0_usart.c ****       \arg        USART_WUM_ADDR:   WUF active on address match 
 960:Drivers/GD32F1x0_standard_peripheral/Source/gd32f1x0_usart.c ****       \arg        USART_WUM_STARTB: WUF active on start bit
 961:Drivers/GD32F1x0_standard_peripheral/Source/gd32f1x0_usart.c ****       \arg        USART_WUM_RBNE:   WUF active on RBNE  
 962:Drivers/GD32F1x0_standard_peripheral/Source/gd32f1x0_usart.c ****     \param[out] none
 963:Drivers/GD32F1x0_standard_peripheral/Source/gd32f1x0_usart.c ****     \retval     none
 964:Drivers/GD32F1x0_standard_peripheral/Source/gd32f1x0_usart.c **** */
 965:Drivers/GD32F1x0_standard_peripheral/Source/gd32f1x0_usart.c **** void usart_wakeup_mode_config(uint32_t usart_periph, uint32_t wum)
 966:Drivers/GD32F1x0_standard_peripheral/Source/gd32f1x0_usart.c **** {
 2184              		.loc 1 966 1 is_stmt 1 view -0
 2185              		.cfi_startproc
 2186              		@ args = 0, pretend = 0, frame = 0
 2187              		@ frame_needed = 0, uses_anonymous_args = 0
 2188              		@ link register save eliminated.
 967:Drivers/GD32F1x0_standard_peripheral/Source/gd32f1x0_usart.c ****     /* disable USART */
 968:Drivers/GD32F1x0_standard_peripheral/Source/gd32f1x0_usart.c ****     USART_CTL0(usart_periph) &= ~(USART_CTL0_UEN);
 2189              		.loc 1 968 5 view .LVU471
 2190              		.loc 1 968 30 is_stmt 0 view .LVU472
 2191 0000 0368     		ldr	r3, [r0]
 969:Drivers/GD32F1x0_standard_peripheral/Source/gd32f1x0_usart.c ****     /* reset WUM bit */
 970:Drivers/GD32F1x0_standard_peripheral/Source/gd32f1x0_usart.c ****     USART_CTL2(usart_periph) &= ~(USART_CTL2_WUM);    
 971:Drivers/GD32F1x0_standard_peripheral/Source/gd32f1x0_usart.c ****     USART_CTL2(usart_periph) |= (USART_CTL2_WUM & (wum));
 2192              		.loc 1 971 49 view .LVU473
 2193 0002 01F44011 		and	r1, r1, #3145728
 2194              	.LVL94:
 968:Drivers/GD32F1x0_standard_peripheral/Source/gd32f1x0_usart.c ****     /* reset WUM bit */
 2195              		.loc 1 968 30 view .LVU474
 2196 0006 23F00103 		bic	r3, r3, #1
 2197 000a 0360     		str	r3, [r0]
 970:Drivers/GD32F1x0_standard_peripheral/Source/gd32f1x0_usart.c ****     USART_CTL2(usart_periph) |= (USART_CTL2_WUM & (wum));
 2198              		.loc 1 970 5 is_stmt 1 view .LVU475
 970:Drivers/GD32F1x0_standard_peripheral/Source/gd32f1x0_usart.c ****     USART_CTL2(usart_periph) |= (USART_CTL2_WUM & (wum));
 2199              		.loc 1 970 30 is_stmt 0 view .LVU476
 2200 000c 8368     		ldr	r3, [r0, #8]
 2201 000e 23F44013 		bic	r3, r3, #3145728
 2202 0012 8360     		str	r3, [r0, #8]
 2203              		.loc 1 971 5 is_stmt 1 view .LVU477
 2204              		.loc 1 971 30 is_stmt 0 view .LVU478
 2205 0014 8368     		ldr	r3, [r0, #8]
 2206 0016 1943     		orrs	r1, r1, r3
ARM GAS  /tmp/cc8PYp20.s 			page 56


 2207 0018 8160     		str	r1, [r0, #8]
 972:Drivers/GD32F1x0_standard_peripheral/Source/gd32f1x0_usart.c **** }
 2208              		.loc 1 972 1 view .LVU479
 2209 001a 7047     		bx	lr
 2210              		.cfi_endproc
 2211              	.LFE116:
 2213              		.section	.text.usart_flag_get,"ax",%progbits
 2214              		.align	1
 2215              		.global	usart_flag_get
 2216              		.syntax unified
 2217              		.thumb
 2218              		.thumb_func
 2219              		.fpu softvfp
 2221              	usart_flag_get:
 2222              	.LVL95:
 2223              	.LFB117:
 973:Drivers/GD32F1x0_standard_peripheral/Source/gd32f1x0_usart.c **** 
 974:Drivers/GD32F1x0_standard_peripheral/Source/gd32f1x0_usart.c **** /*!
 975:Drivers/GD32F1x0_standard_peripheral/Source/gd32f1x0_usart.c ****     \brief      get flag in STAT register
 976:Drivers/GD32F1x0_standard_peripheral/Source/gd32f1x0_usart.c ****     \param[in]  usart_periph: USARTx(x=0,1)
 977:Drivers/GD32F1x0_standard_peripheral/Source/gd32f1x0_usart.c ****     \param[in]  flag: flag type
 978:Drivers/GD32F1x0_standard_peripheral/Source/gd32f1x0_usart.c ****       \arg        USART_FLAG_PERR:  parity error flag
 979:Drivers/GD32F1x0_standard_peripheral/Source/gd32f1x0_usart.c ****       \arg        USART_FLAG_FERR:  frame error flag
 980:Drivers/GD32F1x0_standard_peripheral/Source/gd32f1x0_usart.c ****       \arg        USART_FLAG_NERR:  noise error flag
 981:Drivers/GD32F1x0_standard_peripheral/Source/gd32f1x0_usart.c ****       \arg        USART_FLAG_ORERR: overrun error
 982:Drivers/GD32F1x0_standard_peripheral/Source/gd32f1x0_usart.c ****       \arg        USART_FLAG_IDLE: idle line detected flag
 983:Drivers/GD32F1x0_standard_peripheral/Source/gd32f1x0_usart.c ****       \arg        USART_FLAG_RBNE:  read data buffer not empty
 984:Drivers/GD32F1x0_standard_peripheral/Source/gd32f1x0_usart.c ****       \arg        USART_FLAG_TC:    transmission completed
 985:Drivers/GD32F1x0_standard_peripheral/Source/gd32f1x0_usart.c ****       \arg        USART_FLAG_TBE:   transmit data register empty
 986:Drivers/GD32F1x0_standard_peripheral/Source/gd32f1x0_usart.c ****       \arg        USART_FLAG_LBD:  LIN break detected flag
 987:Drivers/GD32F1x0_standard_peripheral/Source/gd32f1x0_usart.c ****       \arg        USART_FLAG_CTSF:  CTS change flag
 988:Drivers/GD32F1x0_standard_peripheral/Source/gd32f1x0_usart.c ****       \arg        USART_FLAG_CTS:   CTS level
 989:Drivers/GD32F1x0_standard_peripheral/Source/gd32f1x0_usart.c ****       \arg        USART_FLAG_RT:   receiver timeout flag
 990:Drivers/GD32F1x0_standard_peripheral/Source/gd32f1x0_usart.c ****       \arg        USART_FLAG_EB:   end of block flag
 991:Drivers/GD32F1x0_standard_peripheral/Source/gd32f1x0_usart.c ****       \arg        USART_FLAG_ABDE:  auto baudrate detection error
 992:Drivers/GD32F1x0_standard_peripheral/Source/gd32f1x0_usart.c ****       \arg        USART_FLAG_ABD:  auto baudrate detection flag
 993:Drivers/GD32F1x0_standard_peripheral/Source/gd32f1x0_usart.c ****       \arg        USART_FLAG_BSY:   busy flag
 994:Drivers/GD32F1x0_standard_peripheral/Source/gd32f1x0_usart.c ****       \arg        USART_FLAG_AM:   address match flag
 995:Drivers/GD32F1x0_standard_peripheral/Source/gd32f1x0_usart.c ****       \arg        USART_FLAG_SB:   send break flag
 996:Drivers/GD32F1x0_standard_peripheral/Source/gd32f1x0_usart.c ****       \arg        USART_FLAG_RWU:   receiver wakeup from mute mode.
 997:Drivers/GD32F1x0_standard_peripheral/Source/gd32f1x0_usart.c ****       \arg        USART_FLAG_WU:   wakeup from deep-sleep mode flag
 998:Drivers/GD32F1x0_standard_peripheral/Source/gd32f1x0_usart.c ****       \arg        USART_FLAG_TEA:   transmit enable acknowledge flag
 999:Drivers/GD32F1x0_standard_peripheral/Source/gd32f1x0_usart.c ****       \arg        USART_FLAG_REA:   receive enable acknowledge flag 
1000:Drivers/GD32F1x0_standard_peripheral/Source/gd32f1x0_usart.c ****     \param[out] none
1001:Drivers/GD32F1x0_standard_peripheral/Source/gd32f1x0_usart.c ****     \retval     FlagStatus: SET or RESET
1002:Drivers/GD32F1x0_standard_peripheral/Source/gd32f1x0_usart.c **** */
1003:Drivers/GD32F1x0_standard_peripheral/Source/gd32f1x0_usart.c **** FlagStatus usart_flag_get(uint32_t usart_periph, usart_flag_enum flag)
1004:Drivers/GD32F1x0_standard_peripheral/Source/gd32f1x0_usart.c **** {
 2224              		.loc 1 1004 1 is_stmt 1 view -0
 2225              		.cfi_startproc
 2226              		@ args = 0, pretend = 0, frame = 0
 2227              		@ frame_needed = 0, uses_anonymous_args = 0
 2228              		@ link register save eliminated.
1005:Drivers/GD32F1x0_standard_peripheral/Source/gd32f1x0_usart.c ****     if(RESET != (USART_REG_VAL(usart_periph, flag) & BIT(USART_BIT_POS(flag)))){
 2229              		.loc 1 1005 5 view .LVU481
 2230              		.loc 1 1005 18 is_stmt 0 view .LVU482
 2231 0000 8B09     		lsrs	r3, r1, #6
ARM GAS  /tmp/cc8PYp20.s 			page 57


 2232 0002 1858     		ldr	r0, [r3, r0]
 2233              	.LVL96:
 2234              		.loc 1 1005 54 view .LVU483
 2235 0004 01F01F01 		and	r1, r1, #31
 2236              	.LVL97:
 2237              		.loc 1 1005 14 view .LVU484
 2238 0008 C840     		lsrs	r0, r0, r1
1006:Drivers/GD32F1x0_standard_peripheral/Source/gd32f1x0_usart.c ****         return SET;
1007:Drivers/GD32F1x0_standard_peripheral/Source/gd32f1x0_usart.c ****     }else{
1008:Drivers/GD32F1x0_standard_peripheral/Source/gd32f1x0_usart.c ****         return RESET;
1009:Drivers/GD32F1x0_standard_peripheral/Source/gd32f1x0_usart.c ****     }
1010:Drivers/GD32F1x0_standard_peripheral/Source/gd32f1x0_usart.c **** }
 2239              		.loc 1 1010 1 view .LVU485
 2240 000a 00F00100 		and	r0, r0, #1
 2241 000e 7047     		bx	lr
 2242              		.cfi_endproc
 2243              	.LFE117:
 2245              		.section	.text.usart_flag_clear,"ax",%progbits
 2246              		.align	1
 2247              		.global	usart_flag_clear
 2248              		.syntax unified
 2249              		.thumb
 2250              		.thumb_func
 2251              		.fpu softvfp
 2253              	usart_flag_clear:
 2254              	.LVL98:
 2255              	.LFB118:
1011:Drivers/GD32F1x0_standard_peripheral/Source/gd32f1x0_usart.c **** 
1012:Drivers/GD32F1x0_standard_peripheral/Source/gd32f1x0_usart.c **** /*!
1013:Drivers/GD32F1x0_standard_peripheral/Source/gd32f1x0_usart.c ****     \brief      clear USART status
1014:Drivers/GD32F1x0_standard_peripheral/Source/gd32f1x0_usart.c ****     \param[in]  usart_periph: USARTx(x=0,1)
1015:Drivers/GD32F1x0_standard_peripheral/Source/gd32f1x0_usart.c ****     \param[in]  flag: flag type 
1016:Drivers/GD32F1x0_standard_peripheral/Source/gd32f1x0_usart.c ****       \arg        USART_FLAG_PERR: parity error flag
1017:Drivers/GD32F1x0_standard_peripheral/Source/gd32f1x0_usart.c ****       \arg        USART_FLAG_FERR: frame error flag
1018:Drivers/GD32F1x0_standard_peripheral/Source/gd32f1x0_usart.c ****       \arg        USART_FLAG_NERR: noise detected flag
1019:Drivers/GD32F1x0_standard_peripheral/Source/gd32f1x0_usart.c ****       \arg        USART_FLAG_ORERR:overrun error flag
1020:Drivers/GD32F1x0_standard_peripheral/Source/gd32f1x0_usart.c ****       \arg        USART_FLAG_IDLE: idle line detected flag
1021:Drivers/GD32F1x0_standard_peripheral/Source/gd32f1x0_usart.c ****       \arg        USART_FLAG_TC:   transmission complete flag
1022:Drivers/GD32F1x0_standard_peripheral/Source/gd32f1x0_usart.c ****       \arg        USART_FLAG_LBD: LIN break detected flag
1023:Drivers/GD32F1x0_standard_peripheral/Source/gd32f1x0_usart.c ****       \arg        USART_FLAG_CTSF: CTS change flag
1024:Drivers/GD32F1x0_standard_peripheral/Source/gd32f1x0_usart.c ****       \arg        USART_FLAG_RT:  receiver timeout flag
1025:Drivers/GD32F1x0_standard_peripheral/Source/gd32f1x0_usart.c ****       \arg        USART_FLAG_EB:  end of block flag
1026:Drivers/GD32F1x0_standard_peripheral/Source/gd32f1x0_usart.c ****       \arg        USART_FLAG_AM:  address match flag
1027:Drivers/GD32F1x0_standard_peripheral/Source/gd32f1x0_usart.c ****       \arg        USART_FLAG_WU:  wakeup from deep-sleep mode flag
1028:Drivers/GD32F1x0_standard_peripheral/Source/gd32f1x0_usart.c ****     \param[out] none 
1029:Drivers/GD32F1x0_standard_peripheral/Source/gd32f1x0_usart.c ****     \retval     none
1030:Drivers/GD32F1x0_standard_peripheral/Source/gd32f1x0_usart.c **** */
1031:Drivers/GD32F1x0_standard_peripheral/Source/gd32f1x0_usart.c **** void usart_flag_clear(uint32_t usart_periph, usart_flag_enum flag)
1032:Drivers/GD32F1x0_standard_peripheral/Source/gd32f1x0_usart.c **** {
 2256              		.loc 1 1032 1 is_stmt 1 view -0
 2257              		.cfi_startproc
 2258              		@ args = 0, pretend = 0, frame = 0
 2259              		@ frame_needed = 0, uses_anonymous_args = 0
 2260              		@ link register save eliminated.
1033:Drivers/GD32F1x0_standard_peripheral/Source/gd32f1x0_usart.c ****     USART_INTC(usart_periph) |= BIT(USART_BIT_POS(flag));
 2261              		.loc 1 1033 5 view .LVU487
 2262              		.loc 1 1033 33 is_stmt 0 view .LVU488
ARM GAS  /tmp/cc8PYp20.s 			page 58


 2263 0000 01F01F03 		and	r3, r1, #31
 2264 0004 0121     		movs	r1, #1
 2265              	.LVL99:
 2266              		.loc 1 1033 30 view .LVU489
 2267 0006 026A     		ldr	r2, [r0, #32]
 2268              		.loc 1 1033 33 view .LVU490
 2269 0008 9940     		lsls	r1, r1, r3
 2270              		.loc 1 1033 30 view .LVU491
 2271 000a 1143     		orrs	r1, r1, r2
 2272 000c 0162     		str	r1, [r0, #32]
1034:Drivers/GD32F1x0_standard_peripheral/Source/gd32f1x0_usart.c **** }
 2273              		.loc 1 1034 1 view .LVU492
 2274 000e 7047     		bx	lr
 2275              		.cfi_endproc
 2276              	.LFE118:
 2278              		.section	.text.usart_interrupt_enable,"ax",%progbits
 2279              		.align	1
 2280              		.global	usart_interrupt_enable
 2281              		.syntax unified
 2282              		.thumb
 2283              		.thumb_func
 2284              		.fpu softvfp
 2286              	usart_interrupt_enable:
 2287              	.LVL100:
 2288              	.LFB119:
1035:Drivers/GD32F1x0_standard_peripheral/Source/gd32f1x0_usart.c **** 
1036:Drivers/GD32F1x0_standard_peripheral/Source/gd32f1x0_usart.c **** /*!
1037:Drivers/GD32F1x0_standard_peripheral/Source/gd32f1x0_usart.c ****     \brief      enable USART interrupt
1038:Drivers/GD32F1x0_standard_peripheral/Source/gd32f1x0_usart.c ****     \param[in]  usart_periph: USARTx(x=0,1)
1039:Drivers/GD32F1x0_standard_peripheral/Source/gd32f1x0_usart.c ****     \param[in]  inttype: interrupt type 
1040:Drivers/GD32F1x0_standard_peripheral/Source/gd32f1x0_usart.c ****       \arg        USART_INT_IDLE: idle interrupt 
1041:Drivers/GD32F1x0_standard_peripheral/Source/gd32f1x0_usart.c ****       \arg        USART_INT_RBNE: read data buffer not empty interrupt and 
1042:Drivers/GD32F1x0_standard_peripheral/Source/gd32f1x0_usart.c ****                                   overrun error interrupt enable interrupt 
1043:Drivers/GD32F1x0_standard_peripheral/Source/gd32f1x0_usart.c ****       \arg        USART_INT_TC:   transmission complete interrupt   
1044:Drivers/GD32F1x0_standard_peripheral/Source/gd32f1x0_usart.c ****       \arg        USART_INT_TBE:  transmit data register empty interrupt  
1045:Drivers/GD32F1x0_standard_peripheral/Source/gd32f1x0_usart.c ****       \arg        USART_INT_PERR: parity error interrupt 
1046:Drivers/GD32F1x0_standard_peripheral/Source/gd32f1x0_usart.c ****       \arg        USART_INT_AM:   address match interrupt    
1047:Drivers/GD32F1x0_standard_peripheral/Source/gd32f1x0_usart.c ****       \arg        USART_INT_RT:   receiver timeout interrupt   
1048:Drivers/GD32F1x0_standard_peripheral/Source/gd32f1x0_usart.c ****       \arg        USART_INT_EB:   end of block interrupt  
1049:Drivers/GD32F1x0_standard_peripheral/Source/gd32f1x0_usart.c ****       \arg        USART_INT_LBD:  LIN break detection interrupt    
1050:Drivers/GD32F1x0_standard_peripheral/Source/gd32f1x0_usart.c ****       \arg        USART_INT_ERR:  error interrupt enable in multibuffer communication  
1051:Drivers/GD32F1x0_standard_peripheral/Source/gd32f1x0_usart.c ****       \arg        USART_INT_CTS:  CTS interrupt 
1052:Drivers/GD32F1x0_standard_peripheral/Source/gd32f1x0_usart.c ****       \arg        USART_INT_WU:   wakeup from deep-sleep mode interrupt
1053:Drivers/GD32F1x0_standard_peripheral/Source/gd32f1x0_usart.c ****     \param[out] none
1054:Drivers/GD32F1x0_standard_peripheral/Source/gd32f1x0_usart.c ****     \retval     none
1055:Drivers/GD32F1x0_standard_peripheral/Source/gd32f1x0_usart.c **** */
1056:Drivers/GD32F1x0_standard_peripheral/Source/gd32f1x0_usart.c **** void usart_interrupt_enable(uint32_t usart_periph, uint32_t inttype)
1057:Drivers/GD32F1x0_standard_peripheral/Source/gd32f1x0_usart.c **** {
 2289              		.loc 1 1057 1 is_stmt 1 view -0
 2290              		.cfi_startproc
 2291              		@ args = 0, pretend = 0, frame = 0
 2292              		@ frame_needed = 0, uses_anonymous_args = 0
1058:Drivers/GD32F1x0_standard_peripheral/Source/gd32f1x0_usart.c ****     USART_REG_VAL(usart_periph, inttype) |= BIT(USART_BIT_POS(inttype));
 2293              		.loc 1 1058 5 view .LVU494
 2294              		.loc 1 1058 45 is_stmt 0 view .LVU495
 2295 0000 0123     		movs	r3, #1
1057:Drivers/GD32F1x0_standard_peripheral/Source/gd32f1x0_usart.c ****     USART_REG_VAL(usart_periph, inttype) |= BIT(USART_BIT_POS(inttype));
ARM GAS  /tmp/cc8PYp20.s 			page 59


 2296              		.loc 1 1057 1 view .LVU496
 2297 0002 10B5     		push	{r4, lr}
 2298              	.LCFI5:
 2299              		.cfi_def_cfa_offset 8
 2300              		.cfi_offset 4, -8
 2301              		.cfi_offset 14, -4
 2302              		.loc 1 1058 42 view .LVU497
 2303 0004 C1F38912 		ubfx	r2, r1, #6, #10
 2304 0008 1458     		ldr	r4, [r2, r0]
 2305              		.loc 1 1058 45 view .LVU498
 2306 000a 01F01F01 		and	r1, r1, #31
 2307              	.LVL101:
 2308              		.loc 1 1058 45 view .LVU499
 2309 000e 03FA01F1 		lsl	r1, r3, r1
 2310              		.loc 1 1058 42 view .LVU500
 2311 0012 2143     		orrs	r1, r1, r4
 2312 0014 1150     		str	r1, [r2, r0]
1059:Drivers/GD32F1x0_standard_peripheral/Source/gd32f1x0_usart.c **** }
 2313              		.loc 1 1059 1 view .LVU501
 2314 0016 10BD     		pop	{r4, pc}
 2315              		.cfi_endproc
 2316              	.LFE119:
 2318              		.section	.text.usart_interrupt_disable,"ax",%progbits
 2319              		.align	1
 2320              		.global	usart_interrupt_disable
 2321              		.syntax unified
 2322              		.thumb
 2323              		.thumb_func
 2324              		.fpu softvfp
 2326              	usart_interrupt_disable:
 2327              	.LVL102:
 2328              	.LFB120:
1060:Drivers/GD32F1x0_standard_peripheral/Source/gd32f1x0_usart.c **** 
1061:Drivers/GD32F1x0_standard_peripheral/Source/gd32f1x0_usart.c **** /*!
1062:Drivers/GD32F1x0_standard_peripheral/Source/gd32f1x0_usart.c ****     \brief      disable USART interrupt
1063:Drivers/GD32F1x0_standard_peripheral/Source/gd32f1x0_usart.c ****     \param[in]  usart_periph: USARTx(x=0,1)
1064:Drivers/GD32F1x0_standard_peripheral/Source/gd32f1x0_usart.c ****     \param[in]  inttype: interrupt type 
1065:Drivers/GD32F1x0_standard_peripheral/Source/gd32f1x0_usart.c ****       \arg        USART_INT_IDLE: idle interrupt 
1066:Drivers/GD32F1x0_standard_peripheral/Source/gd32f1x0_usart.c ****       \arg        USART_INT_RBNE: read data buffer not empty interrupt and 
1067:Drivers/GD32F1x0_standard_peripheral/Source/gd32f1x0_usart.c ****                                   overrun error interrupt 
1068:Drivers/GD32F1x0_standard_peripheral/Source/gd32f1x0_usart.c ****       \arg        USART_INT_TC:   transmission complete interrupt   
1069:Drivers/GD32F1x0_standard_peripheral/Source/gd32f1x0_usart.c ****       \arg        USART_INT_TBE:  transmit data register empty interrupt  
1070:Drivers/GD32F1x0_standard_peripheral/Source/gd32f1x0_usart.c ****       \arg        USART_INT_PERR: parity error interrupt 
1071:Drivers/GD32F1x0_standard_peripheral/Source/gd32f1x0_usart.c ****       \arg        USART_INT_AM:   address match interrupt    
1072:Drivers/GD32F1x0_standard_peripheral/Source/gd32f1x0_usart.c ****       \arg        USART_INT_RT:   receiver timeout interrupt   
1073:Drivers/GD32F1x0_standard_peripheral/Source/gd32f1x0_usart.c ****       \arg        USART_INT_EB:   end of block interrupt  
1074:Drivers/GD32F1x0_standard_peripheral/Source/gd32f1x0_usart.c ****       \arg        USART_INT_LBD:  LIN break detection interrupt    
1075:Drivers/GD32F1x0_standard_peripheral/Source/gd32f1x0_usart.c ****       \arg        USART_INT_ERR:  error interrupt enable in multibuffer communication  
1076:Drivers/GD32F1x0_standard_peripheral/Source/gd32f1x0_usart.c ****       \arg        USART_INT_CTS:  CTS interrupt 
1077:Drivers/GD32F1x0_standard_peripheral/Source/gd32f1x0_usart.c ****       \arg        USART_INT_WU:   wakeup from deep-sleep mode interrupt   
1078:Drivers/GD32F1x0_standard_peripheral/Source/gd32f1x0_usart.c ****     \param[out] none
1079:Drivers/GD32F1x0_standard_peripheral/Source/gd32f1x0_usart.c ****     \retval     none
1080:Drivers/GD32F1x0_standard_peripheral/Source/gd32f1x0_usart.c **** */
1081:Drivers/GD32F1x0_standard_peripheral/Source/gd32f1x0_usart.c **** void usart_interrupt_disable(uint32_t usart_periph, uint32_t inttype)
1082:Drivers/GD32F1x0_standard_peripheral/Source/gd32f1x0_usart.c **** {
 2329              		.loc 1 1082 1 is_stmt 1 view -0
 2330              		.cfi_startproc
ARM GAS  /tmp/cc8PYp20.s 			page 60


 2331              		@ args = 0, pretend = 0, frame = 0
 2332              		@ frame_needed = 0, uses_anonymous_args = 0
1083:Drivers/GD32F1x0_standard_peripheral/Source/gd32f1x0_usart.c ****     USART_REG_VAL(usart_periph, inttype) &= ~BIT(USART_BIT_POS(inttype));
 2333              		.loc 1 1083 5 view .LVU503
 2334              		.loc 1 1083 46 is_stmt 0 view .LVU504
 2335 0000 0122     		movs	r2, #1
1082:Drivers/GD32F1x0_standard_peripheral/Source/gd32f1x0_usart.c ****     USART_REG_VAL(usart_periph, inttype) &= ~BIT(USART_BIT_POS(inttype));
 2336              		.loc 1 1082 1 view .LVU505
 2337 0002 10B5     		push	{r4, lr}
 2338              	.LCFI6:
 2339              		.cfi_def_cfa_offset 8
 2340              		.cfi_offset 4, -8
 2341              		.cfi_offset 14, -4
 2342              		.loc 1 1083 42 view .LVU506
 2343 0004 C1F38914 		ubfx	r4, r1, #6, #10
 2344 0008 2358     		ldr	r3, [r4, r0]
 2345              		.loc 1 1083 46 view .LVU507
 2346 000a 01F01F01 		and	r1, r1, #31
 2347              	.LVL103:
 2348              		.loc 1 1083 46 view .LVU508
 2349 000e 02FA01F1 		lsl	r1, r2, r1
 2350              		.loc 1 1083 42 view .LVU509
 2351 0012 23EA0101 		bic	r1, r3, r1
 2352 0016 2150     		str	r1, [r4, r0]
1084:Drivers/GD32F1x0_standard_peripheral/Source/gd32f1x0_usart.c **** }
 2353              		.loc 1 1084 1 view .LVU510
 2354 0018 10BD     		pop	{r4, pc}
 2355              		.cfi_endproc
 2356              	.LFE120:
 2358              		.section	.text.usart_command_enable,"ax",%progbits
 2359              		.align	1
 2360              		.global	usart_command_enable
 2361              		.syntax unified
 2362              		.thumb
 2363              		.thumb_func
 2364              		.fpu softvfp
 2366              	usart_command_enable:
 2367              	.LVL104:
 2368              	.LFB121:
1085:Drivers/GD32F1x0_standard_peripheral/Source/gd32f1x0_usart.c **** 
1086:Drivers/GD32F1x0_standard_peripheral/Source/gd32f1x0_usart.c **** /*!
1087:Drivers/GD32F1x0_standard_peripheral/Source/gd32f1x0_usart.c ****     \brief      enable USART command
1088:Drivers/GD32F1x0_standard_peripheral/Source/gd32f1x0_usart.c ****     \param[in]  usart_periph: USARTx(x=0,1)
1089:Drivers/GD32F1x0_standard_peripheral/Source/gd32f1x0_usart.c ****     \param[in]  cmdtype: command type 
1090:Drivers/GD32F1x0_standard_peripheral/Source/gd32f1x0_usart.c ****       \arg        USART_CMD_ABDCMD: auto baudrate detection command 
1091:Drivers/GD32F1x0_standard_peripheral/Source/gd32f1x0_usart.c ****       \arg        USART_CMD_SBKCMD: send break command
1092:Drivers/GD32F1x0_standard_peripheral/Source/gd32f1x0_usart.c ****       \arg        USART_CMD_MMCMD:  mute mode command  
1093:Drivers/GD32F1x0_standard_peripheral/Source/gd32f1x0_usart.c ****       \arg        USART_CMD_RXFCMD: receive data flush command 
1094:Drivers/GD32F1x0_standard_peripheral/Source/gd32f1x0_usart.c ****       \arg        USART_CMD_TXFCMD: transmit data flush request
1095:Drivers/GD32F1x0_standard_peripheral/Source/gd32f1x0_usart.c ****     \param[out] none
1096:Drivers/GD32F1x0_standard_peripheral/Source/gd32f1x0_usart.c ****     \retval     none
1097:Drivers/GD32F1x0_standard_peripheral/Source/gd32f1x0_usart.c **** */
1098:Drivers/GD32F1x0_standard_peripheral/Source/gd32f1x0_usart.c **** void usart_command_enable(uint32_t usart_periph, uint32_t cmdtype)
1099:Drivers/GD32F1x0_standard_peripheral/Source/gd32f1x0_usart.c **** {
 2369              		.loc 1 1099 1 is_stmt 1 view -0
 2370              		.cfi_startproc
 2371              		@ args = 0, pretend = 0, frame = 0
ARM GAS  /tmp/cc8PYp20.s 			page 61


 2372              		@ frame_needed = 0, uses_anonymous_args = 0
 2373              		@ link register save eliminated.
1100:Drivers/GD32F1x0_standard_peripheral/Source/gd32f1x0_usart.c ****     USART_CMD(usart_periph) |= (cmdtype);
 2374              		.loc 1 1100 5 view .LVU512
 2375              		.loc 1 1100 29 is_stmt 0 view .LVU513
 2376 0000 8369     		ldr	r3, [r0, #24]
 2377 0002 0B43     		orrs	r3, r3, r1
 2378 0004 8361     		str	r3, [r0, #24]
1101:Drivers/GD32F1x0_standard_peripheral/Source/gd32f1x0_usart.c **** }
 2379              		.loc 1 1101 1 view .LVU514
 2380 0006 7047     		bx	lr
 2381              		.cfi_endproc
 2382              	.LFE121:
 2384              		.section	.text.usart_interrupt_flag_get,"ax",%progbits
 2385              		.align	1
 2386              		.global	usart_interrupt_flag_get
 2387              		.syntax unified
 2388              		.thumb
 2389              		.thumb_func
 2390              		.fpu softvfp
 2392              	usart_interrupt_flag_get:
 2393              	.LVL105:
 2394              	.LFB122:
1102:Drivers/GD32F1x0_standard_peripheral/Source/gd32f1x0_usart.c **** 
1103:Drivers/GD32F1x0_standard_peripheral/Source/gd32f1x0_usart.c **** /*!
1104:Drivers/GD32F1x0_standard_peripheral/Source/gd32f1x0_usart.c ****     \brief      get USART interrupt and flag status
1105:Drivers/GD32F1x0_standard_peripheral/Source/gd32f1x0_usart.c ****     \param[in]  usart_periph: USARTx(x=0,1)
1106:Drivers/GD32F1x0_standard_peripheral/Source/gd32f1x0_usart.c ****     \param[in]  int_flag: interrupt and flag type, refer to usart_interrupt_flag_enum
1107:Drivers/GD32F1x0_standard_peripheral/Source/gd32f1x0_usart.c ****       \arg        USART_INT_FLAG_EB:   end of block interrupt and flag
1108:Drivers/GD32F1x0_standard_peripheral/Source/gd32f1x0_usart.c ****       \arg        USART_INT_FLAG_RT:   receiver timeout interrupt and flag
1109:Drivers/GD32F1x0_standard_peripheral/Source/gd32f1x0_usart.c ****       \arg        USART_INT_FLAG_AM:   address match interrupt and flag 
1110:Drivers/GD32F1x0_standard_peripheral/Source/gd32f1x0_usart.c ****       \arg        USART_INT_FLAG_PERR: parity error interrupt and flag 
1111:Drivers/GD32F1x0_standard_peripheral/Source/gd32f1x0_usart.c ****       \arg        USART_INT_FLAG_TBE:  transmitter buffer empty interrupt and flag 
1112:Drivers/GD32F1x0_standard_peripheral/Source/gd32f1x0_usart.c ****       \arg        USART_INT_FLAG_TC:   transmission complete interrupt and flag
1113:Drivers/GD32F1x0_standard_peripheral/Source/gd32f1x0_usart.c ****       \arg        USART_INT_FLAG_RBNE: read data buffer not empty interrupt and flag
1114:Drivers/GD32F1x0_standard_peripheral/Source/gd32f1x0_usart.c ****       \arg        USART_INT_FLAG_RBNE_ORERR: read data buffer not empty interrupt and overrun error
1115:Drivers/GD32F1x0_standard_peripheral/Source/gd32f1x0_usart.c ****       \arg        USART_INT_FLAG_IDLE: IDLE line detected interrupt and flag
1116:Drivers/GD32F1x0_standard_peripheral/Source/gd32f1x0_usart.c ****       \arg        USART_INT_FLAG_LBD:  LIN break detected interrupt and flag 
1117:Drivers/GD32F1x0_standard_peripheral/Source/gd32f1x0_usart.c ****       \arg        USART_INT_FLAG_WU:   wakeup from deep-sleep mode interrupt and flag
1118:Drivers/GD32F1x0_standard_peripheral/Source/gd32f1x0_usart.c ****       \arg        USART_INT_FLAG_CTS:  CTS interrupt and flag
1119:Drivers/GD32F1x0_standard_peripheral/Source/gd32f1x0_usart.c ****       \arg        USART_INT_FLAG_ERR_NERR:  error interrupt and noise error flag
1120:Drivers/GD32F1x0_standard_peripheral/Source/gd32f1x0_usart.c ****       \arg        USART_INT_FLAG_ERR_ORERR: error interrupt and overrun error
1121:Drivers/GD32F1x0_standard_peripheral/Source/gd32f1x0_usart.c ****       \arg        USART_INT_FLAG_ERR_FERR:  error interrupt and frame error flag
1122:Drivers/GD32F1x0_standard_peripheral/Source/gd32f1x0_usart.c ****     \param[out] none
1123:Drivers/GD32F1x0_standard_peripheral/Source/gd32f1x0_usart.c ****     \retval     FlagStatus: SET or RESET
1124:Drivers/GD32F1x0_standard_peripheral/Source/gd32f1x0_usart.c **** */
1125:Drivers/GD32F1x0_standard_peripheral/Source/gd32f1x0_usart.c **** FlagStatus usart_interrupt_flag_get(uint32_t usart_periph, uint32_t int_flag)
1126:Drivers/GD32F1x0_standard_peripheral/Source/gd32f1x0_usart.c **** {
 2395              		.loc 1 1126 1 is_stmt 1 view -0
 2396              		.cfi_startproc
 2397              		@ args = 0, pretend = 0, frame = 0
 2398              		@ frame_needed = 0, uses_anonymous_args = 0
1127:Drivers/GD32F1x0_standard_peripheral/Source/gd32f1x0_usart.c ****     uint32_t intenable = 0U, flagstatus = 0U;
 2399              		.loc 1 1127 5 view .LVU516
1128:Drivers/GD32F1x0_standard_peripheral/Source/gd32f1x0_usart.c ****     /* get the interrupt enable bit status */
1129:Drivers/GD32F1x0_standard_peripheral/Source/gd32f1x0_usart.c ****     intenable = (USART_REG_VAL(usart_periph, int_flag) & BIT(USART_BIT_POS(int_flag)));
 2400              		.loc 1 1129 5 view .LVU517
ARM GAS  /tmp/cc8PYp20.s 			page 62


 2401              		.loc 1 1129 18 is_stmt 0 view .LVU518
 2402 0000 C1F38913 		ubfx	r3, r1, #6, #10
1126:Drivers/GD32F1x0_standard_peripheral/Source/gd32f1x0_usart.c ****     uint32_t intenable = 0U, flagstatus = 0U;
 2403              		.loc 1 1126 1 view .LVU519
 2404 0004 10B5     		push	{r4, lr}
 2405              	.LCFI7:
 2406              		.cfi_def_cfa_offset 8
 2407              		.cfi_offset 4, -8
 2408              		.cfi_offset 14, -4
 2409              		.loc 1 1129 18 view .LVU520
 2410 0006 1C58     		ldr	r4, [r3, r0]
 2411              	.LVL106:
1130:Drivers/GD32F1x0_standard_peripheral/Source/gd32f1x0_usart.c ****     /* get the corresponding flag bit status */
1131:Drivers/GD32F1x0_standard_peripheral/Source/gd32f1x0_usart.c ****     flagstatus = (USART_REG_VAL2(usart_periph, int_flag) & BIT(USART_BIT_POS2(int_flag)));
 2412              		.loc 1 1131 5 is_stmt 1 view .LVU521
 2413              		.loc 1 1131 19 is_stmt 0 view .LVU522
 2414 0008 8B0D     		lsrs	r3, r1, #22
 2415 000a 1A58     		ldr	r2, [r3, r0]
 2416              	.LVL107:
1132:Drivers/GD32F1x0_standard_peripheral/Source/gd32f1x0_usart.c **** 
1133:Drivers/GD32F1x0_standard_peripheral/Source/gd32f1x0_usart.c ****     if(flagstatus && intenable){
 2417              		.loc 1 1133 5 is_stmt 1 view .LVU523
1131:Drivers/GD32F1x0_standard_peripheral/Source/gd32f1x0_usart.c **** 
 2418              		.loc 1 1131 60 is_stmt 0 view .LVU524
 2419 000c 0123     		movs	r3, #1
 2420 000e C1F30440 		ubfx	r0, r1, #16, #5
 2421              	.LVL108:
1131:Drivers/GD32F1x0_standard_peripheral/Source/gd32f1x0_usart.c **** 
 2422              		.loc 1 1131 60 view .LVU525
 2423 0012 03FA00F0 		lsl	r0, r3, r0
 2424              		.loc 1 1133 7 view .LVU526
 2425 0016 1040     		ands	r0, r0, r2
 2426 0018 07D0     		beq	.L93
1129:Drivers/GD32F1x0_standard_peripheral/Source/gd32f1x0_usart.c ****     /* get the corresponding flag bit status */
 2427              		.loc 1 1129 58 discriminator 1 view .LVU527
 2428 001a 01F01F01 		and	r1, r1, #31
 2429              	.LVL109:
1129:Drivers/GD32F1x0_standard_peripheral/Source/gd32f1x0_usart.c ****     /* get the corresponding flag bit status */
 2430              		.loc 1 1129 58 discriminator 1 view .LVU528
 2431 001e 03FA01F1 		lsl	r1, r3, r1
 2432              	.LVL110:
 2433              		.loc 1 1133 19 discriminator 1 view .LVU529
 2434 0022 2142     		tst	r1, r4
1134:Drivers/GD32F1x0_standard_peripheral/Source/gd32f1x0_usart.c ****         return SET;
1135:Drivers/GD32F1x0_standard_peripheral/Source/gd32f1x0_usart.c ****     }else{
1136:Drivers/GD32F1x0_standard_peripheral/Source/gd32f1x0_usart.c ****         return RESET; 
 2435              		.loc 1 1136 16 discriminator 1 view .LVU530
 2436 0024 14BF     		ite	ne
 2437 0026 1846     		movne	r0, r3
 2438 0028 0020     		moveq	r0, #0
 2439              	.L93:
1137:Drivers/GD32F1x0_standard_peripheral/Source/gd32f1x0_usart.c ****     }
1138:Drivers/GD32F1x0_standard_peripheral/Source/gd32f1x0_usart.c **** }
 2440              		.loc 1 1138 1 view .LVU531
 2441 002a 10BD     		pop	{r4, pc}
 2442              		.loc 1 1138 1 view .LVU532
 2443              		.cfi_endproc
ARM GAS  /tmp/cc8PYp20.s 			page 63


 2444              	.LFE122:
 2446              		.section	.text.usart_interrupt_flag_clear,"ax",%progbits
 2447              		.align	1
 2448              		.global	usart_interrupt_flag_clear
 2449              		.syntax unified
 2450              		.thumb
 2451              		.thumb_func
 2452              		.fpu softvfp
 2454              	usart_interrupt_flag_clear:
 2455              	.LVL111:
 2456              	.LFB123:
1139:Drivers/GD32F1x0_standard_peripheral/Source/gd32f1x0_usart.c **** 
1140:Drivers/GD32F1x0_standard_peripheral/Source/gd32f1x0_usart.c **** /*!
1141:Drivers/GD32F1x0_standard_peripheral/Source/gd32f1x0_usart.c ****     \brief      clear USART interrupt flag in STAT register
1142:Drivers/GD32F1x0_standard_peripheral/Source/gd32f1x0_usart.c ****     \param[in]  usart_periph: USARTx(x=0,1)
1143:Drivers/GD32F1x0_standard_peripheral/Source/gd32f1x0_usart.c ****     \param[in]  flag: USART interrupt flag
1144:Drivers/GD32F1x0_standard_peripheral/Source/gd32f1x0_usart.c ****       \arg        USART_INT_FLAG_PERR: parity error flag
1145:Drivers/GD32F1x0_standard_peripheral/Source/gd32f1x0_usart.c ****       \arg        USART_INT_FLAG_FERR: frame error flag
1146:Drivers/GD32F1x0_standard_peripheral/Source/gd32f1x0_usart.c ****       \arg        USART_INT_FLAG_NERR: noise detected flag
1147:Drivers/GD32F1x0_standard_peripheral/Source/gd32f1x0_usart.c ****       \arg        USART_INT_FLAG_ORERR:overrun error flag
1148:Drivers/GD32F1x0_standard_peripheral/Source/gd32f1x0_usart.c ****       \arg        USART_INT_FLAG_IDLE: idle line detected flag
1149:Drivers/GD32F1x0_standard_peripheral/Source/gd32f1x0_usart.c ****       \arg        USART_INT_FLAG_TC:   transmission complete flag
1150:Drivers/GD32F1x0_standard_peripheral/Source/gd32f1x0_usart.c ****       \arg        USART_INT_FLAG_LBD:  LIN break detected flag
1151:Drivers/GD32F1x0_standard_peripheral/Source/gd32f1x0_usart.c ****       \arg        USART_INT_FLAG_CTS:  CTS change flag
1152:Drivers/GD32F1x0_standard_peripheral/Source/gd32f1x0_usart.c ****       \arg        USART_INT_FLAG_RT:   receiver timeout flag
1153:Drivers/GD32F1x0_standard_peripheral/Source/gd32f1x0_usart.c ****       \arg        USART_INT_FLAG_EB:   end of block flag
1154:Drivers/GD32F1x0_standard_peripheral/Source/gd32f1x0_usart.c ****       \arg        USART_INT_FLAG_AM:   address match flag
1155:Drivers/GD32F1x0_standard_peripheral/Source/gd32f1x0_usart.c ****       \arg        USART_INT_FLAG_WU:   wakeup from deep-sleep mode flag
1156:Drivers/GD32F1x0_standard_peripheral/Source/gd32f1x0_usart.c ****     \param[out] none
1157:Drivers/GD32F1x0_standard_peripheral/Source/gd32f1x0_usart.c ****     \retval     none
1158:Drivers/GD32F1x0_standard_peripheral/Source/gd32f1x0_usart.c **** */
1159:Drivers/GD32F1x0_standard_peripheral/Source/gd32f1x0_usart.c **** void usart_interrupt_flag_clear(uint32_t usart_periph, uint32_t flag)
1160:Drivers/GD32F1x0_standard_peripheral/Source/gd32f1x0_usart.c **** {
 2457              		.loc 1 1160 1 is_stmt 1 view -0
 2458              		.cfi_startproc
 2459              		@ args = 0, pretend = 0, frame = 0
 2460              		@ frame_needed = 0, uses_anonymous_args = 0
 2461              		@ link register save eliminated.
1161:Drivers/GD32F1x0_standard_peripheral/Source/gd32f1x0_usart.c ****     USART_INTC(usart_periph) |= BIT(USART_BIT_POS2(flag));
 2462              		.loc 1 1161 5 view .LVU534
 2463              		.loc 1 1161 33 is_stmt 0 view .LVU535
 2464 0000 C1F30443 		ubfx	r3, r1, #16, #5
 2465 0004 0121     		movs	r1, #1
 2466              	.LVL112:
 2467              		.loc 1 1161 30 view .LVU536
 2468 0006 026A     		ldr	r2, [r0, #32]
 2469              		.loc 1 1161 33 view .LVU537
 2470 0008 9940     		lsls	r1, r1, r3
 2471              		.loc 1 1161 30 view .LVU538
 2472 000a 1143     		orrs	r1, r1, r2
 2473 000c 0162     		str	r1, [r0, #32]
1162:Drivers/GD32F1x0_standard_peripheral/Source/gd32f1x0_usart.c **** }
 2474              		.loc 1 1162 1 view .LVU539
 2475 000e 7047     		bx	lr
 2476              		.cfi_endproc
 2477              	.LFE123:
 2479              		.text
ARM GAS  /tmp/cc8PYp20.s 			page 64


 2480              	.Letext0:
 2481              		.file 2 "/usr/lib/gcc/arm-none-eabi/10.3.1/include/stdint.h"
 2482              		.file 3 "Drivers/CMSIS/Include/gd32f1x0.h"
 2483              		.file 4 "Drivers/GD32F1x0_standard_peripheral/Include/gd32f1x0_rcu.h"
 2484              		.file 5 "Drivers/GD32F1x0_standard_peripheral/Include/gd32f1x0_usart.h"
ARM GAS  /tmp/cc8PYp20.s 			page 65

