ARM GAS  /tmp/ccP258vc.s 			page 1


   1              		.cpu cortex-m3
   2              		.eabi_attribute 20, 1
   3              		.eabi_attribute 21, 1
   4              		.eabi_attribute 23, 3
   5              		.eabi_attribute 24, 1
   6              		.eabi_attribute 25, 1
   7              		.eabi_attribute 26, 1
   8              		.eabi_attribute 30, 4
   9              		.eabi_attribute 34, 1
  10              		.eabi_attribute 18, 4
  11              		.file	"gd32f1x0_cec.c"
  12              		.text
  13              	.Ltext0:
  14              		.cfi_sections	.debug_frame
  15              		.section	.text.cec_deinit,"ax",%progbits
  16              		.align	1
  17              		.global	cec_deinit
  18              		.arch armv7-m
  19              		.syntax unified
  20              		.thumb
  21              		.thumb_func
  22              		.fpu softvfp
  24              	cec_deinit:
  25              	.LFB56:
  26              		.file 1 "Drivers/GD32F1x0_standard_peripheral/Source/gd32f1x0_cec.c"
   1:Drivers/GD32F1x0_standard_peripheral/Source/gd32f1x0_cec.c **** /*!
   2:Drivers/GD32F1x0_standard_peripheral/Source/gd32f1x0_cec.c ****     \file  gd32f1x0_cec.c
   3:Drivers/GD32F1x0_standard_peripheral/Source/gd32f1x0_cec.c ****     \brief CEC driver
   4:Drivers/GD32F1x0_standard_peripheral/Source/gd32f1x0_cec.c **** */
   5:Drivers/GD32F1x0_standard_peripheral/Source/gd32f1x0_cec.c **** 
   6:Drivers/GD32F1x0_standard_peripheral/Source/gd32f1x0_cec.c **** /*
   7:Drivers/GD32F1x0_standard_peripheral/Source/gd32f1x0_cec.c ****     Copyright (C) 2017 GigaDevice
   8:Drivers/GD32F1x0_standard_peripheral/Source/gd32f1x0_cec.c **** 
   9:Drivers/GD32F1x0_standard_peripheral/Source/gd32f1x0_cec.c ****     2014-12-26, V1.0.0, platform GD32F1x0(x=3,5)
  10:Drivers/GD32F1x0_standard_peripheral/Source/gd32f1x0_cec.c ****     2016-01-15, V2.0.0, platform GD32F1x0(x=3,5,7,9)
  11:Drivers/GD32F1x0_standard_peripheral/Source/gd32f1x0_cec.c ****     2016-04-30, V3.0.0, firmware update for GD32F1x0(x=3,5,7,9)
  12:Drivers/GD32F1x0_standard_peripheral/Source/gd32f1x0_cec.c ****     2017-06-19, V3.1.0, firmware update for GD32F1x0(x=3,5,7,9)
  13:Drivers/GD32F1x0_standard_peripheral/Source/gd32f1x0_cec.c **** */
  14:Drivers/GD32F1x0_standard_peripheral/Source/gd32f1x0_cec.c **** 
  15:Drivers/GD32F1x0_standard_peripheral/Source/gd32f1x0_cec.c **** #include "gd32f1x0_cec.h"
  16:Drivers/GD32F1x0_standard_peripheral/Source/gd32f1x0_cec.c **** #include "gd32f1x0_rcu.h"
  17:Drivers/GD32F1x0_standard_peripheral/Source/gd32f1x0_cec.c **** 
  18:Drivers/GD32F1x0_standard_peripheral/Source/gd32f1x0_cec.c **** /*!
  19:Drivers/GD32F1x0_standard_peripheral/Source/gd32f1x0_cec.c ****     \brief      reset HDMI-CEC controller
  20:Drivers/GD32F1x0_standard_peripheral/Source/gd32f1x0_cec.c ****     \param[in]  none
  21:Drivers/GD32F1x0_standard_peripheral/Source/gd32f1x0_cec.c ****     \param[out] none
  22:Drivers/GD32F1x0_standard_peripheral/Source/gd32f1x0_cec.c ****     \retval     none
  23:Drivers/GD32F1x0_standard_peripheral/Source/gd32f1x0_cec.c **** */
  24:Drivers/GD32F1x0_standard_peripheral/Source/gd32f1x0_cec.c **** void cec_deinit(void)
  25:Drivers/GD32F1x0_standard_peripheral/Source/gd32f1x0_cec.c **** {
  27              		.loc 1 25 1 view -0
  28              		.cfi_startproc
  29              		@ args = 0, pretend = 0, frame = 0
  30              		@ frame_needed = 0, uses_anonymous_args = 0
  26:Drivers/GD32F1x0_standard_peripheral/Source/gd32f1x0_cec.c ****     rcu_periph_reset_enable(RCU_CECRST);
  31              		.loc 1 26 5 view .LVU1
  25:Drivers/GD32F1x0_standard_peripheral/Source/gd32f1x0_cec.c ****     rcu_periph_reset_enable(RCU_CECRST);
ARM GAS  /tmp/ccP258vc.s 			page 2


  32              		.loc 1 25 1 is_stmt 0 view .LVU2
  33 0000 08B5     		push	{r3, lr}
  34              	.LCFI0:
  35              		.cfi_def_cfa_offset 8
  36              		.cfi_offset 3, -8
  37              		.cfi_offset 14, -4
  38              		.loc 1 26 5 view .LVU3
  39 0002 40F21E40 		movw	r0, #1054
  40 0006 FFF7FEFF 		bl	rcu_periph_reset_enable
  41              	.LVL0:
  27:Drivers/GD32F1x0_standard_peripheral/Source/gd32f1x0_cec.c ****     rcu_periph_reset_disable(RCU_CECRST);
  42              		.loc 1 27 5 is_stmt 1 view .LVU4
  28:Drivers/GD32F1x0_standard_peripheral/Source/gd32f1x0_cec.c **** }
  43              		.loc 1 28 1 is_stmt 0 view .LVU5
  44 000a BDE80840 		pop	{r3, lr}
  45              	.LCFI1:
  46              		.cfi_restore 14
  47              		.cfi_restore 3
  48              		.cfi_def_cfa_offset 0
  27:Drivers/GD32F1x0_standard_peripheral/Source/gd32f1x0_cec.c ****     rcu_periph_reset_disable(RCU_CECRST);
  49              		.loc 1 27 5 view .LVU6
  50 000e 40F21E40 		movw	r0, #1054
  51 0012 FFF7FEBF 		b	rcu_periph_reset_disable
  52              	.LVL1:
  53              		.cfi_endproc
  54              	.LFE56:
  56              		.section	.text.cec_init,"ax",%progbits
  57              		.align	1
  58              		.global	cec_init
  59              		.syntax unified
  60              		.thumb
  61              		.thumb_func
  62              		.fpu softvfp
  64              	cec_init:
  65              	.LVL2:
  66              	.LFB57:
  29:Drivers/GD32F1x0_standard_peripheral/Source/gd32f1x0_cec.c **** 
  30:Drivers/GD32F1x0_standard_peripheral/Source/gd32f1x0_cec.c **** /*!
  31:Drivers/GD32F1x0_standard_peripheral/Source/gd32f1x0_cec.c ****     \brief      configure signal free time,the signal free time counter start option,own address 
  32:Drivers/GD32F1x0_standard_peripheral/Source/gd32f1x0_cec.c ****     \param[in]  sftmopt: signal free time counter start option
  33:Drivers/GD32F1x0_standard_peripheral/Source/gd32f1x0_cec.c ****       \arg        CEC_SFT_START_STAOM: signal free time counter starts counting when STAOM is asser
  34:Drivers/GD32F1x0_standard_peripheral/Source/gd32f1x0_cec.c ****       \arg        CEC_SFT_START_LAST: signal free time counter starts automatically after transmiss
  35:Drivers/GD32F1x0_standard_peripheral/Source/gd32f1x0_cec.c ****     \param[in]  sft: signal free time
  36:Drivers/GD32F1x0_standard_peripheral/Source/gd32f1x0_cec.c ****       \arg        CEC_SFT_PROTOCOL_PERIOD: the signal free time will perform as HDMI-CEC protocol d
  37:Drivers/GD32F1x0_standard_peripheral/Source/gd32f1x0_cec.c ****       \arg        CEC_SFT_1POINT5_PERIOD: 1.5 nominal data bit periods
  38:Drivers/GD32F1x0_standard_peripheral/Source/gd32f1x0_cec.c ****       \arg        CEC_SFT_2POINT5_PERIOD: 2.5 nominal data bit periods
  39:Drivers/GD32F1x0_standard_peripheral/Source/gd32f1x0_cec.c ****       \arg        CEC_SFT_3POINT5_PERIOD: 3.5 nominal data bit periods
  40:Drivers/GD32F1x0_standard_peripheral/Source/gd32f1x0_cec.c ****       \arg        CEC_SFT_4POINT5_PERIOD: 4.5 nominal data bit periods
  41:Drivers/GD32F1x0_standard_peripheral/Source/gd32f1x0_cec.c ****       \arg        CEC_SFT_5POINT5_PERIOD: 5.5 nominal data bit periods
  42:Drivers/GD32F1x0_standard_peripheral/Source/gd32f1x0_cec.c ****       \arg        CEC_SFT_6POINT5_PERIOD: 6.5 nominal data bit periods
  43:Drivers/GD32F1x0_standard_peripheral/Source/gd32f1x0_cec.c ****       \arg        CEC_SFT_7POINT5_PERIOD: 7.5 nominal data bit periods
  44:Drivers/GD32F1x0_standard_peripheral/Source/gd32f1x0_cec.c ****     \param[in]  address: own address
  45:Drivers/GD32F1x0_standard_peripheral/Source/gd32f1x0_cec.c ****       \arg        CEC_OWN_ADDRESS_CLEAR: own address is cleared
  46:Drivers/GD32F1x0_standard_peripheral/Source/gd32f1x0_cec.c ****       \arg        CEC_OWN_ADDRESSx(x=0..14): own address is x
  47:Drivers/GD32F1x0_standard_peripheral/Source/gd32f1x0_cec.c ****     \param[out] none
  48:Drivers/GD32F1x0_standard_peripheral/Source/gd32f1x0_cec.c ****     \retval     none
  49:Drivers/GD32F1x0_standard_peripheral/Source/gd32f1x0_cec.c **** */
ARM GAS  /tmp/ccP258vc.s 			page 3


  50:Drivers/GD32F1x0_standard_peripheral/Source/gd32f1x0_cec.c **** void cec_init(uint32_t sftopt, uint32_t sft, uint32_t address)
  51:Drivers/GD32F1x0_standard_peripheral/Source/gd32f1x0_cec.c **** {
  67              		.loc 1 51 1 is_stmt 1 view -0
  68              		.cfi_startproc
  69              		@ args = 0, pretend = 0, frame = 0
  70              		@ frame_needed = 0, uses_anonymous_args = 0
  52:Drivers/GD32F1x0_standard_peripheral/Source/gd32f1x0_cec.c ****     uint32_t cfg;
  71              		.loc 1 52 5 view .LVU8
  53:Drivers/GD32F1x0_standard_peripheral/Source/gd32f1x0_cec.c ****     cfg = CEC_CFG;
  72              		.loc 1 53 5 view .LVU9
  51:Drivers/GD32F1x0_standard_peripheral/Source/gd32f1x0_cec.c ****     uint32_t cfg;
  73              		.loc 1 51 1 is_stmt 0 view .LVU10
  74 0000 10B5     		push	{r4, lr}
  75              	.LCFI2:
  76              		.cfi_def_cfa_offset 8
  77              		.cfi_offset 4, -8
  78              		.cfi_offset 14, -4
  79              		.loc 1 53 9 view .LVU11
  80 0002 0C4C     		ldr	r4, .L5
  81 0004 D4F80438 		ldr	r3, [r4, #2052]
  82              	.LVL3:
  54:Drivers/GD32F1x0_standard_peripheral/Source/gd32f1x0_cec.c ****     /* clear SFTOPT bit,SFT[2:0] */
  55:Drivers/GD32F1x0_standard_peripheral/Source/gd32f1x0_cec.c ****     cfg &= ~(CEC_CFG_SFTOPT | CEC_CFG_SFT);
  83              		.loc 1 55 5 is_stmt 1 view .LVU12
  56:Drivers/GD32F1x0_standard_peripheral/Source/gd32f1x0_cec.c ****     /* assign SFTOPT bit,SFT[2:0] */
  57:Drivers/GD32F1x0_standard_peripheral/Source/gd32f1x0_cec.c ****     cfg |= (sftopt | sft);
  84              		.loc 1 57 5 view .LVU13
  55:Drivers/GD32F1x0_standard_peripheral/Source/gd32f1x0_cec.c ****     /* assign SFTOPT bit,SFT[2:0] */
  85              		.loc 1 55 9 is_stmt 0 view .LVU14
  86 0008 23F48373 		bic	r3, r3, #262
  87              	.LVL4:
  55:Drivers/GD32F1x0_standard_peripheral/Source/gd32f1x0_cec.c ****     /* assign SFTOPT bit,SFT[2:0] */
  88              		.loc 1 55 9 view .LVU15
  89 000c 23F00103 		bic	r3, r3, #1
  90 0010 0B43     		orrs	r3, r3, r1
  91              		.loc 1 57 9 view .LVU16
  92 0012 0343     		orrs	r3, r3, r0
  93              	.LVL5:
  58:Drivers/GD32F1x0_standard_peripheral/Source/gd32f1x0_cec.c ****     CEC_CFG = cfg;
  94              		.loc 1 58 5 is_stmt 1 view .LVU17
  95              		.loc 1 58 13 is_stmt 0 view .LVU18
  96 0014 C4F80438 		str	r3, [r4, #2052]
  59:Drivers/GD32F1x0_standard_peripheral/Source/gd32f1x0_cec.c ****     if(CEC_OWN_ADDRESS_CLEAR == address){
  97              		.loc 1 59 5 is_stmt 1 view .LVU19
  60:Drivers/GD32F1x0_standard_peripheral/Source/gd32f1x0_cec.c ****         CEC_CFG &= ~CEC_CFG_OAD;
  98              		.loc 1 60 17 is_stmt 0 view .LVU20
  99 0018 D4F80438 		ldr	r3, [r4, #2052]
 100              	.LVL6:
  59:Drivers/GD32F1x0_standard_peripheral/Source/gd32f1x0_cec.c ****     if(CEC_OWN_ADDRESS_CLEAR == address){
 101              		.loc 1 59 7 view .LVU21
 102 001c 32B9     		cbnz	r2, .L3
 103              		.loc 1 60 9 is_stmt 1 view .LVU22
 104              		.loc 1 60 17 is_stmt 0 view .LVU23
 105 001e 23F0FF43 		bic	r3, r3, #2139095040
 106 0022 23F4FE03 		bic	r3, r3, #8323072
 107 0026 C4F80438 		str	r3, [r4, #2052]
 108              	.LVL7:
ARM GAS  /tmp/ccP258vc.s 			page 4


 109              	.L2:
  61:Drivers/GD32F1x0_standard_peripheral/Source/gd32f1x0_cec.c ****     }else{
  62:Drivers/GD32F1x0_standard_peripheral/Source/gd32f1x0_cec.c ****         CEC_CFG |= address;
  63:Drivers/GD32F1x0_standard_peripheral/Source/gd32f1x0_cec.c ****     }
  64:Drivers/GD32F1x0_standard_peripheral/Source/gd32f1x0_cec.c **** }
 110              		.loc 1 64 1 view .LVU24
 111 002a 10BD     		pop	{r4, pc}
 112              	.LVL8:
 113              	.L3:
  62:Drivers/GD32F1x0_standard_peripheral/Source/gd32f1x0_cec.c ****     }
 114              		.loc 1 62 9 is_stmt 1 view .LVU25
  62:Drivers/GD32F1x0_standard_peripheral/Source/gd32f1x0_cec.c ****     }
 115              		.loc 1 62 17 is_stmt 0 view .LVU26
 116 002c 1A43     		orrs	r2, r2, r3
 117              	.LVL9:
  62:Drivers/GD32F1x0_standard_peripheral/Source/gd32f1x0_cec.c ****     }
 118              		.loc 1 62 17 view .LVU27
 119 002e C4F80428 		str	r2, [r4, #2052]
 120              	.LVL10:
 121              		.loc 1 64 1 view .LVU28
 122 0032 FAE7     		b	.L2
 123              	.L6:
 124              		.align	2
 125              	.L5:
 126 0034 00700040 		.word	1073770496
 127              		.cfi_endproc
 128              	.LFE57:
 130              		.section	.text.cec_error_config,"ax",%progbits
 131              		.align	1
 132              		.global	cec_error_config
 133              		.syntax unified
 134              		.thumb
 135              		.thumb_func
 136              		.fpu softvfp
 138              	cec_error_config:
 139              	.LVL11:
 140              	.LFB58:
  65:Drivers/GD32F1x0_standard_peripheral/Source/gd32f1x0_cec.c **** 
  66:Drivers/GD32F1x0_standard_peripheral/Source/gd32f1x0_cec.c **** /*!
  67:Drivers/GD32F1x0_standard_peripheral/Source/gd32f1x0_cec.c ****     \brief      configure generate Error-bit when detected some abnormal situation or not,
  68:Drivers/GD32F1x0_standard_peripheral/Source/gd32f1x0_cec.c ****                 whether stop receive message when detected bit rising error
  69:Drivers/GD32F1x0_standard_peripheral/Source/gd32f1x0_cec.c ****     \param[in]  broadcast:
  70:Drivers/GD32F1x0_standard_peripheral/Source/gd32f1x0_cec.c ****       \arg        CEC_BROADCAST_ERROR_BIT_ON:generate Error-bit in broadcast
  71:Drivers/GD32F1x0_standard_peripheral/Source/gd32f1x0_cec.c ****       \arg        CEC_BROADCAST_ERROR_BIT_OFF:do not generate Error-bit in broadcast
  72:Drivers/GD32F1x0_standard_peripheral/Source/gd32f1x0_cec.c ****     \param[in]  singlecast_lbpe:
  73:Drivers/GD32F1x0_standard_peripheral/Source/gd32f1x0_cec.c ****       \arg        CEC_LONG_PERIOD_ERROR_BIT_ON:generate Error-bit on long bit period error
  74:Drivers/GD32F1x0_standard_peripheral/Source/gd32f1x0_cec.c ****       \arg        CEC_LONG_PERIOD_ERROR_BIT_OFF:do not generate Error-bit on long bit period error
  75:Drivers/GD32F1x0_standard_peripheral/Source/gd32f1x0_cec.c ****     \param[in]  singlecast_bre:
  76:Drivers/GD32F1x0_standard_peripheral/Source/gd32f1x0_cec.c ****       \arg        CEC_RISING_PERIOD_ERROR_BIT_ON:generate Error-bit on bit rising error
  77:Drivers/GD32F1x0_standard_peripheral/Source/gd32f1x0_cec.c ****       \arg        CEC_RISING_PERIOD_ERROR_BIT_OFF:do not generate Error-bit on bit rising error
  78:Drivers/GD32F1x0_standard_peripheral/Source/gd32f1x0_cec.c ****     \param[in]  rxbrestp:
  79:Drivers/GD32F1x0_standard_peripheral/Source/gd32f1x0_cec.c ****       \arg        CEC_STOP_RISING_ERROR_BIT_ON: stop reception when detected bit rising error
  80:Drivers/GD32F1x0_standard_peripheral/Source/gd32f1x0_cec.c ****       \arg        CEC_STOP_RISING_ERROR_BIT_OFF: do not stop reception when detected bit rising err
  81:Drivers/GD32F1x0_standard_peripheral/Source/gd32f1x0_cec.c ****     \param[out] none
  82:Drivers/GD32F1x0_standard_peripheral/Source/gd32f1x0_cec.c ****     \retval     none
  83:Drivers/GD32F1x0_standard_peripheral/Source/gd32f1x0_cec.c **** */
  84:Drivers/GD32F1x0_standard_peripheral/Source/gd32f1x0_cec.c **** void cec_error_config(uint32_t broadcast, uint32_t singlecast_lbpe, uint32_t singlecast_bre, uint32
ARM GAS  /tmp/ccP258vc.s 			page 5


  85:Drivers/GD32F1x0_standard_peripheral/Source/gd32f1x0_cec.c **** {
 141              		.loc 1 85 1 is_stmt 1 view -0
 142              		.cfi_startproc
 143              		@ args = 0, pretend = 0, frame = 0
 144              		@ frame_needed = 0, uses_anonymous_args = 0
  86:Drivers/GD32F1x0_standard_peripheral/Source/gd32f1x0_cec.c ****     uint32_t cfg;
 145              		.loc 1 86 5 view .LVU30
  87:Drivers/GD32F1x0_standard_peripheral/Source/gd32f1x0_cec.c ****     cfg = CEC_CFG;
 146              		.loc 1 87 5 view .LVU31
  85:Drivers/GD32F1x0_standard_peripheral/Source/gd32f1x0_cec.c ****     uint32_t cfg;
 147              		.loc 1 85 1 is_stmt 0 view .LVU32
 148 0000 30B5     		push	{r4, r5, lr}
 149              	.LCFI3:
 150              		.cfi_def_cfa_offset 12
 151              		.cfi_offset 4, -12
 152              		.cfi_offset 5, -8
 153              		.cfi_offset 14, -4
 154              		.loc 1 87 9 view .LVU33
 155 0002 0B4D     		ldr	r5, .L11
 156 0004 D5F80448 		ldr	r4, [r5, #2052]
 157              	.LVL12:
  88:Drivers/GD32F1x0_standard_peripheral/Source/gd32f1x0_cec.c ****     /* clear BCNG bit, BPLEG bit, BREG bit */
  89:Drivers/GD32F1x0_standard_peripheral/Source/gd32f1x0_cec.c ****     cfg &= ~(CEC_CFG_BCNG | CEC_CFG_BPLEG | CEC_CFG_BREG);
 158              		.loc 1 89 5 is_stmt 1 view .LVU34
  90:Drivers/GD32F1x0_standard_peripheral/Source/gd32f1x0_cec.c ****     /* assign BCNG bit, BPLEG bit, BREG bit */
  91:Drivers/GD32F1x0_standard_peripheral/Source/gd32f1x0_cec.c ****     cfg |= (broadcast | singlecast_lbpe | singlecast_bre);
 159              		.loc 1 91 5 view .LVU35
  89:Drivers/GD32F1x0_standard_peripheral/Source/gd32f1x0_cec.c ****     /* assign BCNG bit, BPLEG bit, BREG bit */
 160              		.loc 1 89 9 is_stmt 0 view .LVU36
 161 0008 24F0E004 		bic	r4, r4, #224
 162              	.LVL13:
  89:Drivers/GD32F1x0_standard_peripheral/Source/gd32f1x0_cec.c ****     /* assign BCNG bit, BPLEG bit, BREG bit */
 163              		.loc 1 89 9 view .LVU37
 164 000c 1443     		orrs	r4, r4, r2
 165              	.LVL14:
  89:Drivers/GD32F1x0_standard_peripheral/Source/gd32f1x0_cec.c ****     /* assign BCNG bit, BPLEG bit, BREG bit */
 166              		.loc 1 89 9 view .LVU38
 167 000e 0C43     		orrs	r4, r4, r1
 168              		.loc 1 91 9 view .LVU39
 169 0010 0443     		orrs	r4, r4, r0
 170              	.LVL15:
  92:Drivers/GD32F1x0_standard_peripheral/Source/gd32f1x0_cec.c ****     CEC_CFG = cfg;
 171              		.loc 1 92 5 is_stmt 1 view .LVU40
 172              		.loc 1 92 13 is_stmt 0 view .LVU41
 173 0012 C5F80448 		str	r4, [r5, #2052]
  93:Drivers/GD32F1x0_standard_peripheral/Source/gd32f1x0_cec.c ****     if(CEC_STOP_RISING_ERROR_BIT_ON == rxbrestp){
 174              		.loc 1 93 5 is_stmt 1 view .LVU42
 175              		.loc 1 93 7 is_stmt 0 view .LVU43
 176 0016 33B9     		cbnz	r3, .L8
  94:Drivers/GD32F1x0_standard_peripheral/Source/gd32f1x0_cec.c ****         CEC_CFG |= CEC_CFG_BRES;
 177              		.loc 1 94 9 is_stmt 1 view .LVU44
 178              		.loc 1 94 17 is_stmt 0 view .LVU45
 179 0018 D5F80438 		ldr	r3, [r5, #2052]
 180              	.LVL16:
 181              		.loc 1 94 17 view .LVU46
 182 001c 43F01003 		orr	r3, r3, #16
 183              	.L10:
ARM GAS  /tmp/ccP258vc.s 			page 6


  95:Drivers/GD32F1x0_standard_peripheral/Source/gd32f1x0_cec.c ****     }else{
  96:Drivers/GD32F1x0_standard_peripheral/Source/gd32f1x0_cec.c ****         CEC_CFG &= ~CEC_CFG_BRES;
 184              		.loc 1 96 17 view .LVU47
 185 0020 C5F80438 		str	r3, [r5, #2052]
  97:Drivers/GD32F1x0_standard_peripheral/Source/gd32f1x0_cec.c ****     }
  98:Drivers/GD32F1x0_standard_peripheral/Source/gd32f1x0_cec.c **** }
 186              		.loc 1 98 1 view .LVU48
 187 0024 30BD     		pop	{r4, r5, pc}
 188              	.LVL17:
 189              	.L8:
  96:Drivers/GD32F1x0_standard_peripheral/Source/gd32f1x0_cec.c ****     }
 190              		.loc 1 96 9 is_stmt 1 view .LVU49
  96:Drivers/GD32F1x0_standard_peripheral/Source/gd32f1x0_cec.c ****     }
 191              		.loc 1 96 17 is_stmt 0 view .LVU50
 192 0026 D5F80438 		ldr	r3, [r5, #2052]
 193              	.LVL18:
  96:Drivers/GD32F1x0_standard_peripheral/Source/gd32f1x0_cec.c ****     }
 194              		.loc 1 96 17 view .LVU51
 195 002a 23F01003 		bic	r3, r3, #16
 196 002e F7E7     		b	.L10
 197              	.L12:
 198              		.align	2
 199              	.L11:
 200 0030 00700040 		.word	1073770496
 201              		.cfi_endproc
 202              	.LFE58:
 204              		.section	.text.cec_enable,"ax",%progbits
 205              		.align	1
 206              		.global	cec_enable
 207              		.syntax unified
 208              		.thumb
 209              		.thumb_func
 210              		.fpu softvfp
 212              	cec_enable:
 213              	.LFB59:
  99:Drivers/GD32F1x0_standard_peripheral/Source/gd32f1x0_cec.c **** 
 100:Drivers/GD32F1x0_standard_peripheral/Source/gd32f1x0_cec.c **** /*!
 101:Drivers/GD32F1x0_standard_peripheral/Source/gd32f1x0_cec.c ****     \brief      enable HDMI-CEC controller
 102:Drivers/GD32F1x0_standard_peripheral/Source/gd32f1x0_cec.c ****     \param[in]  none
 103:Drivers/GD32F1x0_standard_peripheral/Source/gd32f1x0_cec.c ****     \param[out] none
 104:Drivers/GD32F1x0_standard_peripheral/Source/gd32f1x0_cec.c ****     \retval     none
 105:Drivers/GD32F1x0_standard_peripheral/Source/gd32f1x0_cec.c **** */
 106:Drivers/GD32F1x0_standard_peripheral/Source/gd32f1x0_cec.c **** void cec_enable(void)
 107:Drivers/GD32F1x0_standard_peripheral/Source/gd32f1x0_cec.c **** {
 214              		.loc 1 107 1 is_stmt 1 view -0
 215              		.cfi_startproc
 216              		@ args = 0, pretend = 0, frame = 0
 217              		@ frame_needed = 0, uses_anonymous_args = 0
 218              		@ link register save eliminated.
 108:Drivers/GD32F1x0_standard_peripheral/Source/gd32f1x0_cec.c ****     CEC_CTL |= CEC_CTL_CECEN;
 219              		.loc 1 108 5 view .LVU53
 220              		.loc 1 108 13 is_stmt 0 view .LVU54
 221 0000 034A     		ldr	r2, .L14
 222 0002 D2F80038 		ldr	r3, [r2, #2048]
 223 0006 43F00103 		orr	r3, r3, #1
 224 000a C2F80038 		str	r3, [r2, #2048]
 109:Drivers/GD32F1x0_standard_peripheral/Source/gd32f1x0_cec.c **** }
ARM GAS  /tmp/ccP258vc.s 			page 7


 225              		.loc 1 109 1 view .LVU55
 226 000e 7047     		bx	lr
 227              	.L15:
 228              		.align	2
 229              	.L14:
 230 0010 00700040 		.word	1073770496
 231              		.cfi_endproc
 232              	.LFE59:
 234              		.section	.text.cec_disable,"ax",%progbits
 235              		.align	1
 236              		.global	cec_disable
 237              		.syntax unified
 238              		.thumb
 239              		.thumb_func
 240              		.fpu softvfp
 242              	cec_disable:
 243              	.LFB60:
 110:Drivers/GD32F1x0_standard_peripheral/Source/gd32f1x0_cec.c **** 
 111:Drivers/GD32F1x0_standard_peripheral/Source/gd32f1x0_cec.c **** /*!
 112:Drivers/GD32F1x0_standard_peripheral/Source/gd32f1x0_cec.c ****     \brief      disable HDMI-CEC controller
 113:Drivers/GD32F1x0_standard_peripheral/Source/gd32f1x0_cec.c ****     \param[in]  none
 114:Drivers/GD32F1x0_standard_peripheral/Source/gd32f1x0_cec.c ****     \param[out] none
 115:Drivers/GD32F1x0_standard_peripheral/Source/gd32f1x0_cec.c ****     \retval     none
 116:Drivers/GD32F1x0_standard_peripheral/Source/gd32f1x0_cec.c **** */
 117:Drivers/GD32F1x0_standard_peripheral/Source/gd32f1x0_cec.c **** void cec_disable(void)
 118:Drivers/GD32F1x0_standard_peripheral/Source/gd32f1x0_cec.c **** {
 244              		.loc 1 118 1 is_stmt 1 view -0
 245              		.cfi_startproc
 246              		@ args = 0, pretend = 0, frame = 0
 247              		@ frame_needed = 0, uses_anonymous_args = 0
 248              		@ link register save eliminated.
 119:Drivers/GD32F1x0_standard_peripheral/Source/gd32f1x0_cec.c ****     CEC_CTL &= ~CEC_CTL_CECEN;
 249              		.loc 1 119 5 view .LVU57
 250              		.loc 1 119 13 is_stmt 0 view .LVU58
 251 0000 034A     		ldr	r2, .L17
 252 0002 D2F80038 		ldr	r3, [r2, #2048]
 253 0006 23F00103 		bic	r3, r3, #1
 254 000a C2F80038 		str	r3, [r2, #2048]
 120:Drivers/GD32F1x0_standard_peripheral/Source/gd32f1x0_cec.c **** }
 255              		.loc 1 120 1 view .LVU59
 256 000e 7047     		bx	lr
 257              	.L18:
 258              		.align	2
 259              	.L17:
 260 0010 00700040 		.word	1073770496
 261              		.cfi_endproc
 262              	.LFE60:
 264              		.section	.text.cec_transmission_start,"ax",%progbits
 265              		.align	1
 266              		.global	cec_transmission_start
 267              		.syntax unified
 268              		.thumb
 269              		.thumb_func
 270              		.fpu softvfp
 272              	cec_transmission_start:
 273              	.LFB61:
 121:Drivers/GD32F1x0_standard_peripheral/Source/gd32f1x0_cec.c **** 
ARM GAS  /tmp/ccP258vc.s 			page 8


 122:Drivers/GD32F1x0_standard_peripheral/Source/gd32f1x0_cec.c **** /*!
 123:Drivers/GD32F1x0_standard_peripheral/Source/gd32f1x0_cec.c ****     \brief      start CEC message transmission 
 124:Drivers/GD32F1x0_standard_peripheral/Source/gd32f1x0_cec.c ****     \param[in]  none
 125:Drivers/GD32F1x0_standard_peripheral/Source/gd32f1x0_cec.c ****     \param[out] none
 126:Drivers/GD32F1x0_standard_peripheral/Source/gd32f1x0_cec.c ****     \retval     none
 127:Drivers/GD32F1x0_standard_peripheral/Source/gd32f1x0_cec.c **** */
 128:Drivers/GD32F1x0_standard_peripheral/Source/gd32f1x0_cec.c **** void cec_transmission_start(void)
 129:Drivers/GD32F1x0_standard_peripheral/Source/gd32f1x0_cec.c **** {
 274              		.loc 1 129 1 is_stmt 1 view -0
 275              		.cfi_startproc
 276              		@ args = 0, pretend = 0, frame = 0
 277              		@ frame_needed = 0, uses_anonymous_args = 0
 278              		@ link register save eliminated.
 130:Drivers/GD32F1x0_standard_peripheral/Source/gd32f1x0_cec.c ****     CEC_CTL |= CEC_CTL_STAOM;
 279              		.loc 1 130 5 view .LVU61
 280              		.loc 1 130 13 is_stmt 0 view .LVU62
 281 0000 034A     		ldr	r2, .L20
 282 0002 D2F80038 		ldr	r3, [r2, #2048]
 283 0006 43F00203 		orr	r3, r3, #2
 284 000a C2F80038 		str	r3, [r2, #2048]
 131:Drivers/GD32F1x0_standard_peripheral/Source/gd32f1x0_cec.c **** }
 285              		.loc 1 131 1 view .LVU63
 286 000e 7047     		bx	lr
 287              	.L21:
 288              		.align	2
 289              	.L20:
 290 0010 00700040 		.word	1073770496
 291              		.cfi_endproc
 292              	.LFE61:
 294              		.section	.text.cec_transmission_end,"ax",%progbits
 295              		.align	1
 296              		.global	cec_transmission_end
 297              		.syntax unified
 298              		.thumb
 299              		.thumb_func
 300              		.fpu softvfp
 302              	cec_transmission_end:
 303              	.LFB62:
 132:Drivers/GD32F1x0_standard_peripheral/Source/gd32f1x0_cec.c **** 
 133:Drivers/GD32F1x0_standard_peripheral/Source/gd32f1x0_cec.c **** /*!
 134:Drivers/GD32F1x0_standard_peripheral/Source/gd32f1x0_cec.c ****     \brief      end CEC message transmission
 135:Drivers/GD32F1x0_standard_peripheral/Source/gd32f1x0_cec.c ****     \param[in]  none
 136:Drivers/GD32F1x0_standard_peripheral/Source/gd32f1x0_cec.c ****     \param[out] none
 137:Drivers/GD32F1x0_standard_peripheral/Source/gd32f1x0_cec.c ****     \retval     none
 138:Drivers/GD32F1x0_standard_peripheral/Source/gd32f1x0_cec.c **** */
 139:Drivers/GD32F1x0_standard_peripheral/Source/gd32f1x0_cec.c **** void cec_transmission_end(void)
 140:Drivers/GD32F1x0_standard_peripheral/Source/gd32f1x0_cec.c **** {
 304              		.loc 1 140 1 is_stmt 1 view -0
 305              		.cfi_startproc
 306              		@ args = 0, pretend = 0, frame = 0
 307              		@ frame_needed = 0, uses_anonymous_args = 0
 308              		@ link register save eliminated.
 141:Drivers/GD32F1x0_standard_peripheral/Source/gd32f1x0_cec.c ****     CEC_CTL |= CEC_CTL_ENDOM;
 309              		.loc 1 141 5 view .LVU65
 310              		.loc 1 141 13 is_stmt 0 view .LVU66
 311 0000 034A     		ldr	r2, .L23
 312 0002 D2F80038 		ldr	r3, [r2, #2048]
ARM GAS  /tmp/ccP258vc.s 			page 9


 313 0006 43F00403 		orr	r3, r3, #4
 314 000a C2F80038 		str	r3, [r2, #2048]
 142:Drivers/GD32F1x0_standard_peripheral/Source/gd32f1x0_cec.c **** }
 315              		.loc 1 142 1 view .LVU67
 316 000e 7047     		bx	lr
 317              	.L24:
 318              		.align	2
 319              	.L23:
 320 0010 00700040 		.word	1073770496
 321              		.cfi_endproc
 322              	.LFE62:
 324              		.section	.text.cec_listen_mode_enable,"ax",%progbits
 325              		.align	1
 326              		.global	cec_listen_mode_enable
 327              		.syntax unified
 328              		.thumb
 329              		.thumb_func
 330              		.fpu softvfp
 332              	cec_listen_mode_enable:
 333              	.LFB63:
 143:Drivers/GD32F1x0_standard_peripheral/Source/gd32f1x0_cec.c **** 
 144:Drivers/GD32F1x0_standard_peripheral/Source/gd32f1x0_cec.c **** /*!
 145:Drivers/GD32F1x0_standard_peripheral/Source/gd32f1x0_cec.c ****     \brief      enable CEC listen mode.
 146:Drivers/GD32F1x0_standard_peripheral/Source/gd32f1x0_cec.c ****     \param[in]  none
 147:Drivers/GD32F1x0_standard_peripheral/Source/gd32f1x0_cec.c ****     \param[out] none
 148:Drivers/GD32F1x0_standard_peripheral/Source/gd32f1x0_cec.c ****     \retval     none
 149:Drivers/GD32F1x0_standard_peripheral/Source/gd32f1x0_cec.c **** */
 150:Drivers/GD32F1x0_standard_peripheral/Source/gd32f1x0_cec.c **** void cec_listen_mode_enable(void)
 151:Drivers/GD32F1x0_standard_peripheral/Source/gd32f1x0_cec.c **** {
 334              		.loc 1 151 1 is_stmt 1 view -0
 335              		.cfi_startproc
 336              		@ args = 0, pretend = 0, frame = 0
 337              		@ frame_needed = 0, uses_anonymous_args = 0
 338              		@ link register save eliminated.
 152:Drivers/GD32F1x0_standard_peripheral/Source/gd32f1x0_cec.c ****     CEC_CFG |= CEC_CFG_LMEN;
 339              		.loc 1 152 5 view .LVU69
 340              		.loc 1 152 13 is_stmt 0 view .LVU70
 341 0000 034A     		ldr	r2, .L26
 342 0002 D2F80438 		ldr	r3, [r2, #2052]
 343 0006 43F00043 		orr	r3, r3, #-2147483648
 344 000a C2F80438 		str	r3, [r2, #2052]
 153:Drivers/GD32F1x0_standard_peripheral/Source/gd32f1x0_cec.c **** }
 345              		.loc 1 153 1 view .LVU71
 346 000e 7047     		bx	lr
 347              	.L27:
 348              		.align	2
 349              	.L26:
 350 0010 00700040 		.word	1073770496
 351              		.cfi_endproc
 352              	.LFE63:
 354              		.section	.text.cec_listen_mode_disable,"ax",%progbits
 355              		.align	1
 356              		.global	cec_listen_mode_disable
 357              		.syntax unified
 358              		.thumb
 359              		.thumb_func
 360              		.fpu softvfp
ARM GAS  /tmp/ccP258vc.s 			page 10


 362              	cec_listen_mode_disable:
 363              	.LFB64:
 154:Drivers/GD32F1x0_standard_peripheral/Source/gd32f1x0_cec.c **** 
 155:Drivers/GD32F1x0_standard_peripheral/Source/gd32f1x0_cec.c **** /*!
 156:Drivers/GD32F1x0_standard_peripheral/Source/gd32f1x0_cec.c ****     \brief      disable CEC listen mode.
 157:Drivers/GD32F1x0_standard_peripheral/Source/gd32f1x0_cec.c ****     \param[in]  none
 158:Drivers/GD32F1x0_standard_peripheral/Source/gd32f1x0_cec.c ****     \param[out] none
 159:Drivers/GD32F1x0_standard_peripheral/Source/gd32f1x0_cec.c ****     \retval     none
 160:Drivers/GD32F1x0_standard_peripheral/Source/gd32f1x0_cec.c **** */
 161:Drivers/GD32F1x0_standard_peripheral/Source/gd32f1x0_cec.c **** void cec_listen_mode_disable(void)
 162:Drivers/GD32F1x0_standard_peripheral/Source/gd32f1x0_cec.c **** {
 364              		.loc 1 162 1 is_stmt 1 view -0
 365              		.cfi_startproc
 366              		@ args = 0, pretend = 0, frame = 0
 367              		@ frame_needed = 0, uses_anonymous_args = 0
 368              		@ link register save eliminated.
 163:Drivers/GD32F1x0_standard_peripheral/Source/gd32f1x0_cec.c ****     CEC_CFG &= ~CEC_CFG_LMEN;
 369              		.loc 1 163 5 view .LVU73
 370              		.loc 1 163 13 is_stmt 0 view .LVU74
 371 0000 034A     		ldr	r2, .L29
 372 0002 D2F80438 		ldr	r3, [r2, #2052]
 373 0006 23F00043 		bic	r3, r3, #-2147483648
 374 000a C2F80438 		str	r3, [r2, #2052]
 164:Drivers/GD32F1x0_standard_peripheral/Source/gd32f1x0_cec.c **** }
 375              		.loc 1 164 1 view .LVU75
 376 000e 7047     		bx	lr
 377              	.L30:
 378              		.align	2
 379              	.L29:
 380 0010 00700040 		.word	1073770496
 381              		.cfi_endproc
 382              	.LFE64:
 384              		.section	.text.cec_own_address_config,"ax",%progbits
 385              		.align	1
 386              		.global	cec_own_address_config
 387              		.syntax unified
 388              		.thumb
 389              		.thumb_func
 390              		.fpu softvfp
 392              	cec_own_address_config:
 393              	.LVL19:
 394              	.LFB65:
 165:Drivers/GD32F1x0_standard_peripheral/Source/gd32f1x0_cec.c **** 
 166:Drivers/GD32F1x0_standard_peripheral/Source/gd32f1x0_cec.c **** /*!
 167:Drivers/GD32F1x0_standard_peripheral/Source/gd32f1x0_cec.c ****     \brief      configure and clear own address.the controller can be configured to multiple own ad
 168:Drivers/GD32F1x0_standard_peripheral/Source/gd32f1x0_cec.c ****     \param[in]  address: own address
 169:Drivers/GD32F1x0_standard_peripheral/Source/gd32f1x0_cec.c ****       \arg        CEC_OWN_ADDRESS_CLEAR: own address is cleared
 170:Drivers/GD32F1x0_standard_peripheral/Source/gd32f1x0_cec.c ****       \arg        CEC_OWN_ADDRESSx(x=0..14): own address is x
 171:Drivers/GD32F1x0_standard_peripheral/Source/gd32f1x0_cec.c ****     \param[out] none
 172:Drivers/GD32F1x0_standard_peripheral/Source/gd32f1x0_cec.c ****     \retval     none
 173:Drivers/GD32F1x0_standard_peripheral/Source/gd32f1x0_cec.c **** */
 174:Drivers/GD32F1x0_standard_peripheral/Source/gd32f1x0_cec.c **** void cec_own_address_config(uint32_t address)
 175:Drivers/GD32F1x0_standard_peripheral/Source/gd32f1x0_cec.c **** {
 395              		.loc 1 175 1 is_stmt 1 view -0
 396              		.cfi_startproc
 397              		@ args = 0, pretend = 0, frame = 0
 398              		@ frame_needed = 0, uses_anonymous_args = 0
ARM GAS  /tmp/ccP258vc.s 			page 11


 399              		@ link register save eliminated.
 176:Drivers/GD32F1x0_standard_peripheral/Source/gd32f1x0_cec.c ****     if(CEC_OWN_ADDRESS_CLEAR == address){
 400              		.loc 1 176 5 view .LVU77
 401 0000 074A     		ldr	r2, .L34
 177:Drivers/GD32F1x0_standard_peripheral/Source/gd32f1x0_cec.c ****         CEC_CFG &= ~CEC_CFG_OAD;
 402              		.loc 1 177 17 is_stmt 0 view .LVU78
 403 0002 D2F80438 		ldr	r3, [r2, #2052]
 176:Drivers/GD32F1x0_standard_peripheral/Source/gd32f1x0_cec.c ****     if(CEC_OWN_ADDRESS_CLEAR == address){
 404              		.loc 1 176 7 view .LVU79
 405 0006 30B9     		cbnz	r0, .L32
 406              		.loc 1 177 9 is_stmt 1 view .LVU80
 407              		.loc 1 177 17 is_stmt 0 view .LVU81
 408 0008 23F0FF43 		bic	r3, r3, #2139095040
 409 000c 23F4FE03 		bic	r3, r3, #8323072
 410 0010 C2F80438 		str	r3, [r2, #2052]
 411 0014 7047     		bx	lr
 412              	.L32:
 178:Drivers/GD32F1x0_standard_peripheral/Source/gd32f1x0_cec.c ****     } else {
 179:Drivers/GD32F1x0_standard_peripheral/Source/gd32f1x0_cec.c ****         CEC_CFG |= address;
 413              		.loc 1 179 9 is_stmt 1 view .LVU82
 414              		.loc 1 179 17 is_stmt 0 view .LVU83
 415 0016 1843     		orrs	r0, r0, r3
 416              	.LVL20:
 417              		.loc 1 179 17 view .LVU84
 418 0018 C2F80408 		str	r0, [r2, #2052]
 180:Drivers/GD32F1x0_standard_peripheral/Source/gd32f1x0_cec.c ****     }
 181:Drivers/GD32F1x0_standard_peripheral/Source/gd32f1x0_cec.c **** }
 419              		.loc 1 181 1 view .LVU85
 420 001c 7047     		bx	lr
 421              	.L35:
 422 001e 00BF     		.align	2
 423              	.L34:
 424 0020 00700040 		.word	1073770496
 425              		.cfi_endproc
 426              	.LFE65:
 428              		.section	.text.cec_sft_config,"ax",%progbits
 429              		.align	1
 430              		.global	cec_sft_config
 431              		.syntax unified
 432              		.thumb
 433              		.thumb_func
 434              		.fpu softvfp
 436              	cec_sft_config:
 437              	.LVL21:
 438              	.LFB66:
 182:Drivers/GD32F1x0_standard_peripheral/Source/gd32f1x0_cec.c **** 
 183:Drivers/GD32F1x0_standard_peripheral/Source/gd32f1x0_cec.c **** /*!
 184:Drivers/GD32F1x0_standard_peripheral/Source/gd32f1x0_cec.c ****     \brief      configure signal free time and the signal free time counter start option 
 185:Drivers/GD32F1x0_standard_peripheral/Source/gd32f1x0_cec.c ****     \param[in]  sftopt: signal free time counter start option
 186:Drivers/GD32F1x0_standard_peripheral/Source/gd32f1x0_cec.c ****       \arg        CEC_SFT_START_STAOM: signal free time counter starts counting when STAOM is asser
 187:Drivers/GD32F1x0_standard_peripheral/Source/gd32f1x0_cec.c ****       \arg        CEC_SFT_START_LAST: signal free time counter starts automatically after transmiss
 188:Drivers/GD32F1x0_standard_peripheral/Source/gd32f1x0_cec.c ****     \param[in]  sft: signal free time
 189:Drivers/GD32F1x0_standard_peripheral/Source/gd32f1x0_cec.c ****       \arg        CEC_SFT_PROTOCOL_PERIOD: the signal free time will perform as HDMI-CEC protocol d
 190:Drivers/GD32F1x0_standard_peripheral/Source/gd32f1x0_cec.c ****       \arg        CEC_SFT_1POINT5_PERIOD: 1.5 nominal data bit periods
 191:Drivers/GD32F1x0_standard_peripheral/Source/gd32f1x0_cec.c ****       \arg        CEC_SFT_2POINT5_PERIOD: 2.5 nominal data bit periods
 192:Drivers/GD32F1x0_standard_peripheral/Source/gd32f1x0_cec.c ****       \arg        CEC_SFT_3POINT5_PERIOD: 3.5 nominal data bit periods
 193:Drivers/GD32F1x0_standard_peripheral/Source/gd32f1x0_cec.c ****       \arg        CEC_SFT_4POINT5_PERIOD: 4.5 nominal data bit periods
ARM GAS  /tmp/ccP258vc.s 			page 12


 194:Drivers/GD32F1x0_standard_peripheral/Source/gd32f1x0_cec.c ****       \arg        CEC_SFT_5POINT5_PERIOD: 5.5 nominal data bit periods
 195:Drivers/GD32F1x0_standard_peripheral/Source/gd32f1x0_cec.c ****       \arg        CEC_SFT_6POINT5_PERIOD: 6.5 nominal data bit periods
 196:Drivers/GD32F1x0_standard_peripheral/Source/gd32f1x0_cec.c ****       \arg        CEC_SFT_7POINT5_PERIOD: 7.5 nominal data bit periods
 197:Drivers/GD32F1x0_standard_peripheral/Source/gd32f1x0_cec.c ****     \param[out] none
 198:Drivers/GD32F1x0_standard_peripheral/Source/gd32f1x0_cec.c ****     \retval     none
 199:Drivers/GD32F1x0_standard_peripheral/Source/gd32f1x0_cec.c **** */
 200:Drivers/GD32F1x0_standard_peripheral/Source/gd32f1x0_cec.c **** void cec_sft_config(uint32_t sftopt, uint32_t sft)
 201:Drivers/GD32F1x0_standard_peripheral/Source/gd32f1x0_cec.c **** {
 439              		.loc 1 201 1 is_stmt 1 view -0
 440              		.cfi_startproc
 441              		@ args = 0, pretend = 0, frame = 0
 442              		@ frame_needed = 0, uses_anonymous_args = 0
 443              		@ link register save eliminated.
 202:Drivers/GD32F1x0_standard_peripheral/Source/gd32f1x0_cec.c ****     uint32_t cfg;
 444              		.loc 1 202 5 view .LVU87
 203:Drivers/GD32F1x0_standard_peripheral/Source/gd32f1x0_cec.c ****     cfg = CEC_CFG;
 445              		.loc 1 203 5 view .LVU88
 446              		.loc 1 203 9 is_stmt 0 view .LVU89
 447 0000 054A     		ldr	r2, .L37
 448 0002 D2F80438 		ldr	r3, [r2, #2052]
 449              	.LVL22:
 204:Drivers/GD32F1x0_standard_peripheral/Source/gd32f1x0_cec.c ****     /* clear SFTOPT bit,SFT[2:0] */
 205:Drivers/GD32F1x0_standard_peripheral/Source/gd32f1x0_cec.c ****     cfg &= ~(CEC_CFG_SFTOPT | CEC_CFG_SFT);
 450              		.loc 1 205 5 is_stmt 1 view .LVU90
 206:Drivers/GD32F1x0_standard_peripheral/Source/gd32f1x0_cec.c ****     /* assign SFTOPT bit,SFT[2:0] */
 207:Drivers/GD32F1x0_standard_peripheral/Source/gd32f1x0_cec.c ****     cfg |= (sftopt | sft);
 451              		.loc 1 207 5 view .LVU91
 205:Drivers/GD32F1x0_standard_peripheral/Source/gd32f1x0_cec.c ****     /* assign SFTOPT bit,SFT[2:0] */
 452              		.loc 1 205 9 is_stmt 0 view .LVU92
 453 0006 23F48373 		bic	r3, r3, #262
 454              	.LVL23:
 205:Drivers/GD32F1x0_standard_peripheral/Source/gd32f1x0_cec.c ****     /* assign SFTOPT bit,SFT[2:0] */
 455              		.loc 1 205 9 view .LVU93
 456 000a 23F00103 		bic	r3, r3, #1
 457 000e 0B43     		orrs	r3, r3, r1
 458              		.loc 1 207 9 view .LVU94
 459 0010 0343     		orrs	r3, r3, r0
 460              	.LVL24:
 208:Drivers/GD32F1x0_standard_peripheral/Source/gd32f1x0_cec.c ****     CEC_CFG = cfg;
 461              		.loc 1 208 5 is_stmt 1 view .LVU95
 462              		.loc 1 208 13 is_stmt 0 view .LVU96
 463 0012 C2F80438 		str	r3, [r2, #2052]
 209:Drivers/GD32F1x0_standard_peripheral/Source/gd32f1x0_cec.c **** }
 464              		.loc 1 209 1 view .LVU97
 465 0016 7047     		bx	lr
 466              	.L38:
 467              		.align	2
 468              	.L37:
 469 0018 00700040 		.word	1073770496
 470              		.cfi_endproc
 471              	.LFE66:
 473              		.section	.text.cec_generate_errorbit_config,"ax",%progbits
 474              		.align	1
 475              		.global	cec_generate_errorbit_config
 476              		.syntax unified
 477              		.thumb
 478              		.thumb_func
ARM GAS  /tmp/ccP258vc.s 			page 13


 479              		.fpu softvfp
 481              	cec_generate_errorbit_config:
 482              	.LVL25:
 483              	.LFB67:
 210:Drivers/GD32F1x0_standard_peripheral/Source/gd32f1x0_cec.c **** 
 211:Drivers/GD32F1x0_standard_peripheral/Source/gd32f1x0_cec.c **** /*!
 212:Drivers/GD32F1x0_standard_peripheral/Source/gd32f1x0_cec.c ****     \brief      configure generate Error-bit when detected some abnormal situation or not
 213:Drivers/GD32F1x0_standard_peripheral/Source/gd32f1x0_cec.c ****     \param[in]  broadcast:
 214:Drivers/GD32F1x0_standard_peripheral/Source/gd32f1x0_cec.c ****       \arg        CEC_BROADCAST_ERROR_BIT_ON:generate Error-bit in broadcast
 215:Drivers/GD32F1x0_standard_peripheral/Source/gd32f1x0_cec.c ****       \arg        CEC_BROADCAST_ERROR_BIT_OFF:do not generate Error-bit in broadcast
 216:Drivers/GD32F1x0_standard_peripheral/Source/gd32f1x0_cec.c ****     \param[in]  singlecast_lbpe:
 217:Drivers/GD32F1x0_standard_peripheral/Source/gd32f1x0_cec.c ****       \arg        CEC_LONG_PERIOD_ERROR_BIT_ON:generate Error-bit on long bit period error
 218:Drivers/GD32F1x0_standard_peripheral/Source/gd32f1x0_cec.c ****       \arg        CEC_LONG_PERIOD_ERROR_BIT_OFF:do not generate Error-bit on long bit period error
 219:Drivers/GD32F1x0_standard_peripheral/Source/gd32f1x0_cec.c ****     \param[in]  singlecast_bre:
 220:Drivers/GD32F1x0_standard_peripheral/Source/gd32f1x0_cec.c ****       \arg        CEC_RISING_PERIOD_ERROR_BIT_ON:generate Error-bit on bit rising error
 221:Drivers/GD32F1x0_standard_peripheral/Source/gd32f1x0_cec.c ****       \arg        CEC_RISING_PERIOD_ERROR_BIT_OFF:do not generate Error-bit on bit rising error
 222:Drivers/GD32F1x0_standard_peripheral/Source/gd32f1x0_cec.c ****     \param[out] none
 223:Drivers/GD32F1x0_standard_peripheral/Source/gd32f1x0_cec.c ****     \retval     none
 224:Drivers/GD32F1x0_standard_peripheral/Source/gd32f1x0_cec.c **** */
 225:Drivers/GD32F1x0_standard_peripheral/Source/gd32f1x0_cec.c **** void cec_generate_errorbit_config(uint32_t broadcast, uint32_t singlecast_lbpe, uint32_t singlecast
 226:Drivers/GD32F1x0_standard_peripheral/Source/gd32f1x0_cec.c **** {
 484              		.loc 1 226 1 is_stmt 1 view -0
 485              		.cfi_startproc
 486              		@ args = 0, pretend = 0, frame = 0
 487              		@ frame_needed = 0, uses_anonymous_args = 0
 227:Drivers/GD32F1x0_standard_peripheral/Source/gd32f1x0_cec.c ****     uint32_t cfg;
 488              		.loc 1 227 5 view .LVU99
 228:Drivers/GD32F1x0_standard_peripheral/Source/gd32f1x0_cec.c ****     cfg = CEC_CFG;
 489              		.loc 1 228 5 view .LVU100
 226:Drivers/GD32F1x0_standard_peripheral/Source/gd32f1x0_cec.c ****     uint32_t cfg;
 490              		.loc 1 226 1 is_stmt 0 view .LVU101
 491 0000 10B5     		push	{r4, lr}
 492              	.LCFI4:
 493              		.cfi_def_cfa_offset 8
 494              		.cfi_offset 4, -8
 495              		.cfi_offset 14, -4
 496              		.loc 1 228 9 view .LVU102
 497 0002 054C     		ldr	r4, .L40
 498 0004 D4F80438 		ldr	r3, [r4, #2052]
 499              	.LVL26:
 229:Drivers/GD32F1x0_standard_peripheral/Source/gd32f1x0_cec.c ****     /* clear BCNG bit, BPLEG bit, BREG bit */
 230:Drivers/GD32F1x0_standard_peripheral/Source/gd32f1x0_cec.c ****     cfg &= ~(CEC_CFG_BCNG | CEC_CFG_BPLEG | CEC_CFG_BREG);
 500              		.loc 1 230 5 is_stmt 1 view .LVU103
 231:Drivers/GD32F1x0_standard_peripheral/Source/gd32f1x0_cec.c ****     /* assign BCNG bit, BPLEG bit, BREG bit */
 232:Drivers/GD32F1x0_standard_peripheral/Source/gd32f1x0_cec.c ****     cfg |= (broadcast | singlecast_lbpe | singlecast_bre);
 501              		.loc 1 232 5 view .LVU104
 230:Drivers/GD32F1x0_standard_peripheral/Source/gd32f1x0_cec.c ****     /* assign BCNG bit, BPLEG bit, BREG bit */
 502              		.loc 1 230 9 is_stmt 0 view .LVU105
 503 0008 23F0E003 		bic	r3, r3, #224
 504              	.LVL27:
 230:Drivers/GD32F1x0_standard_peripheral/Source/gd32f1x0_cec.c ****     /* assign BCNG bit, BPLEG bit, BREG bit */
 505              		.loc 1 230 9 view .LVU106
 506 000c 1343     		orrs	r3, r3, r2
 507              	.LVL28:
 230:Drivers/GD32F1x0_standard_peripheral/Source/gd32f1x0_cec.c ****     /* assign BCNG bit, BPLEG bit, BREG bit */
 508              		.loc 1 230 9 view .LVU107
 509 000e 0B43     		orrs	r3, r3, r1
ARM GAS  /tmp/ccP258vc.s 			page 14


 510              		.loc 1 232 9 view .LVU108
 511 0010 0343     		orrs	r3, r3, r0
 512              	.LVL29:
 233:Drivers/GD32F1x0_standard_peripheral/Source/gd32f1x0_cec.c ****     CEC_CFG = cfg;
 513              		.loc 1 233 5 is_stmt 1 view .LVU109
 514              		.loc 1 233 13 is_stmt 0 view .LVU110
 515 0012 C4F80438 		str	r3, [r4, #2052]
 234:Drivers/GD32F1x0_standard_peripheral/Source/gd32f1x0_cec.c **** }
 516              		.loc 1 234 1 view .LVU111
 517 0016 10BD     		pop	{r4, pc}
 518              	.L41:
 519              		.align	2
 520              	.L40:
 521 0018 00700040 		.word	1073770496
 522              		.cfi_endproc
 523              	.LFE67:
 525              		.section	.text.cec_stop_receive_bre_config,"ax",%progbits
 526              		.align	1
 527              		.global	cec_stop_receive_bre_config
 528              		.syntax unified
 529              		.thumb
 530              		.thumb_func
 531              		.fpu softvfp
 533              	cec_stop_receive_bre_config:
 534              	.LVL30:
 535              	.LFB68:
 235:Drivers/GD32F1x0_standard_peripheral/Source/gd32f1x0_cec.c **** 
 236:Drivers/GD32F1x0_standard_peripheral/Source/gd32f1x0_cec.c **** /*!
 237:Drivers/GD32F1x0_standard_peripheral/Source/gd32f1x0_cec.c ****     \brief      whether stop receive message when detected bit rising error
 238:Drivers/GD32F1x0_standard_peripheral/Source/gd32f1x0_cec.c ****     \param[in]  rxbrestp:
 239:Drivers/GD32F1x0_standard_peripheral/Source/gd32f1x0_cec.c ****       \arg        CEC_STOP_RISING_ERROR_BIT_ON: stop reception when detected bit rising error
 240:Drivers/GD32F1x0_standard_peripheral/Source/gd32f1x0_cec.c ****       \arg        CEC_STOP_RISING_ERROR_BIT_OFF: do not stop reception when detected bit rising err
 241:Drivers/GD32F1x0_standard_peripheral/Source/gd32f1x0_cec.c ****     \param[out] none
 242:Drivers/GD32F1x0_standard_peripheral/Source/gd32f1x0_cec.c ****     \retval     none
 243:Drivers/GD32F1x0_standard_peripheral/Source/gd32f1x0_cec.c **** */
 244:Drivers/GD32F1x0_standard_peripheral/Source/gd32f1x0_cec.c **** void cec_stop_receive_bre_config(uint32_t rxbrestp)
 245:Drivers/GD32F1x0_standard_peripheral/Source/gd32f1x0_cec.c **** {
 536              		.loc 1 245 1 is_stmt 1 view -0
 537              		.cfi_startproc
 538              		@ args = 0, pretend = 0, frame = 0
 539              		@ frame_needed = 0, uses_anonymous_args = 0
 540              		@ link register save eliminated.
 246:Drivers/GD32F1x0_standard_peripheral/Source/gd32f1x0_cec.c ****     if(CEC_STOP_RISING_ERROR_BIT_ON == rxbrestp){
 541              		.loc 1 246 5 view .LVU113
 542 0000 054B     		ldr	r3, .L46
 247:Drivers/GD32F1x0_standard_peripheral/Source/gd32f1x0_cec.c ****         CEC_CFG |= CEC_CFG_BRES;
 543              		.loc 1 247 17 is_stmt 0 view .LVU114
 544 0002 D3F80428 		ldr	r2, [r3, #2052]
 246:Drivers/GD32F1x0_standard_peripheral/Source/gd32f1x0_cec.c ****     if(CEC_STOP_RISING_ERROR_BIT_ON == rxbrestp){
 545              		.loc 1 246 7 view .LVU115
 546 0006 20B9     		cbnz	r0, .L43
 547              		.loc 1 247 9 is_stmt 1 view .LVU116
 548              		.loc 1 247 17 is_stmt 0 view .LVU117
 549 0008 42F01002 		orr	r2, r2, #16
 550              	.L45:
 248:Drivers/GD32F1x0_standard_peripheral/Source/gd32f1x0_cec.c ****     } else {
 249:Drivers/GD32F1x0_standard_peripheral/Source/gd32f1x0_cec.c ****         CEC_CFG &= ~CEC_CFG_BRES;
ARM GAS  /tmp/ccP258vc.s 			page 15


 551              		.loc 1 249 17 view .LVU118
 552 000c C3F80428 		str	r2, [r3, #2052]
 250:Drivers/GD32F1x0_standard_peripheral/Source/gd32f1x0_cec.c ****     }
 251:Drivers/GD32F1x0_standard_peripheral/Source/gd32f1x0_cec.c **** }
 553              		.loc 1 251 1 view .LVU119
 554 0010 7047     		bx	lr
 555              	.L43:
 249:Drivers/GD32F1x0_standard_peripheral/Source/gd32f1x0_cec.c ****     }
 556              		.loc 1 249 9 is_stmt 1 view .LVU120
 249:Drivers/GD32F1x0_standard_peripheral/Source/gd32f1x0_cec.c ****     }
 557              		.loc 1 249 17 is_stmt 0 view .LVU121
 558 0012 22F01002 		bic	r2, r2, #16
 559 0016 F9E7     		b	.L45
 560              	.L47:
 561              		.align	2
 562              	.L46:
 563 0018 00700040 		.word	1073770496
 564              		.cfi_endproc
 565              	.LFE68:
 567              		.section	.text.cec_reception_tolerance_enable,"ax",%progbits
 568              		.align	1
 569              		.global	cec_reception_tolerance_enable
 570              		.syntax unified
 571              		.thumb
 572              		.thumb_func
 573              		.fpu softvfp
 575              	cec_reception_tolerance_enable:
 576              	.LFB69:
 252:Drivers/GD32F1x0_standard_peripheral/Source/gd32f1x0_cec.c **** 
 253:Drivers/GD32F1x0_standard_peripheral/Source/gd32f1x0_cec.c **** /*!
 254:Drivers/GD32F1x0_standard_peripheral/Source/gd32f1x0_cec.c ****     \brief      enable reception bit timing tolerance
 255:Drivers/GD32F1x0_standard_peripheral/Source/gd32f1x0_cec.c ****     \param[in]  none
 256:Drivers/GD32F1x0_standard_peripheral/Source/gd32f1x0_cec.c ****     \param[out] none
 257:Drivers/GD32F1x0_standard_peripheral/Source/gd32f1x0_cec.c ****     \retval     none
 258:Drivers/GD32F1x0_standard_peripheral/Source/gd32f1x0_cec.c **** */
 259:Drivers/GD32F1x0_standard_peripheral/Source/gd32f1x0_cec.c **** void cec_reception_tolerance_enable(void)
 260:Drivers/GD32F1x0_standard_peripheral/Source/gd32f1x0_cec.c **** {
 577              		.loc 1 260 1 is_stmt 1 view -0
 578              		.cfi_startproc
 579              		@ args = 0, pretend = 0, frame = 0
 580              		@ frame_needed = 0, uses_anonymous_args = 0
 581              		@ link register save eliminated.
 261:Drivers/GD32F1x0_standard_peripheral/Source/gd32f1x0_cec.c ****     CEC_CFG |= CEC_CFG_RTOL;
 582              		.loc 1 261 5 view .LVU123
 583              		.loc 1 261 13 is_stmt 0 view .LVU124
 584 0000 034A     		ldr	r2, .L49
 585 0002 D2F80438 		ldr	r3, [r2, #2052]
 586 0006 43F00803 		orr	r3, r3, #8
 587 000a C2F80438 		str	r3, [r2, #2052]
 262:Drivers/GD32F1x0_standard_peripheral/Source/gd32f1x0_cec.c **** }
 588              		.loc 1 262 1 view .LVU125
 589 000e 7047     		bx	lr
 590              	.L50:
 591              		.align	2
 592              	.L49:
 593 0010 00700040 		.word	1073770496
 594              		.cfi_endproc
ARM GAS  /tmp/ccP258vc.s 			page 16


 595              	.LFE69:
 597              		.section	.text.cec_reception_tolerance_disable,"ax",%progbits
 598              		.align	1
 599              		.global	cec_reception_tolerance_disable
 600              		.syntax unified
 601              		.thumb
 602              		.thumb_func
 603              		.fpu softvfp
 605              	cec_reception_tolerance_disable:
 606              	.LFB70:
 263:Drivers/GD32F1x0_standard_peripheral/Source/gd32f1x0_cec.c **** 
 264:Drivers/GD32F1x0_standard_peripheral/Source/gd32f1x0_cec.c **** /*!
 265:Drivers/GD32F1x0_standard_peripheral/Source/gd32f1x0_cec.c ****     \brief      disable reception bit timing tolerance
 266:Drivers/GD32F1x0_standard_peripheral/Source/gd32f1x0_cec.c ****     \param[in]  none
 267:Drivers/GD32F1x0_standard_peripheral/Source/gd32f1x0_cec.c ****     \param[out] none
 268:Drivers/GD32F1x0_standard_peripheral/Source/gd32f1x0_cec.c ****     \retval     none
 269:Drivers/GD32F1x0_standard_peripheral/Source/gd32f1x0_cec.c **** */
 270:Drivers/GD32F1x0_standard_peripheral/Source/gd32f1x0_cec.c **** void cec_reception_tolerance_disable(void)
 271:Drivers/GD32F1x0_standard_peripheral/Source/gd32f1x0_cec.c **** {
 607              		.loc 1 271 1 is_stmt 1 view -0
 608              		.cfi_startproc
 609              		@ args = 0, pretend = 0, frame = 0
 610              		@ frame_needed = 0, uses_anonymous_args = 0
 611              		@ link register save eliminated.
 272:Drivers/GD32F1x0_standard_peripheral/Source/gd32f1x0_cec.c ****     CEC_CFG &= ~CEC_CFG_RTOL;
 612              		.loc 1 272 5 view .LVU127
 613              		.loc 1 272 13 is_stmt 0 view .LVU128
 614 0000 034A     		ldr	r2, .L52
 615 0002 D2F80438 		ldr	r3, [r2, #2052]
 616 0006 23F00803 		bic	r3, r3, #8
 617 000a C2F80438 		str	r3, [r2, #2052]
 273:Drivers/GD32F1x0_standard_peripheral/Source/gd32f1x0_cec.c **** }
 618              		.loc 1 273 1 view .LVU129
 619 000e 7047     		bx	lr
 620              	.L53:
 621              		.align	2
 622              	.L52:
 623 0010 00700040 		.word	1073770496
 624              		.cfi_endproc
 625              	.LFE70:
 627              		.section	.text.cec_data_send,"ax",%progbits
 628              		.align	1
 629              		.global	cec_data_send
 630              		.syntax unified
 631              		.thumb
 632              		.thumb_func
 633              		.fpu softvfp
 635              	cec_data_send:
 636              	.LVL31:
 637              	.LFB71:
 274:Drivers/GD32F1x0_standard_peripheral/Source/gd32f1x0_cec.c **** 
 275:Drivers/GD32F1x0_standard_peripheral/Source/gd32f1x0_cec.c **** /*!
 276:Drivers/GD32F1x0_standard_peripheral/Source/gd32f1x0_cec.c ****     \brief      send a data by the CEC peripheral
 277:Drivers/GD32F1x0_standard_peripheral/Source/gd32f1x0_cec.c ****     \param[in]  data: the data to transmit
 278:Drivers/GD32F1x0_standard_peripheral/Source/gd32f1x0_cec.c ****     \param[out] none
 279:Drivers/GD32F1x0_standard_peripheral/Source/gd32f1x0_cec.c ****     \retval     none
 280:Drivers/GD32F1x0_standard_peripheral/Source/gd32f1x0_cec.c **** */
ARM GAS  /tmp/ccP258vc.s 			page 17


 281:Drivers/GD32F1x0_standard_peripheral/Source/gd32f1x0_cec.c **** void cec_data_send(uint8_t data)
 282:Drivers/GD32F1x0_standard_peripheral/Source/gd32f1x0_cec.c **** {
 638              		.loc 1 282 1 is_stmt 1 view -0
 639              		.cfi_startproc
 640              		@ args = 0, pretend = 0, frame = 0
 641              		@ frame_needed = 0, uses_anonymous_args = 0
 642              		@ link register save eliminated.
 283:Drivers/GD32F1x0_standard_peripheral/Source/gd32f1x0_cec.c ****     CEC_TDATA = (uint32_t)data;
 643              		.loc 1 283 5 view .LVU131
 644              		.loc 1 283 15 is_stmt 0 view .LVU132
 645 0000 014B     		ldr	r3, .L55
 646 0002 C3F80808 		str	r0, [r3, #2056]
 284:Drivers/GD32F1x0_standard_peripheral/Source/gd32f1x0_cec.c **** }
 647              		.loc 1 284 1 view .LVU133
 648 0006 7047     		bx	lr
 649              	.L56:
 650              		.align	2
 651              	.L55:
 652 0008 00700040 		.word	1073770496
 653              		.cfi_endproc
 654              	.LFE71:
 656              		.section	.text.cec_data_receive,"ax",%progbits
 657              		.align	1
 658              		.global	cec_data_receive
 659              		.syntax unified
 660              		.thumb
 661              		.thumb_func
 662              		.fpu softvfp
 664              	cec_data_receive:
 665              	.LFB72:
 285:Drivers/GD32F1x0_standard_peripheral/Source/gd32f1x0_cec.c **** 
 286:Drivers/GD32F1x0_standard_peripheral/Source/gd32f1x0_cec.c **** /*!
 287:Drivers/GD32F1x0_standard_peripheral/Source/gd32f1x0_cec.c ****     \brief      receive a data by the CEC peripheral
 288:Drivers/GD32F1x0_standard_peripheral/Source/gd32f1x0_cec.c ****     \param[in]  data: the data to receive
 289:Drivers/GD32F1x0_standard_peripheral/Source/gd32f1x0_cec.c ****     \param[out] none
 290:Drivers/GD32F1x0_standard_peripheral/Source/gd32f1x0_cec.c ****     \retval     none
 291:Drivers/GD32F1x0_standard_peripheral/Source/gd32f1x0_cec.c **** */
 292:Drivers/GD32F1x0_standard_peripheral/Source/gd32f1x0_cec.c **** uint8_t cec_data_receive(void)
 293:Drivers/GD32F1x0_standard_peripheral/Source/gd32f1x0_cec.c **** {
 666              		.loc 1 293 1 is_stmt 1 view -0
 667              		.cfi_startproc
 668              		@ args = 0, pretend = 0, frame = 0
 669              		@ frame_needed = 0, uses_anonymous_args = 0
 670              		@ link register save eliminated.
 294:Drivers/GD32F1x0_standard_peripheral/Source/gd32f1x0_cec.c ****     return (uint8_t)CEC_RDATA;
 671              		.loc 1 294 5 view .LVU135
 672              		.loc 1 294 21 is_stmt 0 view .LVU136
 673 0000 024B     		ldr	r3, .L58
 674 0002 D3F80C08 		ldr	r0, [r3, #2060]
 295:Drivers/GD32F1x0_standard_peripheral/Source/gd32f1x0_cec.c **** }
 675              		.loc 1 295 1 view .LVU137
 676 0006 C0B2     		uxtb	r0, r0
 677 0008 7047     		bx	lr
 678              	.L59:
 679 000a 00BF     		.align	2
 680              	.L58:
 681 000c 00700040 		.word	1073770496
ARM GAS  /tmp/ccP258vc.s 			page 18


 682              		.cfi_endproc
 683              	.LFE72:
 685              		.section	.text.cec_interrupt_flag_get,"ax",%progbits
 686              		.align	1
 687              		.global	cec_interrupt_flag_get
 688              		.syntax unified
 689              		.thumb
 690              		.thumb_func
 691              		.fpu softvfp
 693              	cec_interrupt_flag_get:
 694              	.LVL32:
 695              	.LFB73:
 296:Drivers/GD32F1x0_standard_peripheral/Source/gd32f1x0_cec.c **** 
 297:Drivers/GD32F1x0_standard_peripheral/Source/gd32f1x0_cec.c **** /*!
 298:Drivers/GD32F1x0_standard_peripheral/Source/gd32f1x0_cec.c ****     \brief      get CEC int flag
 299:Drivers/GD32F1x0_standard_peripheral/Source/gd32f1x0_cec.c ****     \param[in]  flag:  specify which flag
 300:Drivers/GD32F1x0_standard_peripheral/Source/gd32f1x0_cec.c ****       \arg        CEC_INT_FLAG_BR: Rx-byte data received
 301:Drivers/GD32F1x0_standard_peripheral/Source/gd32f1x0_cec.c ****       \arg        CEC_INT_FLAG_REND: end of reception
 302:Drivers/GD32F1x0_standard_peripheral/Source/gd32f1x0_cec.c ****       \arg        CEC_INT_FLAG_RO: RX overrun
 303:Drivers/GD32F1x0_standard_peripheral/Source/gd32f1x0_cec.c ****       \arg        CEC_INT_FLAG_BRE: bit rising error
 304:Drivers/GD32F1x0_standard_peripheral/Source/gd32f1x0_cec.c ****       \arg        CEC_INT_FLAG_BPSE: short bit period error
 305:Drivers/GD32F1x0_standard_peripheral/Source/gd32f1x0_cec.c ****       \arg        CEC_INT_FLAG_BPLE: long bit period error
 306:Drivers/GD32F1x0_standard_peripheral/Source/gd32f1x0_cec.c ****       \arg        CEC_INT_FLAG_RAE: Rx ACK error
 307:Drivers/GD32F1x0_standard_peripheral/Source/gd32f1x0_cec.c ****       \arg        CEC_INT_FLAG_ARBF: arbitration lost
 308:Drivers/GD32F1x0_standard_peripheral/Source/gd32f1x0_cec.c ****       \arg        CEC_INT_FLAG_TBR: Tx-byte data request
 309:Drivers/GD32F1x0_standard_peripheral/Source/gd32f1x0_cec.c ****       \arg        CEC_INT_FLAG_TEND: transmission successfully end
 310:Drivers/GD32F1x0_standard_peripheral/Source/gd32f1x0_cec.c ****       \arg        CEC_INT_FLAG_TU: Tx data buffer underrun
 311:Drivers/GD32F1x0_standard_peripheral/Source/gd32f1x0_cec.c ****       \arg        CEC_INT_FLAG_TERR: Tx-error
 312:Drivers/GD32F1x0_standard_peripheral/Source/gd32f1x0_cec.c ****       \arg        CEC_INT_FLAG_TAERR: Tx ACK error flag
 313:Drivers/GD32F1x0_standard_peripheral/Source/gd32f1x0_cec.c ****     \param[out] none
 314:Drivers/GD32F1x0_standard_peripheral/Source/gd32f1x0_cec.c ****     \retval     FlagStatus: SET or RESET
 315:Drivers/GD32F1x0_standard_peripheral/Source/gd32f1x0_cec.c **** */
 316:Drivers/GD32F1x0_standard_peripheral/Source/gd32f1x0_cec.c **** FlagStatus cec_interrupt_flag_get(uint32_t flag)
 317:Drivers/GD32F1x0_standard_peripheral/Source/gd32f1x0_cec.c **** {
 696              		.loc 1 317 1 is_stmt 1 view -0
 697              		.cfi_startproc
 698              		@ args = 0, pretend = 0, frame = 0
 699              		@ frame_needed = 0, uses_anonymous_args = 0
 700              		@ link register save eliminated.
 318:Drivers/GD32F1x0_standard_peripheral/Source/gd32f1x0_cec.c ****     uint32_t interrupt_enable = 0U,interrupt_flag = 0U;
 701              		.loc 1 318 5 view .LVU139
 319:Drivers/GD32F1x0_standard_peripheral/Source/gd32f1x0_cec.c ****     interrupt_flag = (CEC_INTF & flag);
 702              		.loc 1 319 5 view .LVU140
 317:Drivers/GD32F1x0_standard_peripheral/Source/gd32f1x0_cec.c ****     uint32_t interrupt_enable = 0U,interrupt_flag = 0U;
 703              		.loc 1 317 1 is_stmt 0 view .LVU141
 704 0000 0246     		mov	r2, r0
 705              		.loc 1 319 23 view .LVU142
 706 0002 0649     		ldr	r1, .L63
 707 0004 D1F81008 		ldr	r0, [r1, #2064]
 708              	.LVL33:
 320:Drivers/GD32F1x0_standard_peripheral/Source/gd32f1x0_cec.c ****     interrupt_enable = (CEC_INTEN & flag);
 709              		.loc 1 320 5 is_stmt 1 view .LVU143
 710              		.loc 1 320 25 is_stmt 0 view .LVU144
 711 0008 D1F81418 		ldr	r1, [r1, #2068]
 712              	.LVL34:
 321:Drivers/GD32F1x0_standard_peripheral/Source/gd32f1x0_cec.c ****     if(interrupt_flag && interrupt_enable){
 713              		.loc 1 321 5 is_stmt 1 view .LVU145
ARM GAS  /tmp/ccP258vc.s 			page 19


 714              		.loc 1 321 7 is_stmt 0 view .LVU146
 715 000c 1040     		ands	r0, r0, r2
 716              	.LVL35:
 717              		.loc 1 321 7 view .LVU147
 718 000e 03D0     		beq	.L61
 719              		.loc 1 321 23 discriminator 1 view .LVU148
 720 0010 1142     		tst	r1, r2
 322:Drivers/GD32F1x0_standard_peripheral/Source/gd32f1x0_cec.c ****         return SET;
 323:Drivers/GD32F1x0_standard_peripheral/Source/gd32f1x0_cec.c ****     }else{
 324:Drivers/GD32F1x0_standard_peripheral/Source/gd32f1x0_cec.c ****         return RESET;
 721              		.loc 1 324 16 discriminator 1 view .LVU149
 722 0012 14BF     		ite	ne
 723 0014 0120     		movne	r0, #1
 724              	.LVL36:
 725              		.loc 1 324 16 discriminator 1 view .LVU150
 726 0016 0020     		moveq	r0, #0
 727              	.L61:
 325:Drivers/GD32F1x0_standard_peripheral/Source/gd32f1x0_cec.c ****     }
 326:Drivers/GD32F1x0_standard_peripheral/Source/gd32f1x0_cec.c **** }
 728              		.loc 1 326 1 view .LVU151
 729 0018 7047     		bx	lr
 730              	.L64:
 731 001a 00BF     		.align	2
 732              	.L63:
 733 001c 00700040 		.word	1073770496
 734              		.cfi_endproc
 735              	.LFE73:
 737              		.section	.text.cec_interrupt_flag_clear,"ax",%progbits
 738              		.align	1
 739              		.global	cec_interrupt_flag_clear
 740              		.syntax unified
 741              		.thumb
 742              		.thumb_func
 743              		.fpu softvfp
 745              	cec_interrupt_flag_clear:
 746              	.LVL37:
 747              	.LFB74:
 327:Drivers/GD32F1x0_standard_peripheral/Source/gd32f1x0_cec.c **** 
 328:Drivers/GD32F1x0_standard_peripheral/Source/gd32f1x0_cec.c **** /*!
 329:Drivers/GD32F1x0_standard_peripheral/Source/gd32f1x0_cec.c ****     \brief      clear CEC int flag and status
 330:Drivers/GD32F1x0_standard_peripheral/Source/gd32f1x0_cec.c ****     \param[in]  flag:  specify which flag
 331:Drivers/GD32F1x0_standard_peripheral/Source/gd32f1x0_cec.c ****       \arg        CEC_INT_FLAG_BR: Rx-byte data received
 332:Drivers/GD32F1x0_standard_peripheral/Source/gd32f1x0_cec.c ****       \arg        CEC_INT_FLAG_REND: end of reception
 333:Drivers/GD32F1x0_standard_peripheral/Source/gd32f1x0_cec.c ****       \arg        CEC_INT_FLAG_RO: RX overrun
 334:Drivers/GD32F1x0_standard_peripheral/Source/gd32f1x0_cec.c ****       \arg        CEC_INT_FLAG_BRE: bit rising error
 335:Drivers/GD32F1x0_standard_peripheral/Source/gd32f1x0_cec.c ****       \arg        CEC_INT_FLAG_BPSE: short bit period error
 336:Drivers/GD32F1x0_standard_peripheral/Source/gd32f1x0_cec.c ****       \arg        CEC_INT_FLAG_BPLE: long bit period error
 337:Drivers/GD32F1x0_standard_peripheral/Source/gd32f1x0_cec.c ****       \arg        CEC_INT_FLAG_RAE: Rx ACK error
 338:Drivers/GD32F1x0_standard_peripheral/Source/gd32f1x0_cec.c ****       \arg        CEC_INT_FLAG_ARBF: arbitration lost
 339:Drivers/GD32F1x0_standard_peripheral/Source/gd32f1x0_cec.c ****       \arg        CEC_INT_FLAG_TBR: Tx-byte data request
 340:Drivers/GD32F1x0_standard_peripheral/Source/gd32f1x0_cec.c ****       \arg        CEC_INT_FLAG_TEND: transmission successfully end
 341:Drivers/GD32F1x0_standard_peripheral/Source/gd32f1x0_cec.c ****       \arg        CEC_INT_FLAG_TU: Tx data buffer underrun
 342:Drivers/GD32F1x0_standard_peripheral/Source/gd32f1x0_cec.c ****       \arg        CEC_INT_FLAG_TERR: Tx-error
 343:Drivers/GD32F1x0_standard_peripheral/Source/gd32f1x0_cec.c ****       \arg        CEC_INT_FLAG_TAERR: Tx ACK error flag
 344:Drivers/GD32F1x0_standard_peripheral/Source/gd32f1x0_cec.c ****     \param[out] none
 345:Drivers/GD32F1x0_standard_peripheral/Source/gd32f1x0_cec.c ****     \retval     none
 346:Drivers/GD32F1x0_standard_peripheral/Source/gd32f1x0_cec.c **** */
ARM GAS  /tmp/ccP258vc.s 			page 20


 347:Drivers/GD32F1x0_standard_peripheral/Source/gd32f1x0_cec.c **** void cec_interrupt_flag_clear(uint32_t flag)
 348:Drivers/GD32F1x0_standard_peripheral/Source/gd32f1x0_cec.c **** {
 748              		.loc 1 348 1 is_stmt 1 view -0
 749              		.cfi_startproc
 750              		@ args = 0, pretend = 0, frame = 0
 751              		@ frame_needed = 0, uses_anonymous_args = 0
 752              		@ link register save eliminated.
 349:Drivers/GD32F1x0_standard_peripheral/Source/gd32f1x0_cec.c ****     CEC_INTF = flag;
 753              		.loc 1 349 5 view .LVU153
 754              		.loc 1 349 14 is_stmt 0 view .LVU154
 755 0000 014B     		ldr	r3, .L66
 756 0002 C3F81008 		str	r0, [r3, #2064]
 350:Drivers/GD32F1x0_standard_peripheral/Source/gd32f1x0_cec.c **** }
 757              		.loc 1 350 1 view .LVU155
 758 0006 7047     		bx	lr
 759              	.L67:
 760              		.align	2
 761              	.L66:
 762 0008 00700040 		.word	1073770496
 763              		.cfi_endproc
 764              	.LFE74:
 766              		.section	.text.cec_interrupt_enable,"ax",%progbits
 767              		.align	1
 768              		.global	cec_interrupt_enable
 769              		.syntax unified
 770              		.thumb
 771              		.thumb_func
 772              		.fpu softvfp
 774              	cec_interrupt_enable:
 775              	.LVL38:
 776              	.LFB75:
 351:Drivers/GD32F1x0_standard_peripheral/Source/gd32f1x0_cec.c **** 
 352:Drivers/GD32F1x0_standard_peripheral/Source/gd32f1x0_cec.c **** /*!
 353:Drivers/GD32F1x0_standard_peripheral/Source/gd32f1x0_cec.c ****     \brief      enable interrupt
 354:Drivers/GD32F1x0_standard_peripheral/Source/gd32f1x0_cec.c ****     \param[in]  flag: specify which flag
 355:Drivers/GD32F1x0_standard_peripheral/Source/gd32f1x0_cec.c ****       \arg        CEC_INT_BR: enable Rx-byte data received interrupt
 356:Drivers/GD32F1x0_standard_peripheral/Source/gd32f1x0_cec.c ****       \arg        CEC_INT_REND: enable end of reception interrupt
 357:Drivers/GD32F1x0_standard_peripheral/Source/gd32f1x0_cec.c ****       \arg        CEC_INT_RO: enable RX overrun interrupt
 358:Drivers/GD32F1x0_standard_peripheral/Source/gd32f1x0_cec.c ****       \arg        CEC_INT_BRE: enable bit rising error interrupt
 359:Drivers/GD32F1x0_standard_peripheral/Source/gd32f1x0_cec.c ****       \arg        CEC_INT_BPSE: enable short bit period error interrupt
 360:Drivers/GD32F1x0_standard_peripheral/Source/gd32f1x0_cec.c ****       \arg        CEC_INT_BPLE: enable long bit period error interrupt
 361:Drivers/GD32F1x0_standard_peripheral/Source/gd32f1x0_cec.c ****       \arg        CEC_INT_RAE: enable Rx ACK error interrupt
 362:Drivers/GD32F1x0_standard_peripheral/Source/gd32f1x0_cec.c ****       \arg        CEC_INT_ARBF: enable arbitration lost interrupt
 363:Drivers/GD32F1x0_standard_peripheral/Source/gd32f1x0_cec.c ****       \arg        CEC_INT_TBR: enable Tx-byte data request interrupt
 364:Drivers/GD32F1x0_standard_peripheral/Source/gd32f1x0_cec.c ****       \arg        CEC_INT_TEND: enable transmission successfully end interrupt
 365:Drivers/GD32F1x0_standard_peripheral/Source/gd32f1x0_cec.c ****       \arg        CEC_INT_TU: enable Tx data buffer underrun interrupt
 366:Drivers/GD32F1x0_standard_peripheral/Source/gd32f1x0_cec.c ****       \arg        CEC_INT_TERR: enable Tx-error interrupt 
 367:Drivers/GD32F1x0_standard_peripheral/Source/gd32f1x0_cec.c ****       \arg        CEC_INT_TAERR: enable Tx ACK error  interrupt
 368:Drivers/GD32F1x0_standard_peripheral/Source/gd32f1x0_cec.c ****     \param[out] none
 369:Drivers/GD32F1x0_standard_peripheral/Source/gd32f1x0_cec.c ****     \retval     none
 370:Drivers/GD32F1x0_standard_peripheral/Source/gd32f1x0_cec.c **** */
 371:Drivers/GD32F1x0_standard_peripheral/Source/gd32f1x0_cec.c **** void cec_interrupt_enable(uint32_t flag)
 372:Drivers/GD32F1x0_standard_peripheral/Source/gd32f1x0_cec.c **** {
 777              		.loc 1 372 1 is_stmt 1 view -0
 778              		.cfi_startproc
 779              		@ args = 0, pretend = 0, frame = 0
 780              		@ frame_needed = 0, uses_anonymous_args = 0
ARM GAS  /tmp/ccP258vc.s 			page 21


 781              		@ link register save eliminated.
 373:Drivers/GD32F1x0_standard_peripheral/Source/gd32f1x0_cec.c ****     CEC_INTEN |= flag;
 782              		.loc 1 373 5 view .LVU157
 783              		.loc 1 373 15 is_stmt 0 view .LVU158
 784 0000 034A     		ldr	r2, .L69
 785 0002 D2F81438 		ldr	r3, [r2, #2068]
 786 0006 0343     		orrs	r3, r3, r0
 787 0008 C2F81438 		str	r3, [r2, #2068]
 374:Drivers/GD32F1x0_standard_peripheral/Source/gd32f1x0_cec.c **** }
 788              		.loc 1 374 1 view .LVU159
 789 000c 7047     		bx	lr
 790              	.L70:
 791 000e 00BF     		.align	2
 792              	.L69:
 793 0010 00700040 		.word	1073770496
 794              		.cfi_endproc
 795              	.LFE75:
 797              		.section	.text.cec_interrupt_disable,"ax",%progbits
 798              		.align	1
 799              		.global	cec_interrupt_disable
 800              		.syntax unified
 801              		.thumb
 802              		.thumb_func
 803              		.fpu softvfp
 805              	cec_interrupt_disable:
 806              	.LVL39:
 807              	.LFB76:
 375:Drivers/GD32F1x0_standard_peripheral/Source/gd32f1x0_cec.c **** 
 376:Drivers/GD32F1x0_standard_peripheral/Source/gd32f1x0_cec.c **** /*!
 377:Drivers/GD32F1x0_standard_peripheral/Source/gd32f1x0_cec.c ****     \brief      disable interrupt
 378:Drivers/GD32F1x0_standard_peripheral/Source/gd32f1x0_cec.c ****     \param[in]  flag: specify which flag
 379:Drivers/GD32F1x0_standard_peripheral/Source/gd32f1x0_cec.c ****       \arg        CEC_INT_BR: disable Rx-byte data received interrupt
 380:Drivers/GD32F1x0_standard_peripheral/Source/gd32f1x0_cec.c ****       \arg        CEC_INT_REND: disable end of reception interrupt
 381:Drivers/GD32F1x0_standard_peripheral/Source/gd32f1x0_cec.c ****       \arg        CEC_INT_RO: disable RX overrun interrupt
 382:Drivers/GD32F1x0_standard_peripheral/Source/gd32f1x0_cec.c ****       \arg        CEC_INT_BRE: disable bit rising error interrupt
 383:Drivers/GD32F1x0_standard_peripheral/Source/gd32f1x0_cec.c ****       \arg        CEC_INT_BPSE: disable short bit period error interrupt
 384:Drivers/GD32F1x0_standard_peripheral/Source/gd32f1x0_cec.c ****       \arg        CEC_INT_BPLE: disable long bit period error interrupt
 385:Drivers/GD32F1x0_standard_peripheral/Source/gd32f1x0_cec.c ****       \arg        CEC_INT_RAE: disable Rx ACK error interrupt
 386:Drivers/GD32F1x0_standard_peripheral/Source/gd32f1x0_cec.c ****       \arg        CEC_INT_ARBF: disable arbitration lost interrupt
 387:Drivers/GD32F1x0_standard_peripheral/Source/gd32f1x0_cec.c ****       \arg        CEC_INT_TBR: disable Tx-byte data request interrupt
 388:Drivers/GD32F1x0_standard_peripheral/Source/gd32f1x0_cec.c ****       \arg        CEC_INT_TEND: disable transmission successfully end interrupt
 389:Drivers/GD32F1x0_standard_peripheral/Source/gd32f1x0_cec.c ****       \arg        CEC_INT_TU: disable Tx data buffer underrun interrupt
 390:Drivers/GD32F1x0_standard_peripheral/Source/gd32f1x0_cec.c ****       \arg        CEC_INT_TERR: disable Tx-error interrupt 
 391:Drivers/GD32F1x0_standard_peripheral/Source/gd32f1x0_cec.c ****       \arg        CEC_INT_TAERR: disable Tx ACK error  interrupt
 392:Drivers/GD32F1x0_standard_peripheral/Source/gd32f1x0_cec.c **** 
 393:Drivers/GD32F1x0_standard_peripheral/Source/gd32f1x0_cec.c ****     \param[out] none
 394:Drivers/GD32F1x0_standard_peripheral/Source/gd32f1x0_cec.c ****     \retval     none
 395:Drivers/GD32F1x0_standard_peripheral/Source/gd32f1x0_cec.c **** */
 396:Drivers/GD32F1x0_standard_peripheral/Source/gd32f1x0_cec.c **** void cec_interrupt_disable(uint32_t flag)
 397:Drivers/GD32F1x0_standard_peripheral/Source/gd32f1x0_cec.c **** {
 808              		.loc 1 397 1 is_stmt 1 view -0
 809              		.cfi_startproc
 810              		@ args = 0, pretend = 0, frame = 0
 811              		@ frame_needed = 0, uses_anonymous_args = 0
 812              		@ link register save eliminated.
 398:Drivers/GD32F1x0_standard_peripheral/Source/gd32f1x0_cec.c ****     CEC_INTEN &= ~flag;
 813              		.loc 1 398 5 view .LVU161
ARM GAS  /tmp/ccP258vc.s 			page 22


 814              		.loc 1 398 15 is_stmt 0 view .LVU162
 815 0000 034A     		ldr	r2, .L72
 816 0002 D2F81438 		ldr	r3, [r2, #2068]
 817 0006 23EA0003 		bic	r3, r3, r0
 818 000a C2F81438 		str	r3, [r2, #2068]
 399:Drivers/GD32F1x0_standard_peripheral/Source/gd32f1x0_cec.c **** }
 819              		.loc 1 399 1 view .LVU163
 820 000e 7047     		bx	lr
 821              	.L73:
 822              		.align	2
 823              	.L72:
 824 0010 00700040 		.word	1073770496
 825              		.cfi_endproc
 826              	.LFE76:
 828              		.section	.text.cec_flag_get,"ax",%progbits
 829              		.align	1
 830              		.global	cec_flag_get
 831              		.syntax unified
 832              		.thumb
 833              		.thumb_func
 834              		.fpu softvfp
 836              	cec_flag_get:
 837              	.LVL40:
 838              	.LFB77:
 400:Drivers/GD32F1x0_standard_peripheral/Source/gd32f1x0_cec.c **** 
 401:Drivers/GD32F1x0_standard_peripheral/Source/gd32f1x0_cec.c **** /*!
 402:Drivers/GD32F1x0_standard_peripheral/Source/gd32f1x0_cec.c ****     \brief      get CEC status
 403:Drivers/GD32F1x0_standard_peripheral/Source/gd32f1x0_cec.c ****     \param[in]  flag:  specify which flag
 404:Drivers/GD32F1x0_standard_peripheral/Source/gd32f1x0_cec.c ****       \arg        CEC_FLAG_BR: Rx-byte data received
 405:Drivers/GD32F1x0_standard_peripheral/Source/gd32f1x0_cec.c ****       \arg        CEC_FLAG_REND: end of reception
 406:Drivers/GD32F1x0_standard_peripheral/Source/gd32f1x0_cec.c ****       \arg        CEC_FLAG_RO: RX overrun
 407:Drivers/GD32F1x0_standard_peripheral/Source/gd32f1x0_cec.c ****       \arg        CEC_FLAG_BRE: bit rising error
 408:Drivers/GD32F1x0_standard_peripheral/Source/gd32f1x0_cec.c ****       \arg        CEC_FLAG_BPSE: short bit period error
 409:Drivers/GD32F1x0_standard_peripheral/Source/gd32f1x0_cec.c ****       \arg        CEC_FLAG_BPLE: long bit period error
 410:Drivers/GD32F1x0_standard_peripheral/Source/gd32f1x0_cec.c ****       \arg        CEC_FLAG_RAE: Rx ACK error
 411:Drivers/GD32F1x0_standard_peripheral/Source/gd32f1x0_cec.c ****       \arg        CEC_FLAG_ARBF: arbitration lost
 412:Drivers/GD32F1x0_standard_peripheral/Source/gd32f1x0_cec.c ****       \arg        CEC_FLAG_TBR: Tx-byte data request
 413:Drivers/GD32F1x0_standard_peripheral/Source/gd32f1x0_cec.c ****       \arg        CEC_FLAG_TEND: transmission successfully end
 414:Drivers/GD32F1x0_standard_peripheral/Source/gd32f1x0_cec.c ****       \arg        CEC_FLAG_TU: Tx data buffer underrun
 415:Drivers/GD32F1x0_standard_peripheral/Source/gd32f1x0_cec.c ****       \arg        CEC_FLAG_TERR: Tx-error
 416:Drivers/GD32F1x0_standard_peripheral/Source/gd32f1x0_cec.c ****       \arg        CEC_FLAG_TAERR Tx ACK error flag
 417:Drivers/GD32F1x0_standard_peripheral/Source/gd32f1x0_cec.c ****     \param[out] none
 418:Drivers/GD32F1x0_standard_peripheral/Source/gd32f1x0_cec.c ****     \retval     FlagStatus: SET or RESET
 419:Drivers/GD32F1x0_standard_peripheral/Source/gd32f1x0_cec.c **** */
 420:Drivers/GD32F1x0_standard_peripheral/Source/gd32f1x0_cec.c **** FlagStatus cec_flag_get(uint32_t flag)
 421:Drivers/GD32F1x0_standard_peripheral/Source/gd32f1x0_cec.c **** {
 839              		.loc 1 421 1 is_stmt 1 view -0
 840              		.cfi_startproc
 841              		@ args = 0, pretend = 0, frame = 0
 842              		@ frame_needed = 0, uses_anonymous_args = 0
 843              		@ link register save eliminated.
 422:Drivers/GD32F1x0_standard_peripheral/Source/gd32f1x0_cec.c ****     if(CEC_INTF & flag){
 844              		.loc 1 422 5 view .LVU165
 845              		.loc 1 422 8 is_stmt 0 view .LVU166
 846 0000 034B     		ldr	r3, .L75
 847 0002 D3F81038 		ldr	r3, [r3, #2064]
 848              		.loc 1 422 7 view .LVU167
ARM GAS  /tmp/ccP258vc.s 			page 23


 849 0006 0342     		tst	r3, r0
 423:Drivers/GD32F1x0_standard_peripheral/Source/gd32f1x0_cec.c ****         return SET;
 424:Drivers/GD32F1x0_standard_peripheral/Source/gd32f1x0_cec.c ****     }else{
 425:Drivers/GD32F1x0_standard_peripheral/Source/gd32f1x0_cec.c ****         return RESET;
 426:Drivers/GD32F1x0_standard_peripheral/Source/gd32f1x0_cec.c ****     }
 427:Drivers/GD32F1x0_standard_peripheral/Source/gd32f1x0_cec.c **** }
 850              		.loc 1 427 1 view .LVU168
 851 0008 14BF     		ite	ne
 852 000a 0120     		movne	r0, #1
 853              	.LVL41:
 854              		.loc 1 427 1 view .LVU169
 855 000c 0020     		moveq	r0, #0
 856 000e 7047     		bx	lr
 857              	.L76:
 858              		.align	2
 859              	.L75:
 860 0010 00700040 		.word	1073770496
 861              		.cfi_endproc
 862              	.LFE77:
 864              		.section	.text.cec_flag_clear,"ax",%progbits
 865              		.align	1
 866              		.global	cec_flag_clear
 867              		.syntax unified
 868              		.thumb
 869              		.thumb_func
 870              		.fpu softvfp
 872              	cec_flag_clear:
 873              	.LVL42:
 874              	.LFB78:
 428:Drivers/GD32F1x0_standard_peripheral/Source/gd32f1x0_cec.c **** 
 429:Drivers/GD32F1x0_standard_peripheral/Source/gd32f1x0_cec.c **** /*!
 430:Drivers/GD32F1x0_standard_peripheral/Source/gd32f1x0_cec.c ****     \brief      clear CEC status
 431:Drivers/GD32F1x0_standard_peripheral/Source/gd32f1x0_cec.c ****     \param[in]  flag:  specify which flag
 432:Drivers/GD32F1x0_standard_peripheral/Source/gd32f1x0_cec.c ****       \arg        CEC_FLAG_BR: Rx-byte data received
 433:Drivers/GD32F1x0_standard_peripheral/Source/gd32f1x0_cec.c ****       \arg        CEC_FLAG_REND: end of reception
 434:Drivers/GD32F1x0_standard_peripheral/Source/gd32f1x0_cec.c ****       \arg        CEC_FLAG_RO: RX overrun
 435:Drivers/GD32F1x0_standard_peripheral/Source/gd32f1x0_cec.c ****       \arg        CEC_FLAG_BRE: bit rising error
 436:Drivers/GD32F1x0_standard_peripheral/Source/gd32f1x0_cec.c ****       \arg        CEC_FLAG_BPSE: short bit period error
 437:Drivers/GD32F1x0_standard_peripheral/Source/gd32f1x0_cec.c ****       \arg        CEC_FLAG_BPLE: long bit period error
 438:Drivers/GD32F1x0_standard_peripheral/Source/gd32f1x0_cec.c ****       \arg        CEC_FLAG_RAE: Rx ACK error
 439:Drivers/GD32F1x0_standard_peripheral/Source/gd32f1x0_cec.c ****       \arg        CEC_FLAG_ARBF: arbitration lost
 440:Drivers/GD32F1x0_standard_peripheral/Source/gd32f1x0_cec.c ****       \arg        CEC_FLAG_TBR: Tx-byte data request
 441:Drivers/GD32F1x0_standard_peripheral/Source/gd32f1x0_cec.c ****       \arg        CEC_FLAG_TEND: transmission successfully end
 442:Drivers/GD32F1x0_standard_peripheral/Source/gd32f1x0_cec.c ****       \arg        CEC_FLAG_TU: Tx data buffer underrun
 443:Drivers/GD32F1x0_standard_peripheral/Source/gd32f1x0_cec.c ****       \arg        CEC_FLAG_TERR: Tx-error
 444:Drivers/GD32F1x0_standard_peripheral/Source/gd32f1x0_cec.c ****       \arg        CEC_FLAG_TAERR Tx ACK error flag
 445:Drivers/GD32F1x0_standard_peripheral/Source/gd32f1x0_cec.c **** 
 446:Drivers/GD32F1x0_standard_peripheral/Source/gd32f1x0_cec.c ****     \param[out] none
 447:Drivers/GD32F1x0_standard_peripheral/Source/gd32f1x0_cec.c ****     \retval     FlagStatus: SET or RESET
 448:Drivers/GD32F1x0_standard_peripheral/Source/gd32f1x0_cec.c **** */
 449:Drivers/GD32F1x0_standard_peripheral/Source/gd32f1x0_cec.c **** void cec_flag_clear(uint32_t flag)
 450:Drivers/GD32F1x0_standard_peripheral/Source/gd32f1x0_cec.c **** {
 875              		.loc 1 450 1 is_stmt 1 view -0
 876              		.cfi_startproc
 877              		@ args = 0, pretend = 0, frame = 0
 878              		@ frame_needed = 0, uses_anonymous_args = 0
 879              		@ link register save eliminated.
ARM GAS  /tmp/ccP258vc.s 			page 24


 451:Drivers/GD32F1x0_standard_peripheral/Source/gd32f1x0_cec.c ****     CEC_INTF |= flag;
 880              		.loc 1 451 5 view .LVU171
 881              		.loc 1 451 14 is_stmt 0 view .LVU172
 882 0000 034A     		ldr	r2, .L78
 883 0002 D2F81038 		ldr	r3, [r2, #2064]
 884 0006 0343     		orrs	r3, r3, r0
 885 0008 C2F81038 		str	r3, [r2, #2064]
 452:Drivers/GD32F1x0_standard_peripheral/Source/gd32f1x0_cec.c **** }
 886              		.loc 1 452 1 view .LVU173
 887 000c 7047     		bx	lr
 888              	.L79:
 889 000e 00BF     		.align	2
 890              	.L78:
 891 0010 00700040 		.word	1073770496
 892              		.cfi_endproc
 893              	.LFE78:
 895              		.text
 896              	.Letext0:
 897              		.file 2 "/usr/lib/gcc/arm-none-eabi/10.3.1/include/stdint.h"
 898              		.file 3 "Drivers/CMSIS/Include/gd32f1x0.h"
 899              		.file 4 "Drivers/GD32F1x0_standard_peripheral/Include/gd32f1x0_rcu.h"
ARM GAS  /tmp/ccP258vc.s 			page 25

