ARM GAS  /tmp/cceIc0kc.s 			page 1


   1              		.cpu cortex-m3
   2              		.eabi_attribute 20, 1
   3              		.eabi_attribute 21, 1
   4              		.eabi_attribute 23, 3
   5              		.eabi_attribute 24, 1
   6              		.eabi_attribute 25, 1
   7              		.eabi_attribute 26, 1
   8              		.eabi_attribute 30, 4
   9              		.eabi_attribute 34, 1
  10              		.eabi_attribute 18, 4
  11              		.file	"gd32f1x0_dbg.c"
  12              		.text
  13              	.Ltext0:
  14              		.cfi_sections	.debug_frame
  15              		.section	.text.dbg_deinit,"ax",%progbits
  16              		.align	1
  17              		.global	dbg_deinit
  18              		.arch armv7-m
  19              		.syntax unified
  20              		.thumb
  21              		.thumb_func
  22              		.fpu softvfp
  24              	dbg_deinit:
  25              	.LFB56:
  26              		.file 1 "Drivers/GD32F1x0_standard_peripheral/Source/gd32f1x0_dbg.c"
   1:Drivers/GD32F1x0_standard_peripheral/Source/gd32f1x0_dbg.c **** /*!
   2:Drivers/GD32F1x0_standard_peripheral/Source/gd32f1x0_dbg.c ****     \file  gd32f1x0_dbg.c
   3:Drivers/GD32F1x0_standard_peripheral/Source/gd32f1x0_dbg.c ****     \brief DBG driver
   4:Drivers/GD32F1x0_standard_peripheral/Source/gd32f1x0_dbg.c **** */
   5:Drivers/GD32F1x0_standard_peripheral/Source/gd32f1x0_dbg.c **** 
   6:Drivers/GD32F1x0_standard_peripheral/Source/gd32f1x0_dbg.c **** /*
   7:Drivers/GD32F1x0_standard_peripheral/Source/gd32f1x0_dbg.c ****     Copyright (C) 2017 GigaDevice
   8:Drivers/GD32F1x0_standard_peripheral/Source/gd32f1x0_dbg.c **** 
   9:Drivers/GD32F1x0_standard_peripheral/Source/gd32f1x0_dbg.c ****     2014-12-26, V1.0.0, platform GD32F1x0(x=3,5)
  10:Drivers/GD32F1x0_standard_peripheral/Source/gd32f1x0_dbg.c ****     2016-01-15, V2.0.0, platform GD32F1x0(x=3,5,7,9)
  11:Drivers/GD32F1x0_standard_peripheral/Source/gd32f1x0_dbg.c ****     2016-04-30, V3.0.0, firmware update for GD32F1x0(x=3,5,7,9)
  12:Drivers/GD32F1x0_standard_peripheral/Source/gd32f1x0_dbg.c ****     2017-06-19, V3.1.0, firmware update for GD32F1x0(x=3,5,7,9)
  13:Drivers/GD32F1x0_standard_peripheral/Source/gd32f1x0_dbg.c **** */
  14:Drivers/GD32F1x0_standard_peripheral/Source/gd32f1x0_dbg.c **** 
  15:Drivers/GD32F1x0_standard_peripheral/Source/gd32f1x0_dbg.c **** #include "gd32f1x0_dbg.h"
  16:Drivers/GD32F1x0_standard_peripheral/Source/gd32f1x0_dbg.c **** 
  17:Drivers/GD32F1x0_standard_peripheral/Source/gd32f1x0_dbg.c **** #define DBG_RESET_VAL       0x00000000U
  18:Drivers/GD32F1x0_standard_peripheral/Source/gd32f1x0_dbg.c **** 
  19:Drivers/GD32F1x0_standard_peripheral/Source/gd32f1x0_dbg.c **** /*!
  20:Drivers/GD32F1x0_standard_peripheral/Source/gd32f1x0_dbg.c ****     \brief      deinitialize the DBG
  21:Drivers/GD32F1x0_standard_peripheral/Source/gd32f1x0_dbg.c ****     \param[in]  none
  22:Drivers/GD32F1x0_standard_peripheral/Source/gd32f1x0_dbg.c ****     \param[out] none
  23:Drivers/GD32F1x0_standard_peripheral/Source/gd32f1x0_dbg.c ****     \retval     none
  24:Drivers/GD32F1x0_standard_peripheral/Source/gd32f1x0_dbg.c **** */
  25:Drivers/GD32F1x0_standard_peripheral/Source/gd32f1x0_dbg.c **** void dbg_deinit(void)
  26:Drivers/GD32F1x0_standard_peripheral/Source/gd32f1x0_dbg.c **** {
  27              		.loc 1 26 1 view -0
  28              		.cfi_startproc
  29              		@ args = 0, pretend = 0, frame = 0
  30              		@ frame_needed = 0, uses_anonymous_args = 0
  31              		@ link register save eliminated.
  27:Drivers/GD32F1x0_standard_peripheral/Source/gd32f1x0_dbg.c ****     DBG_CTL0 = DBG_RESET_VAL;
ARM GAS  /tmp/cceIc0kc.s 			page 2


  32              		.loc 1 27 5 view .LVU1
  33              		.loc 1 27 14 is_stmt 0 view .LVU2
  34 0000 0022     		movs	r2, #0
  35 0002 024B     		ldr	r3, .L2
  36 0004 5A60     		str	r2, [r3, #4]
  28:Drivers/GD32F1x0_standard_peripheral/Source/gd32f1x0_dbg.c ****     DBG_CTL1 = DBG_RESET_VAL;
  37              		.loc 1 28 5 is_stmt 1 view .LVU3
  38              		.loc 1 28 14 is_stmt 0 view .LVU4
  39 0006 9A60     		str	r2, [r3, #8]
  29:Drivers/GD32F1x0_standard_peripheral/Source/gd32f1x0_dbg.c **** }
  40              		.loc 1 29 1 view .LVU5
  41 0008 7047     		bx	lr
  42              	.L3:
  43 000a 00BF     		.align	2
  44              	.L2:
  45 000c 002004E0 		.word	-536600576
  46              		.cfi_endproc
  47              	.LFE56:
  49              		.section	.text.dbg_id_get,"ax",%progbits
  50              		.align	1
  51              		.global	dbg_id_get
  52              		.syntax unified
  53              		.thumb
  54              		.thumb_func
  55              		.fpu softvfp
  57              	dbg_id_get:
  58              	.LFB57:
  30:Drivers/GD32F1x0_standard_peripheral/Source/gd32f1x0_dbg.c **** 
  31:Drivers/GD32F1x0_standard_peripheral/Source/gd32f1x0_dbg.c **** /*!
  32:Drivers/GD32F1x0_standard_peripheral/Source/gd32f1x0_dbg.c ****     \brief      read DBG_ID code register
  33:Drivers/GD32F1x0_standard_peripheral/Source/gd32f1x0_dbg.c ****     \param[in]  none
  34:Drivers/GD32F1x0_standard_peripheral/Source/gd32f1x0_dbg.c ****     \param[out] none
  35:Drivers/GD32F1x0_standard_peripheral/Source/gd32f1x0_dbg.c ****     \retval     DBG_ID code
  36:Drivers/GD32F1x0_standard_peripheral/Source/gd32f1x0_dbg.c **** */
  37:Drivers/GD32F1x0_standard_peripheral/Source/gd32f1x0_dbg.c **** uint32_t dbg_id_get(void)
  38:Drivers/GD32F1x0_standard_peripheral/Source/gd32f1x0_dbg.c **** {
  59              		.loc 1 38 1 is_stmt 1 view -0
  60              		.cfi_startproc
  61              		@ args = 0, pretend = 0, frame = 0
  62              		@ frame_needed = 0, uses_anonymous_args = 0
  63              		@ link register save eliminated.
  39:Drivers/GD32F1x0_standard_peripheral/Source/gd32f1x0_dbg.c ****     return DBG_ID;
  64              		.loc 1 39 5 view .LVU7
  65              		.loc 1 39 12 is_stmt 0 view .LVU8
  66 0000 014B     		ldr	r3, .L5
  67 0002 1868     		ldr	r0, [r3]
  40:Drivers/GD32F1x0_standard_peripheral/Source/gd32f1x0_dbg.c **** }
  68              		.loc 1 40 1 view .LVU9
  69 0004 7047     		bx	lr
  70              	.L6:
  71 0006 00BF     		.align	2
  72              	.L5:
  73 0008 002004E0 		.word	-536600576
  74              		.cfi_endproc
  75              	.LFE57:
  77              		.section	.text.dbg_low_power_enable,"ax",%progbits
  78              		.align	1
ARM GAS  /tmp/cceIc0kc.s 			page 3


  79              		.global	dbg_low_power_enable
  80              		.syntax unified
  81              		.thumb
  82              		.thumb_func
  83              		.fpu softvfp
  85              	dbg_low_power_enable:
  86              	.LVL0:
  87              	.LFB58:
  41:Drivers/GD32F1x0_standard_peripheral/Source/gd32f1x0_dbg.c **** 
  42:Drivers/GD32F1x0_standard_peripheral/Source/gd32f1x0_dbg.c **** /*!
  43:Drivers/GD32F1x0_standard_peripheral/Source/gd32f1x0_dbg.c ****     \brief      enable low power behavior when the mcu is in debug mode
  44:Drivers/GD32F1x0_standard_peripheral/Source/gd32f1x0_dbg.c ****     \param[in]  dbg_low_power:
  45:Drivers/GD32F1x0_standard_peripheral/Source/gd32f1x0_dbg.c ****                 this parameter can be any combination of the following values:
  46:Drivers/GD32F1x0_standard_peripheral/Source/gd32f1x0_dbg.c ****       \arg        DBG_LOW_POWER_SLEEP: keep debugger connection during sleep mode
  47:Drivers/GD32F1x0_standard_peripheral/Source/gd32f1x0_dbg.c ****       \arg        DBG_LOW_POWER_DEEPSLEEP: keep debugger connection during deepsleep mode
  48:Drivers/GD32F1x0_standard_peripheral/Source/gd32f1x0_dbg.c ****       \arg        DBG_LOW_POWER_STANDBY: keep debugger connection during standby mode
  49:Drivers/GD32F1x0_standard_peripheral/Source/gd32f1x0_dbg.c ****     \param[out] none
  50:Drivers/GD32F1x0_standard_peripheral/Source/gd32f1x0_dbg.c ****     \retval     none
  51:Drivers/GD32F1x0_standard_peripheral/Source/gd32f1x0_dbg.c **** */
  52:Drivers/GD32F1x0_standard_peripheral/Source/gd32f1x0_dbg.c **** void dbg_low_power_enable(uint32_t dbg_low_power)
  53:Drivers/GD32F1x0_standard_peripheral/Source/gd32f1x0_dbg.c **** {
  88              		.loc 1 53 1 is_stmt 1 view -0
  89              		.cfi_startproc
  90              		@ args = 0, pretend = 0, frame = 0
  91              		@ frame_needed = 0, uses_anonymous_args = 0
  92              		@ link register save eliminated.
  54:Drivers/GD32F1x0_standard_peripheral/Source/gd32f1x0_dbg.c ****     DBG_CTL0 |= dbg_low_power;
  93              		.loc 1 54 5 view .LVU11
  94              		.loc 1 54 14 is_stmt 0 view .LVU12
  95 0000 024A     		ldr	r2, .L8
  96 0002 5368     		ldr	r3, [r2, #4]
  97 0004 0343     		orrs	r3, r3, r0
  98 0006 5360     		str	r3, [r2, #4]
  55:Drivers/GD32F1x0_standard_peripheral/Source/gd32f1x0_dbg.c **** }
  99              		.loc 1 55 1 view .LVU13
 100 0008 7047     		bx	lr
 101              	.L9:
 102 000a 00BF     		.align	2
 103              	.L8:
 104 000c 002004E0 		.word	-536600576
 105              		.cfi_endproc
 106              	.LFE58:
 108              		.section	.text.dbg_low_power_disable,"ax",%progbits
 109              		.align	1
 110              		.global	dbg_low_power_disable
 111              		.syntax unified
 112              		.thumb
 113              		.thumb_func
 114              		.fpu softvfp
 116              	dbg_low_power_disable:
 117              	.LVL1:
 118              	.LFB59:
  56:Drivers/GD32F1x0_standard_peripheral/Source/gd32f1x0_dbg.c **** 
  57:Drivers/GD32F1x0_standard_peripheral/Source/gd32f1x0_dbg.c **** /*!
  58:Drivers/GD32F1x0_standard_peripheral/Source/gd32f1x0_dbg.c ****     \brief      disable low power behavior when the mcu is in debug mode
  59:Drivers/GD32F1x0_standard_peripheral/Source/gd32f1x0_dbg.c ****     \param[in]  dbg_low_power:
  60:Drivers/GD32F1x0_standard_peripheral/Source/gd32f1x0_dbg.c ****                 this parameter can be any combination of the following values:
ARM GAS  /tmp/cceIc0kc.s 			page 4


  61:Drivers/GD32F1x0_standard_peripheral/Source/gd32f1x0_dbg.c ****       \arg        DBG_LOW_POWER_SLEEP: donot keep debugger connection during sleep mode
  62:Drivers/GD32F1x0_standard_peripheral/Source/gd32f1x0_dbg.c ****       \arg        DBG_LOW_POWER_DEEPSLEEP: donot keep debugger connection during deepsleep mode
  63:Drivers/GD32F1x0_standard_peripheral/Source/gd32f1x0_dbg.c ****       \arg        DBG_LOW_POWER_STANDBY: donot keep debugger connection during standby mode
  64:Drivers/GD32F1x0_standard_peripheral/Source/gd32f1x0_dbg.c ****     \param[out] none
  65:Drivers/GD32F1x0_standard_peripheral/Source/gd32f1x0_dbg.c ****     \retval     none
  66:Drivers/GD32F1x0_standard_peripheral/Source/gd32f1x0_dbg.c **** */
  67:Drivers/GD32F1x0_standard_peripheral/Source/gd32f1x0_dbg.c **** void dbg_low_power_disable(uint32_t dbg_low_power)
  68:Drivers/GD32F1x0_standard_peripheral/Source/gd32f1x0_dbg.c **** {
 119              		.loc 1 68 1 is_stmt 1 view -0
 120              		.cfi_startproc
 121              		@ args = 0, pretend = 0, frame = 0
 122              		@ frame_needed = 0, uses_anonymous_args = 0
 123              		@ link register save eliminated.
  69:Drivers/GD32F1x0_standard_peripheral/Source/gd32f1x0_dbg.c ****     DBG_CTL0 &= ~dbg_low_power;
 124              		.loc 1 69 5 view .LVU15
 125              		.loc 1 69 14 is_stmt 0 view .LVU16
 126 0000 024A     		ldr	r2, .L11
 127 0002 5368     		ldr	r3, [r2, #4]
 128 0004 23EA0003 		bic	r3, r3, r0
 129 0008 5360     		str	r3, [r2, #4]
  70:Drivers/GD32F1x0_standard_peripheral/Source/gd32f1x0_dbg.c **** }
 130              		.loc 1 70 1 view .LVU17
 131 000a 7047     		bx	lr
 132              	.L12:
 133              		.align	2
 134              	.L11:
 135 000c 002004E0 		.word	-536600576
 136              		.cfi_endproc
 137              	.LFE59:
 139              		.section	.text.dbg_periph_enable,"ax",%progbits
 140              		.align	1
 141              		.global	dbg_periph_enable
 142              		.syntax unified
 143              		.thumb
 144              		.thumb_func
 145              		.fpu softvfp
 147              	dbg_periph_enable:
 148              	.LVL2:
 149              	.LFB60:
  71:Drivers/GD32F1x0_standard_peripheral/Source/gd32f1x0_dbg.c **** 
  72:Drivers/GD32F1x0_standard_peripheral/Source/gd32f1x0_dbg.c **** /*!
  73:Drivers/GD32F1x0_standard_peripheral/Source/gd32f1x0_dbg.c ****     \brief      enable peripheral behavior when the mcu is in debug mode
  74:Drivers/GD32F1x0_standard_peripheral/Source/gd32f1x0_dbg.c ****     \param[in]  dbg_periph: refer to dbg_periph_enum
  75:Drivers/GD32F1x0_standard_peripheral/Source/gd32f1x0_dbg.c ****                 only one parameter can be selected which is shown as below:
  76:Drivers/GD32F1x0_standard_peripheral/Source/gd32f1x0_dbg.c ****       \arg        DBG_FWDGT_HOLD : debug FWDGT kept when core is halted
  77:Drivers/GD32F1x0_standard_peripheral/Source/gd32f1x0_dbg.c ****       \arg        DBG_WWDGT_HOLD : debug WWDGT kept when core is halted
  78:Drivers/GD32F1x0_standard_peripheral/Source/gd32f1x0_dbg.c ****       \arg        DBG_CANx_HOLD (x=0,1): hold CANx counter when core is halted(170_190 series only)
  79:Drivers/GD32F1x0_standard_peripheral/Source/gd32f1x0_dbg.c ****       \arg        DBG_I2Cx_HOLD (x=0,1,2): hold I2Cx smbus when core is halted
  80:Drivers/GD32F1x0_standard_peripheral/Source/gd32f1x0_dbg.c ****       \arg        DBG_TIMERx_HOLD (x=0,1,2,5,13,14,15,16): hold TIMERx counter when core is halted
  81:Drivers/GD32F1x0_standard_peripheral/Source/gd32f1x0_dbg.c ****       \arg        DBG_RTC_HOLD : hold RTC calendar and wakeup counter when core is halted
  82:Drivers/GD32F1x0_standard_peripheral/Source/gd32f1x0_dbg.c ****     \param[out] none
  83:Drivers/GD32F1x0_standard_peripheral/Source/gd32f1x0_dbg.c ****     \retval     none
  84:Drivers/GD32F1x0_standard_peripheral/Source/gd32f1x0_dbg.c **** */
  85:Drivers/GD32F1x0_standard_peripheral/Source/gd32f1x0_dbg.c **** void dbg_periph_enable(dbg_periph_enum dbg_periph)
  86:Drivers/GD32F1x0_standard_peripheral/Source/gd32f1x0_dbg.c **** {
 150              		.loc 1 86 1 is_stmt 1 view -0
 151              		.cfi_startproc
ARM GAS  /tmp/cceIc0kc.s 			page 5


 152              		@ args = 0, pretend = 0, frame = 0
 153              		@ frame_needed = 0, uses_anonymous_args = 0
 154              		@ link register save eliminated.
  87:Drivers/GD32F1x0_standard_peripheral/Source/gd32f1x0_dbg.c ****     DBG_REG_VAL(dbg_periph) |= BIT(DBG_BIT_POS(dbg_periph));
 155              		.loc 1 87 5 view .LVU19
 156              		.loc 1 87 32 is_stmt 0 view .LVU20
 157 0000 0122     		movs	r2, #1
 158              		.loc 1 87 29 view .LVU21
 159 0002 8309     		lsrs	r3, r0, #6
 160 0004 03F16043 		add	r3, r3, #-536870912
 161 0008 03F58423 		add	r3, r3, #270336
 162 000c 1968     		ldr	r1, [r3]
 163              		.loc 1 87 32 view .LVU22
 164 000e 00F01F00 		and	r0, r0, #31
 165              	.LVL3:
 166              		.loc 1 87 32 view .LVU23
 167 0012 02FA00F0 		lsl	r0, r2, r0
 168              		.loc 1 87 29 view .LVU24
 169 0016 0843     		orrs	r0, r0, r1
 170 0018 1860     		str	r0, [r3]
  88:Drivers/GD32F1x0_standard_peripheral/Source/gd32f1x0_dbg.c **** }
 171              		.loc 1 88 1 view .LVU25
 172 001a 7047     		bx	lr
 173              		.cfi_endproc
 174              	.LFE60:
 176              		.section	.text.dbg_periph_disable,"ax",%progbits
 177              		.align	1
 178              		.global	dbg_periph_disable
 179              		.syntax unified
 180              		.thumb
 181              		.thumb_func
 182              		.fpu softvfp
 184              	dbg_periph_disable:
 185              	.LVL4:
 186              	.LFB61:
  89:Drivers/GD32F1x0_standard_peripheral/Source/gd32f1x0_dbg.c **** 
  90:Drivers/GD32F1x0_standard_peripheral/Source/gd32f1x0_dbg.c **** /*!
  91:Drivers/GD32F1x0_standard_peripheral/Source/gd32f1x0_dbg.c ****     \brief      disable peripheral behavior when the mcu is in debug mode
  92:Drivers/GD32F1x0_standard_peripheral/Source/gd32f1x0_dbg.c ****     \param[in]  dbg_periph: refer to dbg_periph_enum
  93:Drivers/GD32F1x0_standard_peripheral/Source/gd32f1x0_dbg.c ****                 only one parameter can be selected which is shown as below:
  94:Drivers/GD32F1x0_standard_peripheral/Source/gd32f1x0_dbg.c ****       \arg        DBG_FWDGT_HOLD : debug FWDGT kept when core is halted
  95:Drivers/GD32F1x0_standard_peripheral/Source/gd32f1x0_dbg.c ****       \arg        DBG_WWDGT_HOLD : debug WWDGT kept when core is halted
  96:Drivers/GD32F1x0_standard_peripheral/Source/gd32f1x0_dbg.c ****       \arg        DBG_CANx_HOLD (x=0,1): hold CANx counter when core is halted(170_190 series only)
  97:Drivers/GD32F1x0_standard_peripheral/Source/gd32f1x0_dbg.c ****       \arg        DBG_I2Cx_HOLD (x=0,1,2): hold I2Cx smbus when core is halted
  98:Drivers/GD32F1x0_standard_peripheral/Source/gd32f1x0_dbg.c ****       \arg        DBG_TIMERx_HOLD (x=0,1,2,5,13,14,15,16): hold TIMERx counter when core is halted
  99:Drivers/GD32F1x0_standard_peripheral/Source/gd32f1x0_dbg.c ****       \arg        DBG_RTC_HOLD : hold RTC calendar and wakeup counter when core is halted
 100:Drivers/GD32F1x0_standard_peripheral/Source/gd32f1x0_dbg.c ****     \param[out] none
 101:Drivers/GD32F1x0_standard_peripheral/Source/gd32f1x0_dbg.c ****     \retval     none
 102:Drivers/GD32F1x0_standard_peripheral/Source/gd32f1x0_dbg.c **** */
 103:Drivers/GD32F1x0_standard_peripheral/Source/gd32f1x0_dbg.c **** void dbg_periph_disable(dbg_periph_enum dbg_periph)
 104:Drivers/GD32F1x0_standard_peripheral/Source/gd32f1x0_dbg.c **** {
 187              		.loc 1 104 1 is_stmt 1 view -0
 188              		.cfi_startproc
 189              		@ args = 0, pretend = 0, frame = 0
 190              		@ frame_needed = 0, uses_anonymous_args = 0
 191              		@ link register save eliminated.
 105:Drivers/GD32F1x0_standard_peripheral/Source/gd32f1x0_dbg.c ****     DBG_REG_VAL(dbg_periph) &= ~BIT(DBG_BIT_POS(dbg_periph));
ARM GAS  /tmp/cceIc0kc.s 			page 6


 192              		.loc 1 105 5 view .LVU27
 193              		.loc 1 105 33 is_stmt 0 view .LVU28
 194 0000 0121     		movs	r1, #1
 195              		.loc 1 105 29 view .LVU29
 196 0002 8309     		lsrs	r3, r0, #6
 197 0004 03F16043 		add	r3, r3, #-536870912
 198 0008 03F58423 		add	r3, r3, #270336
 199 000c 1A68     		ldr	r2, [r3]
 200              		.loc 1 105 33 view .LVU30
 201 000e 00F01F00 		and	r0, r0, #31
 202              	.LVL5:
 203              		.loc 1 105 33 view .LVU31
 204 0012 01FA00F0 		lsl	r0, r1, r0
 205              		.loc 1 105 29 view .LVU32
 206 0016 22EA0000 		bic	r0, r2, r0
 207 001a 1860     		str	r0, [r3]
 106:Drivers/GD32F1x0_standard_peripheral/Source/gd32f1x0_dbg.c **** }
 208              		.loc 1 106 1 view .LVU33
 209 001c 7047     		bx	lr
 210              		.cfi_endproc
 211              	.LFE61:
 213              		.text
 214              	.Letext0:
 215              		.file 2 "/usr/lib/gcc/arm-none-eabi/10.3.1/include/stdint.h"
 216              		.file 3 "Drivers/GD32F1x0_standard_peripheral/Include/gd32f1x0_dbg.h"
ARM GAS  /tmp/cceIc0kc.s 			page 7

