ARM GAS  /tmp/cciDKa0q.s 			page 1


   1              		.cpu cortex-m3
   2              		.eabi_attribute 20, 1
   3              		.eabi_attribute 21, 1
   4              		.eabi_attribute 23, 3
   5              		.eabi_attribute 24, 1
   6              		.eabi_attribute 25, 1
   7              		.eabi_attribute 26, 1
   8              		.eabi_attribute 30, 4
   9              		.eabi_attribute 34, 1
  10              		.eabi_attribute 18, 4
  11              		.file	"main.c"
  12              		.text
  13              	.Ltext0:
  14              		.cfi_sections	.debug_frame
  15              		.section	.text.startup.main,"ax",%progbits
  16              		.align	1
  17              		.global	main
  18              		.arch armv7-m
  19              		.syntax unified
  20              		.thumb
  21              		.thumb_func
  22              		.fpu softvfp
  24              	main:
  25              	.LFB59:
  26              		.file 1 "Src/main.c"
   1:Src/main.c    **** /**
   2:Src/main.c    ****   * This file is part of the hoverboard-sideboard-hack project.
   3:Src/main.c    ****   *
   4:Src/main.c    ****   * Copyright (C) 2020-2021 Emanuel FERU <aerdronix@gmail.com>
   5:Src/main.c    ****   *
   6:Src/main.c    ****   * This program is free software: you can redistribute it and/or modify
   7:Src/main.c    ****   * it under the terms of the GNU General Public License as published by
   8:Src/main.c    ****   * the Free Software Foundation, either version 3 of the License, or
   9:Src/main.c    ****   * (at your option) any later version.
  10:Src/main.c    ****   *
  11:Src/main.c    ****   * This program is distributed in the hope that it will be useful,
  12:Src/main.c    ****   * but WITHOUT ANY WARRANTY; without even the implied warranty of
  13:Src/main.c    ****   * MERCHANTABILITY or FITNESS FOR A PARTICULAR PURPOSE.  See the
  14:Src/main.c    ****   * GNU General Public License for more details.
  15:Src/main.c    ****   *
  16:Src/main.c    ****   * You should have received a copy of the GNU General Public License
  17:Src/main.c    ****   * along with this program.  If not, see <http://www.gnu.org/licenses/>.
  18:Src/main.c    **** */
  19:Src/main.c    **** 
  20:Src/main.c    **** #include <stdio.h>
  21:Src/main.c    **** #include <string.h>
  22:Src/main.c    **** #include "gd32f1x0.h"
  23:Src/main.c    **** #include "systick.h"
  24:Src/main.c    **** #include "i2c_it.h"
  25:Src/main.c    **** #include "defines.h"
  26:Src/main.c    **** #include "setup.h"
  27:Src/main.c    **** #include "config.h"
  28:Src/main.c    **** #include "util.h"
  29:Src/main.c    **** #include "mpu6050.h"
  30:Src/main.c    **** #include "mpu6050_dmp.h"
  31:Src/main.c    **** 
  32:Src/main.c    **** uint32_t     main_loop_counter;                         // main loop counter to perform task schedu
ARM GAS  /tmp/cciDKa0q.s 			page 2


  33:Src/main.c    **** 
  34:Src/main.c    **** int main(void)
  35:Src/main.c    **** {
  27              		.loc 1 35 1 view -0
  28              		.cfi_startproc
  29              		@ Volatile: function does not return.
  30              		@ args = 0, pretend = 0, frame = 0
  31              		@ frame_needed = 0, uses_anonymous_args = 0
  36:Src/main.c    ****     systick_config();                                   // SysTick config
  32              		.loc 1 36 5 view .LVU1
  35:Src/main.c    ****     systick_config();                                   // SysTick config
  33              		.loc 1 35 1 is_stmt 0 view .LVU2
  34 0000 08B5     		push	{r3, lr}
  35              	.LCFI0:
  36              		.cfi_def_cfa_offset 8
  37              		.cfi_offset 3, -8
  38              		.cfi_offset 14, -4
  39              		.loc 1 36 5 view .LVU3
  40 0002 FFF7FEFF 		bl	systick_config
  41              	.LVL0:
  37:Src/main.c    ****     gpio_config();                                      // GPIO config
  42              		.loc 1 37 5 is_stmt 1 view .LVU4
  43 0006 FFF7FEFF 		bl	gpio_config
  44              	.LVL1:
  38:Src/main.c    **** 
  39:Src/main.c    ****     usart_config(USART_MAIN, USART_MAIN_BAUD);          // USART MAIN config
  45              		.loc 1 39 5 view .LVU5
  46 000a 4FF4E131 		mov	r1, #115200
  47 000e 0D48     		ldr	r0, .L3
  48 0010 FFF7FEFF 		bl	usart_config
  49              	.LVL2:
  40:Src/main.c    ****     #if defined(SERIAL_AUX_RX) || defined(SERIAL_AUX_TX)
  41:Src/main.c    ****     usart_config(USART_AUX,  USART_AUX_BAUD);           // USART AUX config
  42:Src/main.c    ****     #endif
  43:Src/main.c    ****     usart_nvic_config();                                // USART interrupt configuration
  50              		.loc 1 43 5 view .LVU6
  51 0014 FFF7FEFF 		bl	usart_nvic_config
  52              	.LVL3:
  44:Src/main.c    **** 
  45:Src/main.c    ****     i2c_config();                                       // I2C config
  53              		.loc 1 45 5 view .LVU7
  54 0018 FFF7FEFF 		bl	i2c_config
  55              	.LVL4:
  46:Src/main.c    ****     i2c_nvic_config();                                  // I2C interrupt configuration
  56              		.loc 1 46 5 view .LVU8
  57 001c FFF7FEFF 		bl	i2c_nvic_config
  58              	.LVL5:
  47:Src/main.c    ****     input_init();                                       // Input initialization
  59              		.loc 1 47 5 view .LVU9
  60 0020 FFF7FEFF 		bl	input_init
  61              	.LVL6:
  48:Src/main.c    **** 
  49:Src/main.c    ****     while(1) {
  50:Src/main.c    **** 
  51:Src/main.c    ****         delay_1ms(DELAY_IN_MAIN_LOOP);
  52:Src/main.c    **** 
  53:Src/main.c    ****         handle_mpu6050();                               // Handle of the MPU-6050 IMU sensor
ARM GAS  /tmp/cciDKa0q.s 			page 3


  54:Src/main.c    ****         handle_sensors();                               // Handle of the optical sensors
  55:Src/main.c    ****         handle_usart();                                 // Handle of the USART data
  56:Src/main.c    ****         handle_leds();                                  // Handle of the sideboard LEDs
  57:Src/main.c    **** 
  58:Src/main.c    ****         main_loop_counter++;
  62              		.loc 1 58 26 is_stmt 0 view .LVU10
  63 0024 084C     		ldr	r4, .L3+4
  64              	.L2:
  49:Src/main.c    **** 
  65              		.loc 1 49 5 is_stmt 1 discriminator 1 view .LVU11
  51:Src/main.c    **** 
  66              		.loc 1 51 9 discriminator 1 view .LVU12
  67 0026 0120     		movs	r0, #1
  68 0028 FFF7FEFF 		bl	delay_1ms
  69              	.LVL7:
  53:Src/main.c    ****         handle_sensors();                               // Handle of the optical sensors
  70              		.loc 1 53 9 discriminator 1 view .LVU13
  71 002c FFF7FEFF 		bl	handle_mpu6050
  72              	.LVL8:
  54:Src/main.c    ****         handle_usart();                                 // Handle of the USART data
  73              		.loc 1 54 9 discriminator 1 view .LVU14
  74 0030 FFF7FEFF 		bl	handle_sensors
  75              	.LVL9:
  55:Src/main.c    ****         handle_leds();                                  // Handle of the sideboard LEDs
  76              		.loc 1 55 9 discriminator 1 view .LVU15
  77 0034 FFF7FEFF 		bl	handle_usart
  78              	.LVL10:
  56:Src/main.c    **** 
  79              		.loc 1 56 9 discriminator 1 view .LVU16
  80 0038 FFF7FEFF 		bl	handle_leds
  81              	.LVL11:
  82              		.loc 1 58 9 discriminator 1 view .LVU17
  83              		.loc 1 58 26 is_stmt 0 discriminator 1 view .LVU18
  84 003c 2368     		ldr	r3, [r4]
  85 003e 0133     		adds	r3, r3, #1
  86 0040 2360     		str	r3, [r4]
  49:Src/main.c    **** 
  87              		.loc 1 49 10 is_stmt 1 discriminator 1 view .LVU19
  88 0042 F0E7     		b	.L2
  89              	.L4:
  90              		.align	2
  91              	.L3:
  92 0044 00440040 		.word	1073759232
  93 0048 00000000 		.word	.LANCHOR0
  94              		.cfi_endproc
  95              	.LFE59:
  97              		.global	main_loop_counter
  98              		.section	.bss.main_loop_counter,"aw",%nobits
  99              		.align	2
 100              		.set	.LANCHOR0,. + 0
 103              	main_loop_counter:
 104 0000 00000000 		.space	4
 105              		.text
 106              	.Letext0:
 107              		.file 2 "/usr/include/newlib/machine/_default_types.h"
 108              		.file 3 "/usr/include/newlib/sys/_stdint.h"
 109              		.file 4 "Drivers/GD32F1x0_standard_peripheral/Include/gd32f1x0_dbg.h"
ARM GAS  /tmp/cciDKa0q.s 			page 4


 110              		.file 5 "Drivers/GD32F1x0_standard_peripheral/Include/gd32f1x0_rcu.h"
 111              		.file 6 "Inc/systick.h"
 112              		.file 7 "Inc/setup.h"
 113              		.file 8 "Inc/util.h"
ARM GAS  /tmp/cciDKa0q.s 			page 5


DEFINED SYMBOLS
                            *ABS*:0000000000000000 main.c
     /tmp/cciDKa0q.s:16     .text.startup.main:0000000000000000 $t
     /tmp/cciDKa0q.s:24     .text.startup.main:0000000000000000 main
     /tmp/cciDKa0q.s:92     .text.startup.main:0000000000000044 $d
     /tmp/cciDKa0q.s:103    .bss.main_loop_counter:0000000000000000 main_loop_counter
     /tmp/cciDKa0q.s:99     .bss.main_loop_counter:0000000000000000 $d

UNDEFINED SYMBOLS
systick_config
gpio_config
usart_config
usart_nvic_config
i2c_config
i2c_nvic_config
input_init
delay_1ms
handle_mpu6050
handle_sensors
handle_usart
handle_leds
