ARM GAS  /tmp/ccW0iIf7.s 			page 1


   1              		.cpu cortex-m3
   2              		.eabi_attribute 20, 1
   3              		.eabi_attribute 21, 1
   4              		.eabi_attribute 23, 3
   5              		.eabi_attribute 24, 1
   6              		.eabi_attribute 25, 1
   7              		.eabi_attribute 26, 1
   8              		.eabi_attribute 30, 4
   9              		.eabi_attribute 34, 1
  10              		.eabi_attribute 18, 4
  11              		.file	"mpu6050_dmp.c"
  12              		.text
  13              	.Ltext0:
  14              		.cfi_sections	.debug_frame
  15              		.section	.rodata.dmp_enable_gyro_cal.part.0.str1.1,"aMS",%progbits,1
  16              	.LC0:
  17 0000 B8AAB38D 		.ascii	"\270\252\263\215\264\230\0155]\000"
  17      B4980D35 
  17      5D00
  18              		.section	.text.dmp_enable_gyro_cal.part.0,"ax",%progbits
  19              		.align	1
  20              		.arch armv7-m
  21              		.syntax unified
  22              		.thumb
  23              		.thumb_func
  24              		.fpu softvfp
  26              	dmp_enable_gyro_cal.part.0:
  27              	.LFB87:
  28              		.file 1 "Src/mpu6050_dmp.c"
   1:Src/mpu6050_dmp.c **** /**
   2:Src/mpu6050_dmp.c ****   * This file was taken from InvenSense MotionApps v6.12 library and
   3:Src/mpu6050_dmp.c **** 	* refactored for the hoverboard-sideboard-hack project.
   4:Src/mpu6050_dmp.c ****   *
   5:Src/mpu6050_dmp.c ****   * Copyright (C) 2020-2021 Emanuel FERU <aerdronix@gmail.com>
   6:Src/mpu6050_dmp.c **** 	* Copyright (C) 2011-2012 InvenSense Corporation, All Rights Reserved.
   7:Src/mpu6050_dmp.c ****   *
   8:Src/mpu6050_dmp.c ****   * This program is free software: you can redistribute it and/or modify
   9:Src/mpu6050_dmp.c ****   * it under the terms of the GNU General Public License as published by
  10:Src/mpu6050_dmp.c ****   * the Free Software Foundation, either version 3 of the License, or
  11:Src/mpu6050_dmp.c ****   * (at your option) any later version.
  12:Src/mpu6050_dmp.c ****   *
  13:Src/mpu6050_dmp.c ****   * This program is distributed in the hope that it will be useful,
  14:Src/mpu6050_dmp.c ****   * but WITHOUT ANY WARRANTY; without even the implied warranty of
  15:Src/mpu6050_dmp.c ****   * MERCHANTABILITY or FITNESS FOR A PARTICULAR PURPOSE.  See the
  16:Src/mpu6050_dmp.c ****   * GNU General Public License for more details.
  17:Src/mpu6050_dmp.c ****   *
  18:Src/mpu6050_dmp.c ****   * You should have received a copy of the GNU General Public License
  19:Src/mpu6050_dmp.c ****   * along with this program.  If not, see <http://www.gnu.org/licenses/>.
  20:Src/mpu6050_dmp.c **** */
  21:Src/mpu6050_dmp.c **** 
  22:Src/mpu6050_dmp.c **** // Includes
  23:Src/mpu6050_dmp.c **** #include <stdio.h>
  24:Src/mpu6050_dmp.c **** #include <string.h>
  25:Src/mpu6050_dmp.c **** #include "systick.h"
  26:Src/mpu6050_dmp.c **** #include "config.h"
  27:Src/mpu6050_dmp.c **** #include "mpu6050.h"
  28:Src/mpu6050_dmp.c **** #include "mpu6050_dmp.h"
ARM GAS  /tmp/ccW0iIf7.s 			page 2


  29:Src/mpu6050_dmp.c **** #include "mpu6050_dmpKey.h"
  30:Src/mpu6050_dmp.c **** #include "mpu6050_dmpmap.h"
  31:Src/mpu6050_dmp.c **** 
  32:Src/mpu6050_dmp.c **** #ifdef  MPU_SENSOR_ENABLE
  33:Src/mpu6050_dmp.c **** 
  34:Src/mpu6050_dmp.c **** /* The following functions must be defined for this platform:
  35:Src/mpu6050_dmp.c ****  * i2c_write(unsigned char slave_addr, unsigned char reg_addr,
  36:Src/mpu6050_dmp.c ****  *      unsigned char length, unsigned char const *data)
  37:Src/mpu6050_dmp.c ****  * i2c_read(unsigned char slave_addr, unsigned char reg_addr,
  38:Src/mpu6050_dmp.c ****  *      unsigned char length, unsigned char *data)
  39:Src/mpu6050_dmp.c ****  * delay_ms(unsigned long num_ms)
  40:Src/mpu6050_dmp.c ****  * get_ms(unsigned long *count)
  41:Src/mpu6050_dmp.c ****  */
  42:Src/mpu6050_dmp.c **** 
  43:Src/mpu6050_dmp.c **** /* These defines are copied from dmpDefaultMPU6050.c in the general MPL
  44:Src/mpu6050_dmp.c ****  * releases. These defines may change for each DMP image, so be sure to modify
  45:Src/mpu6050_dmp.c ****  * these values when switching to a new image.
  46:Src/mpu6050_dmp.c ****  */
  47:Src/mpu6050_dmp.c **** #define CFG_LP_QUAT             (2712)
  48:Src/mpu6050_dmp.c **** #define END_ORIENT_TEMP         (1866)
  49:Src/mpu6050_dmp.c **** #define CFG_27                  (2742)
  50:Src/mpu6050_dmp.c **** #define CFG_20                  (2224)
  51:Src/mpu6050_dmp.c **** #define CFG_23                  (2745)
  52:Src/mpu6050_dmp.c **** #define CFG_FIFO_ON_EVENT       (2690)
  53:Src/mpu6050_dmp.c **** #define END_PREDICTION_UPDATE   (1761)
  54:Src/mpu6050_dmp.c **** #define CGNOTICE_INTR           (2620)
  55:Src/mpu6050_dmp.c **** #define X_GRT_Y_TMP             (1358)
  56:Src/mpu6050_dmp.c **** #define CFG_DR_INT              (1029)
  57:Src/mpu6050_dmp.c **** #define CFG_AUTH                (1035)
  58:Src/mpu6050_dmp.c **** #define UPDATE_PROP_ROT         (1835)
  59:Src/mpu6050_dmp.c **** #define END_COMPARE_Y_X_TMP2    (1455)
  60:Src/mpu6050_dmp.c **** #define SKIP_X_GRT_Y_TMP        (1359)
  61:Src/mpu6050_dmp.c **** #define SKIP_END_COMPARE        (1435)
  62:Src/mpu6050_dmp.c **** #define FCFG_3                  (1088)
  63:Src/mpu6050_dmp.c **** #define FCFG_2                  (1066)
  64:Src/mpu6050_dmp.c **** #define FCFG_1                  (1062)
  65:Src/mpu6050_dmp.c **** #define END_COMPARE_Y_X_TMP3    (1434)
  66:Src/mpu6050_dmp.c **** #define FCFG_7                  (1073)
  67:Src/mpu6050_dmp.c **** #define FCFG_6                  (1106)
  68:Src/mpu6050_dmp.c **** #define FLAT_STATE_END          (1713)
  69:Src/mpu6050_dmp.c **** #define SWING_END_4             (1616)
  70:Src/mpu6050_dmp.c **** #define SWING_END_2             (1565)
  71:Src/mpu6050_dmp.c **** #define SWING_END_3             (1587)
  72:Src/mpu6050_dmp.c **** #define SWING_END_1             (1550)
  73:Src/mpu6050_dmp.c **** #define CFG_8                   (2718)
  74:Src/mpu6050_dmp.c **** #define CFG_15                  (2727)
  75:Src/mpu6050_dmp.c **** #define CFG_16                  (2746)
  76:Src/mpu6050_dmp.c **** #define CFG_EXT_GYRO_BIAS       (1189)
  77:Src/mpu6050_dmp.c **** #define END_COMPARE_Y_X_TMP     (1407)
  78:Src/mpu6050_dmp.c **** #define DO_NOT_UPDATE_PROP_ROT  (1839)
  79:Src/mpu6050_dmp.c **** #define CFG_7                   (1205)
  80:Src/mpu6050_dmp.c **** #define FLAT_STATE_END_TEMP     (1683)
  81:Src/mpu6050_dmp.c **** #define END_COMPARE_Y_X         (1484)
  82:Src/mpu6050_dmp.c **** #define SKIP_SWING_END_1        (1551)
  83:Src/mpu6050_dmp.c **** #define SKIP_SWING_END_3        (1588)
  84:Src/mpu6050_dmp.c **** #define SKIP_SWING_END_2        (1566)
  85:Src/mpu6050_dmp.c **** #define TILTG75_START           (1672)
ARM GAS  /tmp/ccW0iIf7.s 			page 3


  86:Src/mpu6050_dmp.c **** #define CFG_6                   (2753)
  87:Src/mpu6050_dmp.c **** #define TILTL75_END             (1669)
  88:Src/mpu6050_dmp.c **** #define END_ORIENT              (1884)
  89:Src/mpu6050_dmp.c **** #define CFG_FLICK_IN            (2573)
  90:Src/mpu6050_dmp.c **** #define TILTL75_START           (1643)
  91:Src/mpu6050_dmp.c **** #define CFG_MOTION_BIAS         (1208)
  92:Src/mpu6050_dmp.c **** #define X_GRT_Y                 (1408)
  93:Src/mpu6050_dmp.c **** #define TEMPLABEL               (2324)
  94:Src/mpu6050_dmp.c **** #define CFG_ANDROID_ORIENT_INT  (1853)
  95:Src/mpu6050_dmp.c **** #define CFG_GYRO_RAW_DATA       (2722)
  96:Src/mpu6050_dmp.c **** #define X_GRT_Y_TMP2            (1379)
  97:Src/mpu6050_dmp.c **** 
  98:Src/mpu6050_dmp.c **** #define D_0_22                  (22+512)
  99:Src/mpu6050_dmp.c **** #define D_0_24                  (24+512)
 100:Src/mpu6050_dmp.c **** 
 101:Src/mpu6050_dmp.c **** #define D_0_36                  (36)
 102:Src/mpu6050_dmp.c **** #define D_0_52                  (52)
 103:Src/mpu6050_dmp.c **** #define D_0_96                  (96)
 104:Src/mpu6050_dmp.c **** #define D_0_104                 (104)
 105:Src/mpu6050_dmp.c **** #define D_0_108                 (108)
 106:Src/mpu6050_dmp.c **** #define D_0_163                 (163)
 107:Src/mpu6050_dmp.c **** #define D_0_188                 (188)
 108:Src/mpu6050_dmp.c **** #define D_0_192                 (192)
 109:Src/mpu6050_dmp.c **** #define D_0_224                 (224)
 110:Src/mpu6050_dmp.c **** #define D_0_228                 (228)
 111:Src/mpu6050_dmp.c **** #define D_0_232                 (232)
 112:Src/mpu6050_dmp.c **** #define D_0_236                 (236)
 113:Src/mpu6050_dmp.c **** 
 114:Src/mpu6050_dmp.c **** #define D_1_2                   (256 + 2)
 115:Src/mpu6050_dmp.c **** #define D_1_4                   (256 + 4)
 116:Src/mpu6050_dmp.c **** #define D_1_8                   (256 + 8)
 117:Src/mpu6050_dmp.c **** #define D_1_10                  (256 + 10)
 118:Src/mpu6050_dmp.c **** #define D_1_24                  (256 + 24)
 119:Src/mpu6050_dmp.c **** #define D_1_28                  (256 + 28)
 120:Src/mpu6050_dmp.c **** #define D_1_36                  (256 + 36)
 121:Src/mpu6050_dmp.c **** #define D_1_40                  (256 + 40)
 122:Src/mpu6050_dmp.c **** #define D_1_44                  (256 + 44)
 123:Src/mpu6050_dmp.c **** #define D_1_72                  (256 + 72)
 124:Src/mpu6050_dmp.c **** #define D_1_74                  (256 + 74)
 125:Src/mpu6050_dmp.c **** #define D_1_79                  (256 + 79)
 126:Src/mpu6050_dmp.c **** #define D_1_88                  (256 + 88)
 127:Src/mpu6050_dmp.c **** #define D_1_90                  (256 + 90)
 128:Src/mpu6050_dmp.c **** #define D_1_92                  (256 + 92)
 129:Src/mpu6050_dmp.c **** #define D_1_96                  (256 + 96)
 130:Src/mpu6050_dmp.c **** #define D_1_98                  (256 + 98)
 131:Src/mpu6050_dmp.c **** #define D_1_106                 (256 + 106)
 132:Src/mpu6050_dmp.c **** #define D_1_108                 (256 + 108)
 133:Src/mpu6050_dmp.c **** #define D_1_112                 (256 + 112)
 134:Src/mpu6050_dmp.c **** #define D_1_128                 (256 + 144)
 135:Src/mpu6050_dmp.c **** #define D_1_152                 (256 + 12)
 136:Src/mpu6050_dmp.c **** #define D_1_160                 (256 + 160)
 137:Src/mpu6050_dmp.c **** #define D_1_176                 (256 + 176)
 138:Src/mpu6050_dmp.c **** #define D_1_178                 (256 + 178)
 139:Src/mpu6050_dmp.c **** #define D_1_218                 (256 + 218)
 140:Src/mpu6050_dmp.c **** #define D_1_232                 (256 + 232)
 141:Src/mpu6050_dmp.c **** #define D_1_236                 (256 + 236)
 142:Src/mpu6050_dmp.c **** #define D_1_240                 (256 + 240)
ARM GAS  /tmp/ccW0iIf7.s 			page 4


 143:Src/mpu6050_dmp.c **** #define D_1_244                 (256 + 244)
 144:Src/mpu6050_dmp.c **** #define D_1_250                 (256 + 250)
 145:Src/mpu6050_dmp.c **** #define D_1_252                 (256 + 252)
 146:Src/mpu6050_dmp.c **** #define D_2_12                  (512 + 12)
 147:Src/mpu6050_dmp.c **** #define D_2_96                  (512 + 96)
 148:Src/mpu6050_dmp.c **** #define D_2_108                 (512 + 108)
 149:Src/mpu6050_dmp.c **** #define D_2_208                 (512 + 208)
 150:Src/mpu6050_dmp.c **** #define D_2_224                 (512 + 224)
 151:Src/mpu6050_dmp.c **** #define D_2_236                 (512 + 236)
 152:Src/mpu6050_dmp.c **** #define D_2_244                 (512 + 244)
 153:Src/mpu6050_dmp.c **** #define D_2_248                 (512 + 248)
 154:Src/mpu6050_dmp.c **** #define D_2_252                 (512 + 252)
 155:Src/mpu6050_dmp.c **** 
 156:Src/mpu6050_dmp.c **** #define CPASS_BIAS_X            (35 * 16 + 4)
 157:Src/mpu6050_dmp.c **** #define CPASS_BIAS_Y            (35 * 16 + 8)
 158:Src/mpu6050_dmp.c **** #define CPASS_BIAS_Z            (35 * 16 + 12)
 159:Src/mpu6050_dmp.c **** #define CPASS_MTX_00            (36 * 16)
 160:Src/mpu6050_dmp.c **** #define CPASS_MTX_01            (36 * 16 + 4)
 161:Src/mpu6050_dmp.c **** #define CPASS_MTX_02            (36 * 16 + 8)
 162:Src/mpu6050_dmp.c **** #define CPASS_MTX_10            (36 * 16 + 12)
 163:Src/mpu6050_dmp.c **** #define CPASS_MTX_11            (37 * 16)
 164:Src/mpu6050_dmp.c **** #define CPASS_MTX_12            (37 * 16 + 4)
 165:Src/mpu6050_dmp.c **** #define CPASS_MTX_20            (37 * 16 + 8)
 166:Src/mpu6050_dmp.c **** #define CPASS_MTX_21            (37 * 16 + 12)
 167:Src/mpu6050_dmp.c **** #define CPASS_MTX_22            (43 * 16 + 12)
 168:Src/mpu6050_dmp.c **** #define D_EXT_GYRO_BIAS_X       (61 * 16)
 169:Src/mpu6050_dmp.c **** #define D_EXT_GYRO_BIAS_Y       (61 * 16) + 4
 170:Src/mpu6050_dmp.c **** #define D_EXT_GYRO_BIAS_Z       (61 * 16) + 8
 171:Src/mpu6050_dmp.c **** #define D_ACT0                  (40 * 16)
 172:Src/mpu6050_dmp.c **** #define D_ACSX                  (40 * 16 + 4)
 173:Src/mpu6050_dmp.c **** #define D_ACSY                  (40 * 16 + 8)
 174:Src/mpu6050_dmp.c **** #define D_ACSZ                  (40 * 16 + 12)
 175:Src/mpu6050_dmp.c **** 
 176:Src/mpu6050_dmp.c **** #define FLICK_MSG               (45 * 16 + 4)
 177:Src/mpu6050_dmp.c **** #define FLICK_COUNTER           (45 * 16 + 8)
 178:Src/mpu6050_dmp.c **** #define FLICK_LOWER             (45 * 16 + 12)
 179:Src/mpu6050_dmp.c **** #define FLICK_UPPER             (46 * 16 + 12)
 180:Src/mpu6050_dmp.c **** 
 181:Src/mpu6050_dmp.c **** #define D_AUTH_OUT              (992)
 182:Src/mpu6050_dmp.c **** #define D_AUTH_IN               (996)
 183:Src/mpu6050_dmp.c **** #define D_AUTH_A                (1000)
 184:Src/mpu6050_dmp.c **** #define D_AUTH_B                (1004)
 185:Src/mpu6050_dmp.c **** 
 186:Src/mpu6050_dmp.c **** #define D_PEDSTD_BP_B           (768 + 0x1C)
 187:Src/mpu6050_dmp.c **** #define D_PEDSTD_HP_A           (768 + 0x78)
 188:Src/mpu6050_dmp.c **** #define D_PEDSTD_HP_B           (768 + 0x7C)
 189:Src/mpu6050_dmp.c **** #define D_PEDSTD_BP_A4          (768 + 0x40)
 190:Src/mpu6050_dmp.c **** #define D_PEDSTD_BP_A3          (768 + 0x44)
 191:Src/mpu6050_dmp.c **** #define D_PEDSTD_BP_A2          (768 + 0x48)
 192:Src/mpu6050_dmp.c **** #define D_PEDSTD_BP_A1          (768 + 0x4C)
 193:Src/mpu6050_dmp.c **** #define D_PEDSTD_INT_THRSH      (768 + 0x68)
 194:Src/mpu6050_dmp.c **** #define D_PEDSTD_CLIP           (768 + 0x6C)
 195:Src/mpu6050_dmp.c **** #define D_PEDSTD_SB             (768 + 0x28)
 196:Src/mpu6050_dmp.c **** #define D_PEDSTD_SB_TIME        (768 + 0x2C)
 197:Src/mpu6050_dmp.c **** #define D_PEDSTD_PEAKTHRSH      (768 + 0x98)
 198:Src/mpu6050_dmp.c **** #define D_PEDSTD_TIML           (768 + 0x2A)
 199:Src/mpu6050_dmp.c **** #define D_PEDSTD_TIMH           (768 + 0x2E)
ARM GAS  /tmp/ccW0iIf7.s 			page 5


 200:Src/mpu6050_dmp.c **** #define D_PEDSTD_PEAK           (768 + 0X94)
 201:Src/mpu6050_dmp.c **** #define D_PEDSTD_STEPCTR        (768 + 0x60)
 202:Src/mpu6050_dmp.c **** #define D_PEDSTD_TIMECTR        (964)
 203:Src/mpu6050_dmp.c **** #define D_PEDSTD_DECI           (768 + 0xA0)
 204:Src/mpu6050_dmp.c **** 
 205:Src/mpu6050_dmp.c **** #define D_HOST_NO_MOT           (976)
 206:Src/mpu6050_dmp.c **** #define D_ACCEL_BIAS            (660)
 207:Src/mpu6050_dmp.c **** 
 208:Src/mpu6050_dmp.c **** #define D_ORIENT_GAP            (76)
 209:Src/mpu6050_dmp.c **** 
 210:Src/mpu6050_dmp.c **** #define D_TILT0_H               (48)
 211:Src/mpu6050_dmp.c **** #define D_TILT0_L               (50)
 212:Src/mpu6050_dmp.c **** #define D_TILT1_H               (52)
 213:Src/mpu6050_dmp.c **** #define D_TILT1_L               (54)
 214:Src/mpu6050_dmp.c **** #define D_TILT2_H               (56)
 215:Src/mpu6050_dmp.c **** #define D_TILT2_L               (58)
 216:Src/mpu6050_dmp.c **** #define D_TILT3_H               (60)
 217:Src/mpu6050_dmp.c **** #define D_TILT3_L               (62)
 218:Src/mpu6050_dmp.c **** 
 219:Src/mpu6050_dmp.c **** #define DMP_CODE_SIZE           (3062)
 220:Src/mpu6050_dmp.c **** 
 221:Src/mpu6050_dmp.c **** static const unsigned char dmp_memory[DMP_CODE_SIZE] = {
 222:Src/mpu6050_dmp.c ****     /* bank # 0 */
 223:Src/mpu6050_dmp.c ****     0x00, 0x00, 0x70, 0x00, 0x00, 0x00, 0x00, 0x24, 0x00, 0x00, 0x00, 0x02, 0x00, 0x03, 0x00, 0x00,
 224:Src/mpu6050_dmp.c ****     0x00, 0x65, 0x00, 0x54, 0xff, 0xef, 0x00, 0x00, 0xfa, 0x80, 0x00, 0x0b, 0x12, 0x82, 0x00, 0x01,
 225:Src/mpu6050_dmp.c ****     0x03, 0x0c, 0x30, 0xc3, 0x0e, 0x8c, 0x8c, 0xe9, 0x14, 0xd5, 0x40, 0x02, 0x13, 0x71, 0x0f, 0x8e,
 226:Src/mpu6050_dmp.c ****     0x38, 0x83, 0xf8, 0x83, 0x30, 0x00, 0xf8, 0x83, 0x25, 0x8e, 0xf8, 0x83, 0x30, 0x00, 0xf8, 0x83,
 227:Src/mpu6050_dmp.c ****     0xff, 0xff, 0xff, 0xff, 0x0f, 0xfe, 0xa9, 0xd6, 0x24, 0x00, 0x04, 0x00, 0x1a, 0x82, 0x79, 0xa1,
 228:Src/mpu6050_dmp.c ****     0x00, 0x00, 0x00, 0x3c, 0xff, 0xff, 0x00, 0x00, 0x00, 0x10, 0x00, 0x00, 0x38, 0x83, 0x6f, 0xa2,
 229:Src/mpu6050_dmp.c ****     0x00, 0x3e, 0x03, 0x30, 0x40, 0x00, 0x00, 0x00, 0x02, 0xca, 0xe3, 0x09, 0x3e, 0x80, 0x00, 0x00,
 230:Src/mpu6050_dmp.c ****     0x20, 0x00, 0x00, 0x00, 0x00, 0x00, 0x00, 0x00, 0x40, 0x00, 0x00, 0x00, 0x60, 0x00, 0x00, 0x00,
 231:Src/mpu6050_dmp.c ****     0x00, 0x0c, 0x00, 0x00, 0x00, 0x0c, 0x18, 0x6e, 0x00, 0x00, 0x06, 0x92, 0x0a, 0x16, 0xc0, 0xdf,
 232:Src/mpu6050_dmp.c ****     0xff, 0xff, 0x02, 0x56, 0xfd, 0x8c, 0xd3, 0x77, 0xff, 0xe1, 0xc4, 0x96, 0xe0, 0xc5, 0xbe, 0xaa,
 233:Src/mpu6050_dmp.c ****     0x00, 0x00, 0x00, 0x00, 0xff, 0xff, 0x0b, 0x2b, 0x00, 0x00, 0x16, 0x57, 0x00, 0x00, 0x03, 0x59,
 234:Src/mpu6050_dmp.c ****     0x40, 0x00, 0x00, 0x00, 0x00, 0x00, 0x1d, 0xfa, 0x00, 0x02, 0x6c, 0x1d, 0x00, 0x00, 0x00, 0x00,
 235:Src/mpu6050_dmp.c ****     0x3f, 0xff, 0xdf, 0xeb, 0x00, 0x3e, 0xb3, 0xb6, 0x00, 0x0d, 0x22, 0x78, 0x00, 0x00, 0x2f, 0x3c,
 236:Src/mpu6050_dmp.c ****     0x00, 0x00, 0x00, 0x00, 0x00, 0x19, 0x42, 0xb5, 0x00, 0x00, 0x39, 0xa2, 0x00, 0x00, 0xb3, 0x65,
 237:Src/mpu6050_dmp.c ****     0xd9, 0x0e, 0x9f, 0xc9, 0x1d, 0xcf, 0x4c, 0x34, 0x30, 0x00, 0x00, 0x00, 0x50, 0x00, 0x00, 0x00,
 238:Src/mpu6050_dmp.c ****     0x3b, 0xb6, 0x7a, 0xe8, 0x00, 0x64, 0x00, 0x00, 0x00, 0xc8, 0x00, 0x00, 0x00, 0x00, 0x00, 0x00,
 239:Src/mpu6050_dmp.c ****     /* bank # 1 */
 240:Src/mpu6050_dmp.c ****     0x10, 0x00, 0x00, 0x00, 0x10, 0x00, 0xfa, 0x92, 0x10, 0x00, 0x22, 0x5e, 0x00, 0x0d, 0x22, 0x9f,
 241:Src/mpu6050_dmp.c ****     0x00, 0x01, 0x00, 0x00, 0x00, 0x32, 0x00, 0x00, 0xff, 0x46, 0x00, 0x00, 0x63, 0xd4, 0x00, 0x00,
 242:Src/mpu6050_dmp.c ****     0x10, 0x00, 0x00, 0x00, 0x04, 0xd6, 0x00, 0x00, 0x04, 0xcc, 0x00, 0x00, 0x04, 0xcc, 0x00, 0x00,
 243:Src/mpu6050_dmp.c ****     0x00, 0x00, 0x10, 0x72, 0x00, 0x00, 0x00, 0x40, 0x00, 0x00, 0x00, 0x00, 0x00, 0x00, 0x00, 0x00,
 244:Src/mpu6050_dmp.c ****     0x00, 0x06, 0x00, 0x02, 0x00, 0x05, 0x00, 0x07, 0x00, 0x00, 0x00, 0x00, 0x00, 0x64, 0x00, 0x00,
 245:Src/mpu6050_dmp.c ****     0x00, 0x00, 0x00, 0x00, 0x00, 0x00, 0x00, 0x05, 0x00, 0x05, 0x00, 0x64, 0x00, 0x20, 0x00, 0x00,
 246:Src/mpu6050_dmp.c ****     0x00, 0x00, 0x00, 0x00, 0x00, 0x00, 0x00, 0x00, 0x00, 0x00, 0x40, 0x00, 0x00, 0x00, 0x03, 0x00,
 247:Src/mpu6050_dmp.c ****     0x00, 0x00, 0x00, 0x32, 0xf8, 0x98, 0x00, 0x00, 0xff, 0x65, 0x00, 0x00, 0x83, 0x0f, 0x00, 0x00,
 248:Src/mpu6050_dmp.c ****     0xff, 0x9b, 0xfc, 0x00, 0x00, 0x00, 0x00, 0x00, 0x00, 0x00, 0x00, 0x00, 0x00, 0x00, 0x00, 0x00,
 249:Src/mpu6050_dmp.c ****     0x00, 0x00, 0x00, 0x00, 0x00, 0x00, 0x00, 0x00, 0x00, 0x00, 0x00, 0x00, 0x00, 0x00, 0x00, 0x00,
 250:Src/mpu6050_dmp.c ****     0x00, 0x00, 0x00, 0x00, 0x00, 0x00, 0x00, 0x00, 0x00, 0x00, 0x00, 0x00, 0x00, 0x00, 0x10, 0x00,
 251:Src/mpu6050_dmp.c ****     0x40, 0x00, 0x00, 0x00, 0x00, 0x00, 0x00, 0x06, 0x00, 0x00, 0xb2, 0x6a, 0x00, 0x02, 0x00, 0x00,
 252:Src/mpu6050_dmp.c ****     0x00, 0x01, 0xfb, 0x83, 0x00, 0x68, 0x00, 0x00, 0x00, 0xd9, 0xfc, 0x00, 0x7c, 0xf1, 0xff, 0x83,
 253:Src/mpu6050_dmp.c ****     0x00, 0x00, 0x00, 0x00, 0x00, 0x65, 0x00, 0x00, 0x00, 0x64, 0x03, 0xe8, 0x00, 0x64, 0x00, 0x28,
 254:Src/mpu6050_dmp.c ****     0x00, 0x00, 0x00, 0x25, 0x00, 0x00, 0x00, 0x00, 0x16, 0xa0, 0x00, 0x00, 0x00, 0x00, 0x10, 0x00,
 255:Src/mpu6050_dmp.c ****     0x00, 0x00, 0x10, 0x00, 0x00, 0x2f, 0x00, 0x00, 0x00, 0x00, 0x01, 0xf4, 0x00, 0x00, 0x10, 0x00,
 256:Src/mpu6050_dmp.c ****     /* bank # 2 */
ARM GAS  /tmp/ccW0iIf7.s 			page 6


 257:Src/mpu6050_dmp.c ****     0x00, 0x28, 0x00, 0x00, 0xff, 0xff, 0x45, 0x81, 0xff, 0xff, 0xfa, 0x72, 0x00, 0x00, 0x00, 0x00,
 258:Src/mpu6050_dmp.c ****     0x00, 0x00, 0x00, 0x00, 0x00, 0x44, 0x00, 0x05, 0x00, 0x05, 0xba, 0xc6, 0x00, 0x47, 0x78, 0xa2,
 259:Src/mpu6050_dmp.c ****     0x00, 0x00, 0x00, 0x01, 0x00, 0x00, 0x00, 0x00, 0x00, 0x00, 0x06, 0x00, 0x00, 0x00, 0x00, 0x14,
 260:Src/mpu6050_dmp.c ****     0x00, 0x00, 0x25, 0x4d, 0x00, 0x2f, 0x70, 0x6d, 0x00, 0x00, 0x05, 0xae, 0x00, 0x0c, 0x02, 0xd0,
 261:Src/mpu6050_dmp.c ****     0x00, 0x00, 0x00, 0x00, 0x00, 0x00, 0x00, 0x00, 0x00, 0x00, 0x00, 0x00, 0x00, 0x00, 0x00, 0x00,
 262:Src/mpu6050_dmp.c ****     0x00, 0x1b, 0x00, 0x00, 0x00, 0x00, 0x00, 0x00, 0x00, 0x00, 0x00, 0x00, 0x00, 0x00, 0x00, 0x00,
 263:Src/mpu6050_dmp.c ****     0x00, 0x64, 0x00, 0x00, 0x00, 0x08, 0x00, 0x00, 0x00, 0x00, 0x00, 0x00, 0x00, 0x00, 0x00, 0x00,
 264:Src/mpu6050_dmp.c ****     0x00, 0x00, 0x00, 0x00, 0x00, 0x00, 0x00, 0x00, 0x00, 0x00, 0x00, 0x00, 0x00, 0x00, 0x00, 0x00,
 265:Src/mpu6050_dmp.c ****     0x00, 0x00, 0x00, 0x00, 0x00, 0x00, 0x00, 0x00, 0x00, 0x00, 0x00, 0x00, 0x00, 0x00, 0x00, 0x00,
 266:Src/mpu6050_dmp.c ****     0x00, 0x00, 0x00, 0x00, 0x00, 0x00, 0x00, 0x00, 0x00, 0x00, 0x00, 0x00, 0x00, 0x00, 0x00, 0x00,
 267:Src/mpu6050_dmp.c ****     0x00, 0x00, 0x00, 0x00, 0x00, 0x00, 0x00, 0x00, 0x00, 0x00, 0x00, 0x00, 0x00, 0x00, 0x00, 0x00,
 268:Src/mpu6050_dmp.c ****     0x00, 0x00, 0x00, 0x00, 0x00, 0x00, 0x00, 0x00, 0x00, 0x00, 0x00, 0x00, 0x00, 0x00, 0x00, 0x00,
 269:Src/mpu6050_dmp.c ****     0x00, 0x1b, 0x00, 0x00, 0x00, 0x00, 0x00, 0x00, 0x00, 0x00, 0x00, 0x00, 0x00, 0x0e, 0x00, 0x0e,
 270:Src/mpu6050_dmp.c ****     0x00, 0x00, 0x0a, 0xc7, 0x00, 0x04, 0x00, 0x00, 0x00, 0x00, 0x00, 0x32, 0xff, 0xff, 0xff, 0x9c,
 271:Src/mpu6050_dmp.c ****     0x00, 0x00, 0x0b, 0x2b, 0x00, 0x00, 0x00, 0x02, 0x00, 0x00, 0x00, 0x01, 0x00, 0x00, 0x00, 0x64,
 272:Src/mpu6050_dmp.c ****     0xff, 0xe5, 0x00, 0x00, 0x00, 0x00, 0x00, 0x00, 0x00, 0x00, 0x00, 0x00, 0x00, 0x00, 0x00, 0x00,
 273:Src/mpu6050_dmp.c ****     /* bank # 3 */
 274:Src/mpu6050_dmp.c ****     0x00, 0x00, 0x00, 0x01, 0x00, 0x00, 0x00, 0x00, 0x00, 0x01, 0x00, 0x00, 0x00, 0x00, 0x00, 0x00,
 275:Src/mpu6050_dmp.c ****     0x00, 0x01, 0x80, 0x00, 0x00, 0x01, 0x80, 0x00, 0x00, 0x01, 0x80, 0x00, 0x00, 0x24, 0x26, 0xd3,
 276:Src/mpu6050_dmp.c ****     0x00, 0x00, 0x00, 0x00, 0x00, 0x00, 0x00, 0x00, 0x00, 0x06, 0x00, 0x10, 0x00, 0x96, 0x00, 0x3c,
 277:Src/mpu6050_dmp.c ****     0x00, 0x00, 0x00, 0x00, 0x00, 0x00, 0x00, 0x00, 0x00, 0x00, 0x00, 0x00, 0x00, 0x00, 0x00, 0x00,
 278:Src/mpu6050_dmp.c ****     0x0c, 0x0a, 0x4e, 0x68, 0xcd, 0xcf, 0x77, 0x09, 0x50, 0x16, 0x67, 0x59, 0xc6, 0x19, 0xce, 0x82,
 279:Src/mpu6050_dmp.c ****     0x00, 0x00, 0x00, 0x00, 0x00, 0x00, 0x00, 0x00, 0x00, 0x00, 0x00, 0x00, 0x00, 0x00, 0x00, 0x00,
 280:Src/mpu6050_dmp.c ****     0x00, 0x00, 0x00, 0x00, 0x00, 0x00, 0x00, 0x00, 0x17, 0xd7, 0x84, 0x00, 0x03, 0x00, 0x00, 0x00,
 281:Src/mpu6050_dmp.c ****     0x00, 0x00, 0x00, 0x00, 0x00, 0x00, 0x00, 0x00, 0xc7, 0x93, 0x8f, 0x9d, 0x1e, 0x1b, 0x1c, 0x19,
 282:Src/mpu6050_dmp.c ****     0x00, 0x00, 0x00, 0x00, 0x00, 0x00, 0x00, 0x00, 0x00, 0x00, 0x00, 0x00, 0x00, 0x00, 0x00, 0x00,
 283:Src/mpu6050_dmp.c ****     0x00, 0x00, 0x00, 0x00, 0x00, 0x00, 0x00, 0x00, 0x02, 0x03, 0x18, 0x85, 0x00, 0x00, 0x40, 0x00,
 284:Src/mpu6050_dmp.c ****     0x00, 0x00, 0x00, 0x03, 0x00, 0x00, 0x00, 0x03, 0x00, 0x00, 0x00, 0x00, 0x00, 0x00, 0x00, 0x00,
 285:Src/mpu6050_dmp.c ****     0x40, 0x00, 0x00, 0x00, 0x00, 0x00, 0x00, 0x00, 0x00, 0x00, 0x00, 0x00, 0x00, 0x00, 0x00, 0x00,
 286:Src/mpu6050_dmp.c ****     0x00, 0x00, 0x00, 0x00, 0x00, 0x00, 0x00, 0x00, 0x00, 0x00, 0x00, 0x00, 0x00, 0x00, 0x00, 0x00,
 287:Src/mpu6050_dmp.c ****     0x00, 0x00, 0x00, 0x00, 0x00, 0x00, 0x00, 0x00, 0x00, 0x00, 0x00, 0x00, 0x00, 0x00, 0x00, 0x00,
 288:Src/mpu6050_dmp.c ****     0x00, 0x00, 0x00, 0x00, 0x67, 0x7d, 0xdf, 0x7e, 0x72, 0x90, 0x2e, 0x55, 0x4c, 0xf6, 0xe6, 0x88,
 289:Src/mpu6050_dmp.c ****     0x00, 0x00, 0x00, 0x00, 0x00, 0x00, 0x00, 0x00, 0x00, 0x00, 0x00, 0x00, 0x00, 0x00, 0x00, 0x00,
 290:Src/mpu6050_dmp.c **** 
 291:Src/mpu6050_dmp.c ****     /* bank # 4 */
 292:Src/mpu6050_dmp.c ****     0xd8, 0xdc, 0xb4, 0xb8, 0xb0, 0xd8, 0xb9, 0xab, 0xf3, 0xf8, 0xfa, 0xb3, 0xb7, 0xbb, 0x8e, 0x9e,
 293:Src/mpu6050_dmp.c ****     0xae, 0xf1, 0x32, 0xf5, 0x1b, 0xf1, 0xb4, 0xb8, 0xb0, 0x80, 0x97, 0xf1, 0xa9, 0xdf, 0xdf, 0xdf,
 294:Src/mpu6050_dmp.c ****     0xaa, 0xdf, 0xdf, 0xdf, 0xf2, 0xaa, 0xc5, 0xcd, 0xc7, 0xa9, 0x0c, 0xc9, 0x2c, 0x97, 0xf1, 0xa9,
 295:Src/mpu6050_dmp.c ****     0x89, 0x26, 0x46, 0x66, 0xb2, 0x89, 0x99, 0xa9, 0x2d, 0x55, 0x7d, 0xb0, 0xb0, 0x8a, 0xa8, 0x96,
 296:Src/mpu6050_dmp.c ****     0x36, 0x56, 0x76, 0xf1, 0xba, 0xa3, 0xb4, 0xb2, 0x80, 0xc0, 0xb8, 0xa8, 0x97, 0x11, 0xb2, 0x83,
 297:Src/mpu6050_dmp.c ****     0x98, 0xba, 0xa3, 0xf0, 0x24, 0x08, 0x44, 0x10, 0x64, 0x18, 0xb2, 0xb9, 0xb4, 0x98, 0x83, 0xf1,
 298:Src/mpu6050_dmp.c ****     0xa3, 0x29, 0x55, 0x7d, 0xba, 0xb5, 0xb1, 0xa3, 0x83, 0x93, 0xf0, 0x00, 0x28, 0x50, 0xf5, 0xb2,
 299:Src/mpu6050_dmp.c ****     0xb6, 0xaa, 0x83, 0x93, 0x28, 0x54, 0x7c, 0xf1, 0xb9, 0xa3, 0x82, 0x93, 0x61, 0xba, 0xa2, 0xda,
 300:Src/mpu6050_dmp.c ****     0xde, 0xdf, 0xdb, 0x81, 0x9a, 0xb9, 0xae, 0xf5, 0x60, 0x68, 0x70, 0xf1, 0xda, 0xba, 0xa2, 0xdf,
 301:Src/mpu6050_dmp.c ****     0xd9, 0xba, 0xa2, 0xfa, 0xb9, 0xa3, 0x82, 0x92, 0xdb, 0x31, 0xba, 0xa2, 0xd9, 0xba, 0xa2, 0xf8,
 302:Src/mpu6050_dmp.c ****     0xdf, 0x85, 0xa4, 0xd0, 0xc1, 0xbb, 0xad, 0x83, 0xc2, 0xc5, 0xc7, 0xb8, 0xa2, 0xdf, 0xdf, 0xdf,
 303:Src/mpu6050_dmp.c ****     0xba, 0xa0, 0xdf, 0xdf, 0xdf, 0xd8, 0xd8, 0xf1, 0xb8, 0xaa, 0xb3, 0x8d, 0xb4, 0x98, 0x0d, 0x35,
 304:Src/mpu6050_dmp.c ****     0x5d, 0xb2, 0xb6, 0xba, 0xaf, 0x8c, 0x96, 0x19, 0x8f, 0x9f, 0xa7, 0x0e, 0x16, 0x1e, 0xb4, 0x9a,
 305:Src/mpu6050_dmp.c ****     0xb8, 0xaa, 0x87, 0x2c, 0x54, 0x7c, 0xba, 0xa4, 0xb0, 0x8a, 0xb6, 0x91, 0x32, 0x56, 0x76, 0xb2,
 306:Src/mpu6050_dmp.c ****     0x84, 0x94, 0xa4, 0xc8, 0x08, 0xcd, 0xd8, 0xb8, 0xb4, 0xb0, 0xf1, 0x99, 0x82, 0xa8, 0x2d, 0x55,
 307:Src/mpu6050_dmp.c ****     0x7d, 0x98, 0xa8, 0x0e, 0x16, 0x1e, 0xa2, 0x2c, 0x54, 0x7c, 0x92, 0xa4, 0xf0, 0x2c, 0x50, 0x78,
 308:Src/mpu6050_dmp.c ****     /* bank # 5 */
 309:Src/mpu6050_dmp.c ****     0xf1, 0x84, 0xa8, 0x98, 0xc4, 0xcd, 0xfc, 0xd8, 0x0d, 0xdb, 0xa8, 0xfc, 0x2d, 0xf3, 0xd9, 0xba,
 310:Src/mpu6050_dmp.c ****     0xa6, 0xf8, 0xda, 0xba, 0xa6, 0xde, 0xd8, 0xba, 0xb2, 0xb6, 0x86, 0x96, 0xa6, 0xd0, 0xf3, 0xc8,
 311:Src/mpu6050_dmp.c ****     0x41, 0xda, 0xa6, 0xc8, 0xf8, 0xd8, 0xb0, 0xb4, 0xb8, 0x82, 0xa8, 0x92, 0xf5, 0x2c, 0x54, 0x88,
 312:Src/mpu6050_dmp.c ****     0x98, 0xf1, 0x35, 0xd9, 0xf4, 0x18, 0xd8, 0xf1, 0xa2, 0xd0, 0xf8, 0xf9, 0xa8, 0x84, 0xd9, 0xc7,
 313:Src/mpu6050_dmp.c ****     0xdf, 0xf8, 0xf8, 0x83, 0xc5, 0xda, 0xdf, 0x69, 0xdf, 0x83, 0xc1, 0xd8, 0xf4, 0x01, 0x14, 0xf1,
ARM GAS  /tmp/ccW0iIf7.s 			page 7


 314:Src/mpu6050_dmp.c ****     0xa8, 0x82, 0x4e, 0xa8, 0x84, 0xf3, 0x11, 0xd1, 0x82, 0xf5, 0xd9, 0x92, 0x28, 0x97, 0x88, 0xf1,
 315:Src/mpu6050_dmp.c ****     0x09, 0xf4, 0x1c, 0x1c, 0xd8, 0x84, 0xa8, 0xf3, 0xc0, 0xf9, 0xd1, 0xd9, 0x97, 0x82, 0xf1, 0x29,
 316:Src/mpu6050_dmp.c ****     0xf4, 0x0d, 0xd8, 0xf3, 0xf9, 0xf9, 0xd1, 0xd9, 0x82, 0xf4, 0xc2, 0x03, 0xd8, 0xde, 0xdf, 0x1a,
 317:Src/mpu6050_dmp.c ****     0xd8, 0xf1, 0xa2, 0xfa, 0xf9, 0xa8, 0x84, 0x98, 0xd9, 0xc7, 0xdf, 0xf8, 0xf8, 0xf8, 0x83, 0xc7,
 318:Src/mpu6050_dmp.c ****     0xda, 0xdf, 0x69, 0xdf, 0xf8, 0x83, 0xc3, 0xd8, 0xf4, 0x01, 0x14, 0xf1, 0x98, 0xa8, 0x82, 0x2e,
 319:Src/mpu6050_dmp.c ****     0xa8, 0x84, 0xf3, 0x11, 0xd1, 0x82, 0xf5, 0xd9, 0x92, 0x50, 0x97, 0x88, 0xf1, 0x09, 0xf4, 0x1c,
 320:Src/mpu6050_dmp.c ****     0xd8, 0x84, 0xa8, 0xf3, 0xc0, 0xf8, 0xf9, 0xd1, 0xd9, 0x97, 0x82, 0xf1, 0x49, 0xf4, 0x0d, 0xd8,
 321:Src/mpu6050_dmp.c ****     0xf3, 0xf9, 0xf9, 0xd1, 0xd9, 0x82, 0xf4, 0xc4, 0x03, 0xd8, 0xde, 0xdf, 0xd8, 0xf1, 0xad, 0x88,
 322:Src/mpu6050_dmp.c ****     0x98, 0xcc, 0xa8, 0x09, 0xf9, 0xd9, 0x82, 0x92, 0xa8, 0xf5, 0x7c, 0xf1, 0x88, 0x3a, 0xcf, 0x94,
 323:Src/mpu6050_dmp.c ****     0x4a, 0x6e, 0x98, 0xdb, 0x69, 0x31, 0xda, 0xad, 0xf2, 0xde, 0xf9, 0xd8, 0x87, 0x95, 0xa8, 0xf2,
 324:Src/mpu6050_dmp.c ****     0x21, 0xd1, 0xda, 0xa5, 0xf9, 0xf4, 0x17, 0xd9, 0xf1, 0xae, 0x8e, 0xd0, 0xc0, 0xc3, 0xae, 0x82,
 325:Src/mpu6050_dmp.c ****     /* bank # 6 */
 326:Src/mpu6050_dmp.c ****     0xc6, 0x84, 0xc3, 0xa8, 0x85, 0x95, 0xc8, 0xa5, 0x88, 0xf2, 0xc0, 0xf1, 0xf4, 0x01, 0x0e, 0xf1,
 327:Src/mpu6050_dmp.c ****     0x8e, 0x9e, 0xa8, 0xc6, 0x3e, 0x56, 0xf5, 0x54, 0xf1, 0x88, 0x72, 0xf4, 0x01, 0x15, 0xf1, 0x98,
 328:Src/mpu6050_dmp.c ****     0x45, 0x85, 0x6e, 0xf5, 0x8e, 0x9e, 0x04, 0x88, 0xf1, 0x42, 0x98, 0x5a, 0x8e, 0x9e, 0x06, 0x88,
 329:Src/mpu6050_dmp.c ****     0x69, 0xf4, 0x01, 0x1c, 0xf1, 0x98, 0x1e, 0x11, 0x08, 0xd0, 0xf5, 0x04, 0xf1, 0x1e, 0x97, 0x02,
 330:Src/mpu6050_dmp.c ****     0x02, 0x98, 0x36, 0x25, 0xdb, 0xf9, 0xd9, 0x85, 0xa5, 0xf3, 0xc1, 0xda, 0x85, 0xa5, 0xf3, 0xdf,
 331:Src/mpu6050_dmp.c ****     0xd8, 0x85, 0x95, 0xa8, 0xf3, 0x09, 0xda, 0xa5, 0xfa, 0xd8, 0x82, 0x92, 0xa8, 0xf5, 0x78, 0xf1,
 332:Src/mpu6050_dmp.c ****     0x88, 0x1a, 0x84, 0x9f, 0x26, 0x88, 0x98, 0x21, 0xda, 0xf4, 0x1d, 0xf3, 0xd8, 0x87, 0x9f, 0x39,
 333:Src/mpu6050_dmp.c ****     0xd1, 0xaf, 0xd9, 0xdf, 0xdf, 0xfb, 0xf9, 0xf4, 0x0c, 0xf3, 0xd8, 0xfa, 0xd0, 0xf8, 0xda, 0xf9,
 334:Src/mpu6050_dmp.c ****     0xf9, 0xd0, 0xdf, 0xd9, 0xf9, 0xd8, 0xf4, 0x0b, 0xd8, 0xf3, 0x87, 0x9f, 0x39, 0xd1, 0xaf, 0xd9,
 335:Src/mpu6050_dmp.c ****     0xdf, 0xdf, 0xf4, 0x1d, 0xf3, 0xd8, 0xfa, 0xfc, 0xa8, 0x69, 0xf9, 0xf9, 0xaf, 0xd0, 0xda, 0xde,
 336:Src/mpu6050_dmp.c ****     0xfa, 0xd9, 0xf8, 0x8f, 0x9f, 0xa8, 0xf1, 0xcc, 0xf3, 0x98, 0xdb, 0x45, 0xd9, 0xaf, 0xdf, 0xd0,
 337:Src/mpu6050_dmp.c ****     0xf8, 0xd8, 0xf1, 0x8f, 0x9f, 0xa8, 0xca, 0xf3, 0x88, 0x09, 0xda, 0xaf, 0x8f, 0xcb, 0xf8, 0xd8,
 338:Src/mpu6050_dmp.c ****     0xf2, 0xad, 0x97, 0x8d, 0x0c, 0xd9, 0xa5, 0xdf, 0xf9, 0xba, 0xa6, 0xf3, 0xfa, 0xf4, 0x12, 0xf2,
 339:Src/mpu6050_dmp.c ****     0xd8, 0x95, 0x0d, 0xd1, 0xd9, 0xba, 0xa6, 0xf3, 0xfa, 0xda, 0xa5, 0xf2, 0xc1, 0xba, 0xa6, 0xf3,
 340:Src/mpu6050_dmp.c ****     0xdf, 0xd8, 0xf1, 0xba, 0xb2, 0xb6, 0x86, 0x96, 0xa6, 0xd0, 0xca, 0xf3, 0x49, 0xda, 0xa6, 0xcb,
 341:Src/mpu6050_dmp.c ****     0xf8, 0xd8, 0xb0, 0xb4, 0xb8, 0xd8, 0xad, 0x84, 0xf2, 0xc0, 0xdf, 0xf1, 0x8f, 0xcb, 0xc3, 0xa8,
 342:Src/mpu6050_dmp.c ****     /* bank # 7 */
 343:Src/mpu6050_dmp.c ****     0xb2, 0xb6, 0x86, 0x96, 0xc8, 0xc1, 0xcb, 0xc3, 0xf3, 0xb0, 0xb4, 0x88, 0x98, 0xa8, 0x21, 0xdb,
 344:Src/mpu6050_dmp.c ****     0x71, 0x8d, 0x9d, 0x71, 0x85, 0x95, 0x21, 0xd9, 0xad, 0xf2, 0xfa, 0xd8, 0x85, 0x97, 0xa8, 0x28,
 345:Src/mpu6050_dmp.c ****     0xd9, 0xf4, 0x08, 0xd8, 0xf2, 0x8d, 0x29, 0xda, 0xf4, 0x05, 0xd9, 0xf2, 0x85, 0xa4, 0xc2, 0xf2,
 346:Src/mpu6050_dmp.c ****     0xd8, 0xa8, 0x8d, 0x94, 0x01, 0xd1, 0xd9, 0xf4, 0x11, 0xf2, 0xd8, 0x87, 0x21, 0xd8, 0xf4, 0x0a,
 347:Src/mpu6050_dmp.c ****     0xd8, 0xf2, 0x84, 0x98, 0xa8, 0xc8, 0x01, 0xd1, 0xd9, 0xf4, 0x11, 0xd8, 0xf3, 0xa4, 0xc8, 0xbb,
 348:Src/mpu6050_dmp.c ****     0xaf, 0xd0, 0xf2, 0xde, 0xf8, 0xf8, 0xf8, 0xf8, 0xf8, 0xf8, 0xf8, 0xf8, 0xd8, 0xf1, 0xb8, 0xf6,
 349:Src/mpu6050_dmp.c ****     0xb5, 0xb9, 0xb0, 0x8a, 0x95, 0xa3, 0xde, 0x3c, 0xa3, 0xd9, 0xf8, 0xd8, 0x5c, 0xa3, 0xd9, 0xf8,
 350:Src/mpu6050_dmp.c ****     0xd8, 0x7c, 0xa3, 0xd9, 0xf8, 0xd8, 0xf8, 0xf9, 0xd1, 0xa5, 0xd9, 0xdf, 0xda, 0xfa, 0xd8, 0xb1,
 351:Src/mpu6050_dmp.c ****     0x85, 0x30, 0xf7, 0xd9, 0xde, 0xd8, 0xf8, 0x30, 0xad, 0xda, 0xde, 0xd8, 0xf2, 0xb4, 0x8c, 0x99,
 352:Src/mpu6050_dmp.c ****     0xa3, 0x2d, 0x55, 0x7d, 0xa0, 0x83, 0xdf, 0xdf, 0xdf, 0xb5, 0x91, 0xa0, 0xf6, 0x29, 0xd9, 0xfb,
 353:Src/mpu6050_dmp.c ****     0xd8, 0xa0, 0xfc, 0x29, 0xd9, 0xfa, 0xd8, 0xa0, 0xd0, 0x51, 0xd9, 0xf8, 0xd8, 0xfc, 0x51, 0xd9,
 354:Src/mpu6050_dmp.c ****     0xf9, 0xd8, 0x79, 0xd9, 0xfb, 0xd8, 0xa0, 0xd0, 0xfc, 0x79, 0xd9, 0xfa, 0xd8, 0xa1, 0xf9, 0xf9,
 355:Src/mpu6050_dmp.c ****     0xf9, 0xf9, 0xf9, 0xa0, 0xda, 0xdf, 0xdf, 0xdf, 0xd8, 0xa1, 0xf8, 0xf8, 0xf8, 0xf8, 0xf8, 0xac,
 356:Src/mpu6050_dmp.c ****     0xde, 0xf8, 0xad, 0xde, 0x83, 0x93, 0xac, 0x2c, 0x54, 0x7c, 0xf1, 0xa8, 0xdf, 0xdf, 0xdf, 0xf6,
 357:Src/mpu6050_dmp.c ****     0x9d, 0x2c, 0xda, 0xa0, 0xdf, 0xd9, 0xfa, 0xdb, 0x2d, 0xf8, 0xd8, 0xa8, 0x50, 0xda, 0xa0, 0xd0,
 358:Src/mpu6050_dmp.c ****     0xde, 0xd9, 0xd0, 0xf8, 0xf8, 0xf8, 0xdb, 0x55, 0xf8, 0xd8, 0xa8, 0x78, 0xda, 0xa0, 0xd0, 0xdf,
 359:Src/mpu6050_dmp.c ****     /* bank # 8 */
 360:Src/mpu6050_dmp.c ****     0xd9, 0xd0, 0xfa, 0xf8, 0xf8, 0xf8, 0xf8, 0xdb, 0x7d, 0xf8, 0xd8, 0x9c, 0xa8, 0x8c, 0xf5, 0x30,
 361:Src/mpu6050_dmp.c ****     0xdb, 0x38, 0xd9, 0xd0, 0xde, 0xdf, 0xa0, 0xd0, 0xde, 0xdf, 0xd8, 0xa8, 0x48, 0xdb, 0x58, 0xd9,
 362:Src/mpu6050_dmp.c ****     0xdf, 0xd0, 0xde, 0xa0, 0xdf, 0xd0, 0xde, 0xd8, 0xa8, 0x68, 0xdb, 0x70, 0xd9, 0xdf, 0xdf, 0xa0,
 363:Src/mpu6050_dmp.c ****     0xdf, 0xdf, 0xd8, 0xf1, 0xa8, 0x88, 0x90, 0x2c, 0x54, 0x7c, 0x98, 0xa8, 0xd0, 0x5c, 0x38, 0xd1,
 364:Src/mpu6050_dmp.c ****     0xda, 0xf2, 0xae, 0x8c, 0xdf, 0xf9, 0xd8, 0xb0, 0x87, 0xa8, 0xc1, 0xc1, 0xb1, 0x88, 0xa8, 0xc6,
 365:Src/mpu6050_dmp.c ****     0xf9, 0xf9, 0xda, 0x36, 0xd8, 0xa8, 0xf9, 0xda, 0x36, 0xd8, 0xa8, 0xf9, 0xda, 0x36, 0xd8, 0xa8,
 366:Src/mpu6050_dmp.c ****     0xf9, 0xda, 0x36, 0xd8, 0xa8, 0xf9, 0xda, 0x36, 0xd8, 0xf7, 0x8d, 0x9d, 0xad, 0xf8, 0x18, 0xda,
 367:Src/mpu6050_dmp.c ****     0xf2, 0xae, 0xdf, 0xd8, 0xf7, 0xad, 0xfa, 0x30, 0xd9, 0xa4, 0xde, 0xf9, 0xd8, 0xf2, 0xae, 0xde,
 368:Src/mpu6050_dmp.c ****     0xfa, 0xf9, 0x83, 0xa7, 0xd9, 0xc3, 0xc5, 0xc7, 0xf1, 0x88, 0x9b, 0xa7, 0x7a, 0xad, 0xf7, 0xde,
 369:Src/mpu6050_dmp.c ****     0xdf, 0xa4, 0xf8, 0x84, 0x94, 0x08, 0xa7, 0x97, 0xf3, 0x00, 0xae, 0xf2, 0x98, 0x19, 0xa4, 0x88,
 370:Src/mpu6050_dmp.c ****     0xc6, 0xa3, 0x94, 0x88, 0xf6, 0x32, 0xdf, 0xf2, 0x83, 0x93, 0xdb, 0x09, 0xd9, 0xf2, 0xaa, 0xdf,
ARM GAS  /tmp/ccW0iIf7.s 			page 8


 371:Src/mpu6050_dmp.c ****     0xd8, 0xd8, 0xae, 0xf8, 0xf9, 0xd1, 0xda, 0xf3, 0xa4, 0xde, 0xa7, 0xf1, 0x88, 0x9b, 0x7a, 0xd8,
 372:Src/mpu6050_dmp.c ****     0xf3, 0x84, 0x94, 0xae, 0x19, 0xf9, 0xda, 0xaa, 0xf1, 0xdf, 0xd8, 0xa8, 0x81, 0xc0, 0xc3, 0xc5,
 373:Src/mpu6050_dmp.c ****     0xc7, 0xa3, 0x92, 0x83, 0xf6, 0x28, 0xad, 0xde, 0xd9, 0xf8, 0xd8, 0xa3, 0x50, 0xad, 0xd9, 0xf8,
 374:Src/mpu6050_dmp.c ****     0xd8, 0xa3, 0x78, 0xad, 0xd9, 0xf8, 0xd8, 0xf8, 0xf9, 0xd1, 0xa1, 0xda, 0xde, 0xc3, 0xc5, 0xc7,
 375:Src/mpu6050_dmp.c ****     0xd8, 0xa1, 0x81, 0x94, 0xf8, 0x18, 0xf2, 0xb0, 0x89, 0xac, 0xc3, 0xc5, 0xc7, 0xf1, 0xd8, 0xb8,
 376:Src/mpu6050_dmp.c ****     /* bank # 9 */
 377:Src/mpu6050_dmp.c ****     0xb4, 0xb0, 0x97, 0x86, 0xa8, 0x31, 0x9b, 0x06, 0x99, 0x07, 0xab, 0x97, 0x28, 0x88, 0x9b, 0xf0,
 378:Src/mpu6050_dmp.c ****     0x0c, 0x20, 0x14, 0x40, 0xb0, 0xb4, 0xb8, 0xf0, 0xa8, 0x8a, 0x9a, 0x28, 0x50, 0x78, 0xb7, 0x9b,
 379:Src/mpu6050_dmp.c ****     0xa8, 0x29, 0x51, 0x79, 0x24, 0x70, 0x59, 0x44, 0x69, 0x38, 0x64, 0x48, 0x31, 0xf1, 0xbb, 0xab,
 380:Src/mpu6050_dmp.c ****     0x88, 0x00, 0x2c, 0x54, 0x7c, 0xf0, 0xb3, 0x8b, 0xb8, 0xa8, 0x04, 0x28, 0x50, 0x78, 0xf1, 0xb0,
 381:Src/mpu6050_dmp.c ****     0x88, 0xb4, 0x97, 0x26, 0xa8, 0x59, 0x98, 0xbb, 0xab, 0xb3, 0x8b, 0x02, 0x26, 0x46, 0x66, 0xb0,
 382:Src/mpu6050_dmp.c ****     0xb8, 0xf0, 0x8a, 0x9c, 0xa8, 0x29, 0x51, 0x79, 0x8b, 0x29, 0x51, 0x79, 0x8a, 0x24, 0x70, 0x59,
 383:Src/mpu6050_dmp.c ****     0x8b, 0x20, 0x58, 0x71, 0x8a, 0x44, 0x69, 0x38, 0x8b, 0x39, 0x40, 0x68, 0x8a, 0x64, 0x48, 0x31,
 384:Src/mpu6050_dmp.c ****     0x8b, 0x30, 0x49, 0x60, 0x88, 0xf1, 0xac, 0x00, 0x2c, 0x54, 0x7c, 0xf0, 0x8c, 0xa8, 0x04, 0x28,
 385:Src/mpu6050_dmp.c ****     0x50, 0x78, 0xf1, 0x88, 0x97, 0x26, 0xa8, 0x59, 0x98, 0xac, 0x8c, 0x02, 0x26, 0x46, 0x66, 0xf0,
 386:Src/mpu6050_dmp.c ****     0x89, 0x9c, 0xa8, 0x29, 0x51, 0x79, 0x24, 0x70, 0x59, 0x44, 0x69, 0x38, 0x64, 0x48, 0x31, 0xa9,
 387:Src/mpu6050_dmp.c ****     0x88, 0x09, 0x20, 0x59, 0x70, 0xab, 0x11, 0x38, 0x40, 0x69, 0xa8, 0x19, 0x31, 0x48, 0x60, 0x8c,
 388:Src/mpu6050_dmp.c ****     0xa8, 0x3c, 0x41, 0x5c, 0x20, 0x7c, 0x00, 0xf1, 0x87, 0x98, 0x19, 0x86, 0xa8, 0x6e, 0x76, 0x7e,
 389:Src/mpu6050_dmp.c ****     0xa9, 0x99, 0x88, 0x2d, 0x55, 0x7d, 0xd8, 0xb1, 0xb5, 0xb9, 0xa3, 0xdf, 0xdf, 0xdf, 0xae, 0xd0,
 390:Src/mpu6050_dmp.c ****     0xdf, 0xaa, 0xd0, 0xde, 0xf2, 0xab, 0xf8, 0xf9, 0xd9, 0xb0, 0x87, 0xc4, 0xaa, 0xf1, 0xdf, 0xdf,
 391:Src/mpu6050_dmp.c ****     0xbb, 0xaf, 0xdf, 0xdf, 0xb9, 0xd8, 0xb1, 0xf1, 0xa3, 0x97, 0x8e, 0x60, 0xdf, 0xb0, 0x84, 0xf2,
 392:Src/mpu6050_dmp.c ****     0xc8, 0xf8, 0xf9, 0xd9, 0xde, 0xd8, 0x93, 0x85, 0xf1, 0x4a, 0xb1, 0x83, 0xa3, 0x08, 0xb5, 0x83,
 393:Src/mpu6050_dmp.c ****     /* bank # 10 */
 394:Src/mpu6050_dmp.c ****     0x9a, 0x08, 0x10, 0xb7, 0x9f, 0x10, 0xd8, 0xf1, 0xb0, 0xba, 0xae, 0xb0, 0x8a, 0xc2, 0xb2, 0xb6,
 395:Src/mpu6050_dmp.c ****     0x8e, 0x9e, 0xf1, 0xfb, 0xd9, 0xf4, 0x1d, 0xd8, 0xf9, 0xd9, 0x0c, 0xf1, 0xd8, 0xf8, 0xf8, 0xad,
 396:Src/mpu6050_dmp.c ****     0x61, 0xd9, 0xae, 0xfb, 0xd8, 0xf4, 0x0c, 0xf1, 0xd8, 0xf8, 0xf8, 0xad, 0x19, 0xd9, 0xae, 0xfb,
 397:Src/mpu6050_dmp.c ****     0xdf, 0xd8, 0xf4, 0x16, 0xf1, 0xd8, 0xf8, 0xad, 0x8d, 0x61, 0xd9, 0xf4, 0xf4, 0xac, 0xf5, 0x9c,
 398:Src/mpu6050_dmp.c ****     0x9c, 0x8d, 0xdf, 0x2b, 0xba, 0xb6, 0xae, 0xfa, 0xf8, 0xf4, 0x0b, 0xd8, 0xf1, 0xae, 0xd0, 0xf8,
 399:Src/mpu6050_dmp.c ****     0xad, 0x51, 0xda, 0xae, 0xfa, 0xf8, 0xf1, 0xd8, 0xb9, 0xb1, 0xb6, 0xa3, 0x83, 0x9c, 0x08, 0xb9,
 400:Src/mpu6050_dmp.c ****     0xb1, 0x83, 0x9a, 0xb5, 0xaa, 0xc0, 0xfd, 0x30, 0x83, 0xb7, 0x9f, 0x10, 0xb5, 0x8b, 0x93, 0xf2,
 401:Src/mpu6050_dmp.c ****     0x02, 0x02, 0xd1, 0xab, 0xda, 0xde, 0xd8, 0xf1, 0xb0, 0x80, 0xba, 0xab, 0xc0, 0xc3, 0xb2, 0x84,
 402:Src/mpu6050_dmp.c ****     0xc1, 0xc3, 0xd8, 0xb1, 0xb9, 0xf3, 0x8b, 0xa3, 0x91, 0xb6, 0x09, 0xb4, 0xd9, 0xab, 0xde, 0xb0,
 403:Src/mpu6050_dmp.c ****     0x87, 0x9c, 0xb9, 0xa3, 0xdd, 0xf1, 0xb3, 0x8b, 0x8b, 0x8b, 0x8b, 0x8b, 0xb0, 0x87, 0xa3, 0xa3,
 404:Src/mpu6050_dmp.c ****     0xa3, 0xa3, 0xb2, 0x8b, 0xb6, 0x9b, 0xf2, 0xa3, 0xa3, 0xa3, 0xa3, 0xa3, 0xa3, 0xa3, 0xa3, 0xa3,
 405:Src/mpu6050_dmp.c ****     0xa3, 0xf1, 0xb0, 0x87, 0xb5, 0x9a, 0xa3, 0xf3, 0x9b, 0xa3, 0xa3, 0xdc, 0xba, 0xac, 0xdf, 0xb9,
 406:Src/mpu6050_dmp.c ****     0xa3, 0xa3, 0xa3, 0xa3, 0xa3, 0xa3, 0xa3, 0xa3, 0xa3, 0xa3, 0xa3, 0xa3, 0xa3, 0xa3, 0xa3, 0xa3,
 407:Src/mpu6050_dmp.c ****     0xd8, 0xd8, 0xd8, 0xbb, 0xb3, 0xb7, 0xf1, 0xaa, 0xf9, 0xda, 0xff, 0xd9, 0x80, 0x9a, 0xaa, 0x28,
 408:Src/mpu6050_dmp.c ****     0xb4, 0x80, 0x98, 0xa7, 0x20, 0xb7, 0x97, 0x87, 0xa8, 0x66, 0x88, 0xf0, 0x79, 0x51, 0xf1, 0x90,
 409:Src/mpu6050_dmp.c ****     0x2c, 0x87, 0x0c, 0xa7, 0x81, 0x97, 0x62, 0x93, 0xf0, 0x71, 0x71, 0x60, 0x85, 0x94, 0x01, 0x29,
 410:Src/mpu6050_dmp.c ****     /* bank # 11 */
 411:Src/mpu6050_dmp.c ****     0x51, 0x79, 0x90, 0xa5, 0xf1, 0x28, 0x4c, 0x6c, 0x87, 0x0c, 0x95, 0x18, 0x85, 0x78, 0xa3, 0x83,
 412:Src/mpu6050_dmp.c ****     0x90, 0x28, 0x4c, 0x6c, 0x88, 0x6c, 0xd8, 0xf3, 0xa2, 0x82, 0x00, 0xf2, 0x10, 0xa8, 0x92, 0x19,
 413:Src/mpu6050_dmp.c ****     0x80, 0xa2, 0xf2, 0xd9, 0x26, 0xd8, 0xf1, 0x88, 0xa8, 0x4d, 0xd9, 0x48, 0xd8, 0x96, 0xa8, 0x39,
 414:Src/mpu6050_dmp.c ****     0x80, 0xd9, 0x3c, 0xd8, 0x95, 0x80, 0xa8, 0x39, 0xa6, 0x86, 0x98, 0xd9, 0x2c, 0xda, 0x87, 0xa7,
 415:Src/mpu6050_dmp.c ****     0x2c, 0xd8, 0xa8, 0x89, 0x95, 0x19, 0xa9, 0x80, 0xd9, 0x38, 0xd8, 0xa8, 0x89, 0x39, 0xa9, 0x80,
 416:Src/mpu6050_dmp.c ****     0xda, 0x3c, 0xd8, 0xa8, 0x2e, 0xa8, 0x39, 0x90, 0xd9, 0x0c, 0xd8, 0xa8, 0x95, 0x31, 0x98, 0xd9,
 417:Src/mpu6050_dmp.c ****     0x0c, 0xd8, 0xa8, 0x09, 0xd9, 0xff, 0xd8, 0x01, 0xda, 0xff, 0xd8, 0x95, 0x39, 0xa9, 0xda, 0x26,
 418:Src/mpu6050_dmp.c ****     0xff, 0xd8, 0x90, 0xa8, 0x0d, 0x89, 0x99, 0xa8, 0x10, 0x80, 0x98, 0x21, 0xda, 0x2e, 0xd8, 0x89,
 419:Src/mpu6050_dmp.c ****     0x99, 0xa8, 0x31, 0x80, 0xda, 0x2e, 0xd8, 0xa8, 0x86, 0x96, 0x31, 0x80, 0xda, 0x2e, 0xd8, 0xa8,
 420:Src/mpu6050_dmp.c ****     0x87, 0x31, 0x80, 0xda, 0x2e, 0xd8, 0xa8, 0x82, 0x92, 0xf3, 0x41, 0x80, 0xf1, 0xd9, 0x2e, 0xd8,
 421:Src/mpu6050_dmp.c ****     0xa8, 0x82, 0xf3, 0x19, 0x80, 0xf1, 0xd9, 0x2e, 0xd8, 0x82, 0xac, 0xf3, 0xc0, 0xa2, 0x80, 0x22,
 422:Src/mpu6050_dmp.c ****     0xf1, 0xa6, 0x2e, 0xa7, 0x2e, 0xa9, 0x22, 0x98, 0xa8, 0x29, 0xda, 0xac, 0xde, 0xff, 0xd8, 0xa2,
 423:Src/mpu6050_dmp.c ****     0xf2, 0x2a, 0xf1, 0xa9, 0x2e, 0x82, 0x92, 0xa8, 0xf2, 0x31, 0x80, 0xa6, 0x96, 0xf1, 0xd9, 0x00,
 424:Src/mpu6050_dmp.c ****     0xac, 0x8c, 0x9c, 0x0c, 0x30, 0xac, 0xde, 0xd0, 0xde, 0xff, 0xd8, 0x8c, 0x9c, 0xac, 0xd0, 0x10,
 425:Src/mpu6050_dmp.c ****     0xac, 0xde, 0x80, 0x92, 0xa2, 0xf2, 0x4c, 0x82, 0xa8, 0xf1, 0xca, 0xf2, 0x35, 0xf1, 0x96, 0x88,
 426:Src/mpu6050_dmp.c ****     0xa6, 0xd9, 0x00, 0xd8, 0xf1, 0xff
 427:Src/mpu6050_dmp.c **** };
ARM GAS  /tmp/ccW0iIf7.s 			page 9


 428:Src/mpu6050_dmp.c **** 
 429:Src/mpu6050_dmp.c **** static const unsigned short sStartAddress = 0x0400;
 430:Src/mpu6050_dmp.c **** 
 431:Src/mpu6050_dmp.c **** /* END OF SECTION COPIED FROM dmpDefaultMPU6050.c */
 432:Src/mpu6050_dmp.c **** 
 433:Src/mpu6050_dmp.c **** #define INT_SRC_TAP             (0x01)
 434:Src/mpu6050_dmp.c **** #define INT_SRC_ANDROID_ORIENT  (0x08)
 435:Src/mpu6050_dmp.c **** 
 436:Src/mpu6050_dmp.c **** #define DMP_FEATURE_SEND_ANY_GYRO   (DMP_FEATURE_SEND_RAW_GYRO | \
 437:Src/mpu6050_dmp.c ****                                      DMP_FEATURE_SEND_CAL_GYRO)
 438:Src/mpu6050_dmp.c **** 
 439:Src/mpu6050_dmp.c **** #define MAX_PACKET_LENGTH   (32)
 440:Src/mpu6050_dmp.c **** 
 441:Src/mpu6050_dmp.c **** #define DMP_SAMPLE_RATE     (200)
 442:Src/mpu6050_dmp.c **** #define GYRO_SF             (46850825LL * 200 / DMP_SAMPLE_RATE)
 443:Src/mpu6050_dmp.c **** 
 444:Src/mpu6050_dmp.c **** #define FIFO_CORRUPTION_CHECK
 445:Src/mpu6050_dmp.c **** #ifdef FIFO_CORRUPTION_CHECK
 446:Src/mpu6050_dmp.c **** #define QUAT_ERROR_THRESH       (1L<<24)
 447:Src/mpu6050_dmp.c **** #define QUAT_MAG_SQ_NORMALIZED  (1L<<28)
 448:Src/mpu6050_dmp.c **** #define QUAT_MAG_SQ_MIN         (QUAT_MAG_SQ_NORMALIZED - QUAT_ERROR_THRESH)
 449:Src/mpu6050_dmp.c **** #define QUAT_MAG_SQ_MAX         (QUAT_MAG_SQ_NORMALIZED + QUAT_ERROR_THRESH)
 450:Src/mpu6050_dmp.c **** #endif
 451:Src/mpu6050_dmp.c **** 
 452:Src/mpu6050_dmp.c **** struct dmp_s {
 453:Src/mpu6050_dmp.c ****     void (*tap_cb)(unsigned char count, unsigned char direction);
 454:Src/mpu6050_dmp.c ****     void (*android_orient_cb)(unsigned char orientation);
 455:Src/mpu6050_dmp.c ****     unsigned short orient;
 456:Src/mpu6050_dmp.c ****     unsigned short feature_mask;
 457:Src/mpu6050_dmp.c ****     unsigned short fifo_rate;
 458:Src/mpu6050_dmp.c ****     unsigned char packet_length;
 459:Src/mpu6050_dmp.c **** };
 460:Src/mpu6050_dmp.c **** 
 461:Src/mpu6050_dmp.c **** static struct dmp_s dmp = {
 462:Src/mpu6050_dmp.c ****     .tap_cb = NULL,
 463:Src/mpu6050_dmp.c ****     .android_orient_cb = NULL,
 464:Src/mpu6050_dmp.c ****     .orient = 0,
 465:Src/mpu6050_dmp.c ****     .feature_mask = 0,
 466:Src/mpu6050_dmp.c ****     .fifo_rate = 0,
 467:Src/mpu6050_dmp.c ****     .packet_length = 0
 468:Src/mpu6050_dmp.c **** };
 469:Src/mpu6050_dmp.c **** 
 470:Src/mpu6050_dmp.c **** /**
 471:Src/mpu6050_dmp.c ****  *  @brief  Load the DMP with this image.
 472:Src/mpu6050_dmp.c ****  *  @return 0 if successful.
 473:Src/mpu6050_dmp.c ****  */
 474:Src/mpu6050_dmp.c **** int dmp_load_motion_driver_firmware(void)
 475:Src/mpu6050_dmp.c **** {
 476:Src/mpu6050_dmp.c ****     return mpu_load_firmware(DMP_CODE_SIZE, dmp_memory, sStartAddress,
 477:Src/mpu6050_dmp.c ****         DMP_SAMPLE_RATE);
 478:Src/mpu6050_dmp.c **** }
 479:Src/mpu6050_dmp.c **** 
 480:Src/mpu6050_dmp.c **** /**
 481:Src/mpu6050_dmp.c ****  *  @brief      Push gyro and accel orientation to the DMP.
 482:Src/mpu6050_dmp.c ****  *  The orientation is represented here as the output of
 483:Src/mpu6050_dmp.c ****  *  @e inv_orientation_matrix_to_scalar.
 484:Src/mpu6050_dmp.c ****  *  @param[in]  orient  Gyro and accel orientation in body frame.
ARM GAS  /tmp/ccW0iIf7.s 			page 10


 485:Src/mpu6050_dmp.c ****  *  @return     0 if successful.
 486:Src/mpu6050_dmp.c ****  */
 487:Src/mpu6050_dmp.c **** int dmp_set_orientation(unsigned short orient)
 488:Src/mpu6050_dmp.c **** {
 489:Src/mpu6050_dmp.c ****     unsigned char gyro_regs[3], accel_regs[3];
 490:Src/mpu6050_dmp.c ****     const unsigned char gyro_axes[3] = {DINA4C, DINACD, DINA6C};
 491:Src/mpu6050_dmp.c ****     const unsigned char accel_axes[3] = {DINA0C, DINAC9, DINA2C};
 492:Src/mpu6050_dmp.c ****     const unsigned char gyro_sign[3] = {DINA36, DINA56, DINA76};
 493:Src/mpu6050_dmp.c ****     const unsigned char accel_sign[3] = {DINA26, DINA46, DINA66};
 494:Src/mpu6050_dmp.c **** 
 495:Src/mpu6050_dmp.c ****     gyro_regs[0] = gyro_axes[orient & 3];
 496:Src/mpu6050_dmp.c ****     gyro_regs[1] = gyro_axes[(orient >> 3) & 3];
 497:Src/mpu6050_dmp.c ****     gyro_regs[2] = gyro_axes[(orient >> 6) & 3];
 498:Src/mpu6050_dmp.c ****     accel_regs[0] = accel_axes[orient & 3];
 499:Src/mpu6050_dmp.c ****     accel_regs[1] = accel_axes[(orient >> 3) & 3];
 500:Src/mpu6050_dmp.c ****     accel_regs[2] = accel_axes[(orient >> 6) & 3];
 501:Src/mpu6050_dmp.c **** 
 502:Src/mpu6050_dmp.c ****     /* Chip-to-body, axes only. */
 503:Src/mpu6050_dmp.c ****     if (mpu_write_mem(FCFG_1, 3, gyro_regs))
 504:Src/mpu6050_dmp.c ****         return -1;
 505:Src/mpu6050_dmp.c ****     if (mpu_write_mem(FCFG_2, 3, accel_regs))
 506:Src/mpu6050_dmp.c ****         return -1;
 507:Src/mpu6050_dmp.c **** 
 508:Src/mpu6050_dmp.c ****     memcpy(gyro_regs, gyro_sign, 3);
 509:Src/mpu6050_dmp.c ****     memcpy(accel_regs, accel_sign, 3);
 510:Src/mpu6050_dmp.c ****     if (orient & 4) {
 511:Src/mpu6050_dmp.c ****         gyro_regs[0] |= 1;
 512:Src/mpu6050_dmp.c ****         accel_regs[0] |= 1;
 513:Src/mpu6050_dmp.c ****     }
 514:Src/mpu6050_dmp.c ****     if (orient & 0x20) {
 515:Src/mpu6050_dmp.c ****         gyro_regs[1] |= 1;
 516:Src/mpu6050_dmp.c ****         accel_regs[1] |= 1;
 517:Src/mpu6050_dmp.c ****     }
 518:Src/mpu6050_dmp.c ****     if (orient & 0x100) {
 519:Src/mpu6050_dmp.c ****         gyro_regs[2] |= 1;
 520:Src/mpu6050_dmp.c ****         accel_regs[2] |= 1;
 521:Src/mpu6050_dmp.c ****     }
 522:Src/mpu6050_dmp.c **** 
 523:Src/mpu6050_dmp.c ****     /* Chip-to-body, sign only. */
 524:Src/mpu6050_dmp.c ****     if (mpu_write_mem(FCFG_3, 3, gyro_regs))
 525:Src/mpu6050_dmp.c ****         return -1;
 526:Src/mpu6050_dmp.c ****     if (mpu_write_mem(FCFG_7, 3, accel_regs))
 527:Src/mpu6050_dmp.c ****         return -1;
 528:Src/mpu6050_dmp.c ****     dmp.orient = orient;
 529:Src/mpu6050_dmp.c ****     return 0;
 530:Src/mpu6050_dmp.c **** }
 531:Src/mpu6050_dmp.c **** 
 532:Src/mpu6050_dmp.c **** /**
 533:Src/mpu6050_dmp.c ****  *  @brief      Push gyro biases to the DMP.
 534:Src/mpu6050_dmp.c ****  *  Because the gyro integration is handled in the DMP, any gyro biases
 535:Src/mpu6050_dmp.c ****  *  calculated by the MPL should be pushed down to DMP memory to remove
 536:Src/mpu6050_dmp.c ****  *  3-axis quaternion drift.
 537:Src/mpu6050_dmp.c ****  *  \n NOTE: If the DMP-based gyro calibration is enabled, the DMP will
 538:Src/mpu6050_dmp.c ****  *  overwrite the biases written to this location once a new one is computed.
 539:Src/mpu6050_dmp.c ****  *  @param[in]  bias    Gyro biases in q16.
 540:Src/mpu6050_dmp.c ****  *  @return     0 if successful.
 541:Src/mpu6050_dmp.c ****  */
ARM GAS  /tmp/ccW0iIf7.s 			page 11


 542:Src/mpu6050_dmp.c **** int dmp_set_gyro_bias(long *bias)
 543:Src/mpu6050_dmp.c **** {
 544:Src/mpu6050_dmp.c ****     long gyro_bias_body[3];
 545:Src/mpu6050_dmp.c ****     unsigned char regs[4];
 546:Src/mpu6050_dmp.c **** 
 547:Src/mpu6050_dmp.c ****     gyro_bias_body[0] = bias[dmp.orient & 3];
 548:Src/mpu6050_dmp.c ****     if (dmp.orient & 4)
 549:Src/mpu6050_dmp.c ****         gyro_bias_body[0] *= -1;
 550:Src/mpu6050_dmp.c ****     gyro_bias_body[1] = bias[(dmp.orient >> 3) & 3];
 551:Src/mpu6050_dmp.c ****     if (dmp.orient & 0x20)
 552:Src/mpu6050_dmp.c ****         gyro_bias_body[1] *= -1;
 553:Src/mpu6050_dmp.c ****     gyro_bias_body[2] = bias[(dmp.orient >> 6) & 3];
 554:Src/mpu6050_dmp.c ****     if (dmp.orient & 0x100)
 555:Src/mpu6050_dmp.c ****         gyro_bias_body[2] *= -1;
 556:Src/mpu6050_dmp.c **** 
 557:Src/mpu6050_dmp.c **** #ifdef EMPL_NO_64BIT
 558:Src/mpu6050_dmp.c ****     gyro_bias_body[0] = (long)(((float)gyro_bias_body[0] * GYRO_SF) / 1073741824.f);
 559:Src/mpu6050_dmp.c ****     gyro_bias_body[1] = (long)(((float)gyro_bias_body[1] * GYRO_SF) / 1073741824.f);
 560:Src/mpu6050_dmp.c ****     gyro_bias_body[2] = (long)(((float)gyro_bias_body[2] * GYRO_SF) / 1073741824.f);
 561:Src/mpu6050_dmp.c **** #else
 562:Src/mpu6050_dmp.c ****     gyro_bias_body[0] = (long)(((long long)gyro_bias_body[0] * GYRO_SF) >> 30);
 563:Src/mpu6050_dmp.c ****     gyro_bias_body[1] = (long)(((long long)gyro_bias_body[1] * GYRO_SF) >> 30);
 564:Src/mpu6050_dmp.c ****     gyro_bias_body[2] = (long)(((long long)gyro_bias_body[2] * GYRO_SF) >> 30);
 565:Src/mpu6050_dmp.c **** #endif
 566:Src/mpu6050_dmp.c **** 
 567:Src/mpu6050_dmp.c ****     regs[0] = (unsigned char)((gyro_bias_body[0] >> 24) & 0xFF);
 568:Src/mpu6050_dmp.c ****     regs[1] = (unsigned char)((gyro_bias_body[0] >> 16) & 0xFF);
 569:Src/mpu6050_dmp.c ****     regs[2] = (unsigned char)((gyro_bias_body[0] >> 8) & 0xFF);
 570:Src/mpu6050_dmp.c ****     regs[3] = (unsigned char)(gyro_bias_body[0] & 0xFF);
 571:Src/mpu6050_dmp.c ****     if (mpu_write_mem(D_EXT_GYRO_BIAS_X, 4, regs))
 572:Src/mpu6050_dmp.c ****         return -1;
 573:Src/mpu6050_dmp.c **** 
 574:Src/mpu6050_dmp.c ****     regs[0] = (unsigned char)((gyro_bias_body[1] >> 24) & 0xFF);
 575:Src/mpu6050_dmp.c ****     regs[1] = (unsigned char)((gyro_bias_body[1] >> 16) & 0xFF);
 576:Src/mpu6050_dmp.c ****     regs[2] = (unsigned char)((gyro_bias_body[1] >> 8) & 0xFF);
 577:Src/mpu6050_dmp.c ****     regs[3] = (unsigned char)(gyro_bias_body[1] & 0xFF);
 578:Src/mpu6050_dmp.c ****     if (mpu_write_mem(D_EXT_GYRO_BIAS_Y, 4, regs))
 579:Src/mpu6050_dmp.c ****         return -1;
 580:Src/mpu6050_dmp.c **** 
 581:Src/mpu6050_dmp.c ****     regs[0] = (unsigned char)((gyro_bias_body[2] >> 24) & 0xFF);
 582:Src/mpu6050_dmp.c ****     regs[1] = (unsigned char)((gyro_bias_body[2] >> 16) & 0xFF);
 583:Src/mpu6050_dmp.c ****     regs[2] = (unsigned char)((gyro_bias_body[2] >> 8) & 0xFF);
 584:Src/mpu6050_dmp.c ****     regs[3] = (unsigned char)(gyro_bias_body[2] & 0xFF);
 585:Src/mpu6050_dmp.c ****     return mpu_write_mem(D_EXT_GYRO_BIAS_Z, 4, regs);
 586:Src/mpu6050_dmp.c **** }
 587:Src/mpu6050_dmp.c **** 
 588:Src/mpu6050_dmp.c **** /**
 589:Src/mpu6050_dmp.c ****  *  @brief      Push accel biases to the DMP.
 590:Src/mpu6050_dmp.c ****  *  These biases will be removed from the DMP 6-axis quaternion.
 591:Src/mpu6050_dmp.c ****  *  @param[in]  bias    Accel biases in q16.
 592:Src/mpu6050_dmp.c ****  *  @return     0 if successful.
 593:Src/mpu6050_dmp.c ****  */
 594:Src/mpu6050_dmp.c **** int dmp_set_accel_bias(long *bias)
 595:Src/mpu6050_dmp.c **** {
 596:Src/mpu6050_dmp.c ****     long accel_bias_body[3];
 597:Src/mpu6050_dmp.c ****     unsigned char regs[12];
 598:Src/mpu6050_dmp.c ****     long long accel_sf;
ARM GAS  /tmp/ccW0iIf7.s 			page 12


 599:Src/mpu6050_dmp.c ****     unsigned short accel_sens;
 600:Src/mpu6050_dmp.c **** 
 601:Src/mpu6050_dmp.c ****     mpu_get_accel_sens(&accel_sens);
 602:Src/mpu6050_dmp.c ****     accel_sf = (long long)accel_sens << 15;
 603:Src/mpu6050_dmp.c ****     // __no_operation();
 604:Src/mpu6050_dmp.c **** 
 605:Src/mpu6050_dmp.c ****     accel_bias_body[0] = bias[dmp.orient & 3];
 606:Src/mpu6050_dmp.c ****     if (dmp.orient & 4)
 607:Src/mpu6050_dmp.c ****         accel_bias_body[0] *= -1;
 608:Src/mpu6050_dmp.c ****     accel_bias_body[1] = bias[(dmp.orient >> 3) & 3];
 609:Src/mpu6050_dmp.c ****     if (dmp.orient & 0x20)
 610:Src/mpu6050_dmp.c ****         accel_bias_body[1] *= -1;
 611:Src/mpu6050_dmp.c ****     accel_bias_body[2] = bias[(dmp.orient >> 6) & 3];
 612:Src/mpu6050_dmp.c ****     if (dmp.orient & 0x100)
 613:Src/mpu6050_dmp.c ****         accel_bias_body[2] *= -1;
 614:Src/mpu6050_dmp.c **** 
 615:Src/mpu6050_dmp.c **** #ifdef EMPL_NO_64BIT
 616:Src/mpu6050_dmp.c ****     accel_bias_body[0] = (long)(((float)accel_bias_body[0] * accel_sf) / 1073741824.f);
 617:Src/mpu6050_dmp.c ****     accel_bias_body[1] = (long)(((float)accel_bias_body[1] * accel_sf) / 1073741824.f);
 618:Src/mpu6050_dmp.c ****     accel_bias_body[2] = (long)(((float)accel_bias_body[2] * accel_sf) / 1073741824.f);
 619:Src/mpu6050_dmp.c **** #else
 620:Src/mpu6050_dmp.c ****     accel_bias_body[0] = (long)(((long long)accel_bias_body[0] * accel_sf) >> 30);
 621:Src/mpu6050_dmp.c ****     accel_bias_body[1] = (long)(((long long)accel_bias_body[1] * accel_sf) >> 30);
 622:Src/mpu6050_dmp.c ****     accel_bias_body[2] = (long)(((long long)accel_bias_body[2] * accel_sf) >> 30);
 623:Src/mpu6050_dmp.c **** #endif
 624:Src/mpu6050_dmp.c **** 
 625:Src/mpu6050_dmp.c ****     regs[0] = (unsigned char)((accel_bias_body[0] >> 24) & 0xFF);
 626:Src/mpu6050_dmp.c ****     regs[1] = (unsigned char)((accel_bias_body[0] >> 16) & 0xFF);
 627:Src/mpu6050_dmp.c ****     regs[2] = (unsigned char)((accel_bias_body[0] >> 8) & 0xFF);
 628:Src/mpu6050_dmp.c ****     regs[3] = (unsigned char)(accel_bias_body[0] & 0xFF);
 629:Src/mpu6050_dmp.c ****     regs[4] = (unsigned char)((accel_bias_body[1] >> 24) & 0xFF);
 630:Src/mpu6050_dmp.c ****     regs[5] = (unsigned char)((accel_bias_body[1] >> 16) & 0xFF);
 631:Src/mpu6050_dmp.c ****     regs[6] = (unsigned char)((accel_bias_body[1] >> 8) & 0xFF);
 632:Src/mpu6050_dmp.c ****     regs[7] = (unsigned char)(accel_bias_body[1] & 0xFF);
 633:Src/mpu6050_dmp.c ****     regs[8] = (unsigned char)((accel_bias_body[2] >> 24) & 0xFF);
 634:Src/mpu6050_dmp.c ****     regs[9] = (unsigned char)((accel_bias_body[2] >> 16) & 0xFF);
 635:Src/mpu6050_dmp.c ****     regs[10] = (unsigned char)((accel_bias_body[2] >> 8) & 0xFF);
 636:Src/mpu6050_dmp.c ****     regs[11] = (unsigned char)(accel_bias_body[2] & 0xFF);
 637:Src/mpu6050_dmp.c ****     return mpu_write_mem(D_ACCEL_BIAS, 12, regs);
 638:Src/mpu6050_dmp.c **** }
 639:Src/mpu6050_dmp.c **** 
 640:Src/mpu6050_dmp.c **** /**
 641:Src/mpu6050_dmp.c ****  *  @brief      Set DMP output rate.
 642:Src/mpu6050_dmp.c ****  *  Only used when DMP is on.
 643:Src/mpu6050_dmp.c ****  *  @param[in]  rate    Desired fifo rate (Hz).
 644:Src/mpu6050_dmp.c ****  *  @return     0 if successful.
 645:Src/mpu6050_dmp.c ****  */
 646:Src/mpu6050_dmp.c **** int dmp_set_fifo_rate(unsigned short rate)
 647:Src/mpu6050_dmp.c **** {
 648:Src/mpu6050_dmp.c ****     const unsigned char regs_end[12] = {DINAFE, DINAF2, DINAAB,
 649:Src/mpu6050_dmp.c ****         0xc4, DINAAA, DINAF1, DINADF, DINADF, 0xBB, 0xAF, DINADF, DINADF};
 650:Src/mpu6050_dmp.c ****     unsigned short div;
 651:Src/mpu6050_dmp.c ****     unsigned char tmp[8];
 652:Src/mpu6050_dmp.c **** 
 653:Src/mpu6050_dmp.c ****     if (rate > DMP_SAMPLE_RATE)
 654:Src/mpu6050_dmp.c ****         return -1;
 655:Src/mpu6050_dmp.c ****     div = DMP_SAMPLE_RATE / rate - 1;
ARM GAS  /tmp/ccW0iIf7.s 			page 13


 656:Src/mpu6050_dmp.c ****     tmp[0] = (unsigned char)((div >> 8) & 0xFF);
 657:Src/mpu6050_dmp.c ****     tmp[1] = (unsigned char)(div & 0xFF);
 658:Src/mpu6050_dmp.c ****     if (mpu_write_mem(D_0_22, 2, tmp))
 659:Src/mpu6050_dmp.c ****         return -1;
 660:Src/mpu6050_dmp.c ****     if (mpu_write_mem(CFG_6, 12, (unsigned char*)regs_end))
 661:Src/mpu6050_dmp.c ****         return -1;
 662:Src/mpu6050_dmp.c **** 
 663:Src/mpu6050_dmp.c ****     dmp.fifo_rate = rate;
 664:Src/mpu6050_dmp.c ****     return 0;
 665:Src/mpu6050_dmp.c **** }
 666:Src/mpu6050_dmp.c **** 
 667:Src/mpu6050_dmp.c **** /**
 668:Src/mpu6050_dmp.c ****  *  @brief      Get DMP output rate.
 669:Src/mpu6050_dmp.c ****  *  @param[out] rate    Current fifo rate (Hz).
 670:Src/mpu6050_dmp.c ****  *  @return     0 if successful.
 671:Src/mpu6050_dmp.c ****  */
 672:Src/mpu6050_dmp.c **** int dmp_get_fifo_rate(unsigned short *rate)
 673:Src/mpu6050_dmp.c **** {
 674:Src/mpu6050_dmp.c ****     rate[0] = dmp.fifo_rate;
 675:Src/mpu6050_dmp.c ****     return 0;
 676:Src/mpu6050_dmp.c **** }
 677:Src/mpu6050_dmp.c **** 
 678:Src/mpu6050_dmp.c **** /**
 679:Src/mpu6050_dmp.c ****  *  @brief      Set tap threshold for a specific axis.
 680:Src/mpu6050_dmp.c ****  *  @param[in]  axis    1, 2, and 4 for XYZ accel, respectively.
 681:Src/mpu6050_dmp.c ****  *  @param[in]  thresh  Tap threshold, in mg/ms.
 682:Src/mpu6050_dmp.c ****  *  @return     0 if successful.
 683:Src/mpu6050_dmp.c ****  */
 684:Src/mpu6050_dmp.c **** int dmp_set_tap_thresh(unsigned char axis, unsigned short thresh)
 685:Src/mpu6050_dmp.c **** {
 686:Src/mpu6050_dmp.c ****     unsigned char tmp[4], accel_fsr;
 687:Src/mpu6050_dmp.c ****     float scaled_thresh;
 688:Src/mpu6050_dmp.c ****     unsigned short dmp_thresh, dmp_thresh_2;
 689:Src/mpu6050_dmp.c ****     if (!(axis & TAP_XYZ) || thresh > 1600)
 690:Src/mpu6050_dmp.c ****         return -1;
 691:Src/mpu6050_dmp.c **** 
 692:Src/mpu6050_dmp.c ****     scaled_thresh = (float)thresh / DMP_SAMPLE_RATE;
 693:Src/mpu6050_dmp.c **** 
 694:Src/mpu6050_dmp.c ****     mpu_get_accel_fsr(&accel_fsr);
 695:Src/mpu6050_dmp.c ****     switch (accel_fsr) {
 696:Src/mpu6050_dmp.c ****     case 2:
 697:Src/mpu6050_dmp.c ****         dmp_thresh = (unsigned short)(scaled_thresh * 16384);
 698:Src/mpu6050_dmp.c ****         /* dmp_thresh * 0.75 */
 699:Src/mpu6050_dmp.c ****         dmp_thresh_2 = (unsigned short)(scaled_thresh * 12288);
 700:Src/mpu6050_dmp.c ****         break;
 701:Src/mpu6050_dmp.c ****     case 4:
 702:Src/mpu6050_dmp.c ****         dmp_thresh = (unsigned short)(scaled_thresh * 8192);
 703:Src/mpu6050_dmp.c ****         /* dmp_thresh * 0.75 */
 704:Src/mpu6050_dmp.c ****         dmp_thresh_2 = (unsigned short)(scaled_thresh * 6144);
 705:Src/mpu6050_dmp.c ****         break;
 706:Src/mpu6050_dmp.c ****     case 8:
 707:Src/mpu6050_dmp.c ****         dmp_thresh = (unsigned short)(scaled_thresh * 4096);
 708:Src/mpu6050_dmp.c ****         /* dmp_thresh * 0.75 */
 709:Src/mpu6050_dmp.c ****         dmp_thresh_2 = (unsigned short)(scaled_thresh * 3072);
 710:Src/mpu6050_dmp.c ****         break;
 711:Src/mpu6050_dmp.c ****     case 16:
 712:Src/mpu6050_dmp.c ****         dmp_thresh = (unsigned short)(scaled_thresh * 2048);
ARM GAS  /tmp/ccW0iIf7.s 			page 14


 713:Src/mpu6050_dmp.c ****         /* dmp_thresh * 0.75 */
 714:Src/mpu6050_dmp.c ****         dmp_thresh_2 = (unsigned short)(scaled_thresh * 1536);
 715:Src/mpu6050_dmp.c ****         break;
 716:Src/mpu6050_dmp.c ****     default:
 717:Src/mpu6050_dmp.c ****         return -1;
 718:Src/mpu6050_dmp.c ****     }
 719:Src/mpu6050_dmp.c ****     tmp[0] = (unsigned char)(dmp_thresh >> 8);
 720:Src/mpu6050_dmp.c ****     tmp[1] = (unsigned char)(dmp_thresh & 0xFF);
 721:Src/mpu6050_dmp.c ****     tmp[2] = (unsigned char)(dmp_thresh_2 >> 8);
 722:Src/mpu6050_dmp.c ****     tmp[3] = (unsigned char)(dmp_thresh_2 & 0xFF);
 723:Src/mpu6050_dmp.c **** 
 724:Src/mpu6050_dmp.c ****     if (axis & TAP_X) {
 725:Src/mpu6050_dmp.c ****         if (mpu_write_mem(DMP_TAP_THX, 2, tmp))
 726:Src/mpu6050_dmp.c ****             return -1;
 727:Src/mpu6050_dmp.c ****         if (mpu_write_mem(D_1_36, 2, tmp+2))
 728:Src/mpu6050_dmp.c ****             return -1;
 729:Src/mpu6050_dmp.c ****     }
 730:Src/mpu6050_dmp.c ****     if (axis & TAP_Y) {
 731:Src/mpu6050_dmp.c ****         if (mpu_write_mem(DMP_TAP_THY, 2, tmp))
 732:Src/mpu6050_dmp.c ****             return -1;
 733:Src/mpu6050_dmp.c ****         if (mpu_write_mem(D_1_40, 2, tmp+2))
 734:Src/mpu6050_dmp.c ****             return -1;
 735:Src/mpu6050_dmp.c ****     }
 736:Src/mpu6050_dmp.c ****     if (axis & TAP_Z) {
 737:Src/mpu6050_dmp.c ****         if (mpu_write_mem(DMP_TAP_THZ, 2, tmp))
 738:Src/mpu6050_dmp.c ****             return -1;
 739:Src/mpu6050_dmp.c ****         if (mpu_write_mem(D_1_44, 2, tmp+2))
 740:Src/mpu6050_dmp.c ****             return -1;
 741:Src/mpu6050_dmp.c ****     }
 742:Src/mpu6050_dmp.c ****     return 0;
 743:Src/mpu6050_dmp.c **** }
 744:Src/mpu6050_dmp.c **** 
 745:Src/mpu6050_dmp.c **** /**
 746:Src/mpu6050_dmp.c ****  *  @brief      Set which axes will register a tap.
 747:Src/mpu6050_dmp.c ****  *  @param[in]  axis    1, 2, and 4 for XYZ, respectively.
 748:Src/mpu6050_dmp.c ****  *  @return     0 if successful.
 749:Src/mpu6050_dmp.c ****  */
 750:Src/mpu6050_dmp.c **** int dmp_set_tap_axes(unsigned char axis)
 751:Src/mpu6050_dmp.c **** {
 752:Src/mpu6050_dmp.c ****     unsigned char tmp = 0;
 753:Src/mpu6050_dmp.c **** 
 754:Src/mpu6050_dmp.c ****     if (axis & TAP_X)
 755:Src/mpu6050_dmp.c ****         tmp |= 0x30;
 756:Src/mpu6050_dmp.c ****     if (axis & TAP_Y)
 757:Src/mpu6050_dmp.c ****         tmp |= 0x0C;
 758:Src/mpu6050_dmp.c ****     if (axis & TAP_Z)
 759:Src/mpu6050_dmp.c ****         tmp |= 0x03;
 760:Src/mpu6050_dmp.c ****     return mpu_write_mem(D_1_72, 1, &tmp);
 761:Src/mpu6050_dmp.c **** }
 762:Src/mpu6050_dmp.c **** 
 763:Src/mpu6050_dmp.c **** /**
 764:Src/mpu6050_dmp.c ****  *  @brief      Set minimum number of taps needed for an interrupt.
 765:Src/mpu6050_dmp.c ****  *  @param[in]  min_taps    Minimum consecutive taps (1-4).
 766:Src/mpu6050_dmp.c ****  *  @return     0 if successful.
 767:Src/mpu6050_dmp.c ****  */
 768:Src/mpu6050_dmp.c **** int dmp_set_tap_count(unsigned char min_taps)
 769:Src/mpu6050_dmp.c **** {
ARM GAS  /tmp/ccW0iIf7.s 			page 15


 770:Src/mpu6050_dmp.c ****     unsigned char tmp;
 771:Src/mpu6050_dmp.c **** 
 772:Src/mpu6050_dmp.c ****     if (min_taps < 1)
 773:Src/mpu6050_dmp.c ****         min_taps = 1;
 774:Src/mpu6050_dmp.c ****     else if (min_taps > 4)
 775:Src/mpu6050_dmp.c ****         min_taps = 4;
 776:Src/mpu6050_dmp.c **** 
 777:Src/mpu6050_dmp.c ****     tmp = min_taps - 1;
 778:Src/mpu6050_dmp.c ****     return mpu_write_mem(D_1_79, 1, &tmp);
 779:Src/mpu6050_dmp.c **** }
 780:Src/mpu6050_dmp.c **** 
 781:Src/mpu6050_dmp.c **** /**
 782:Src/mpu6050_dmp.c ****  *  @brief      Set length between valid taps.
 783:Src/mpu6050_dmp.c ****  *  @param[in]  time    Milliseconds between taps.
 784:Src/mpu6050_dmp.c ****  *  @return     0 if successful.
 785:Src/mpu6050_dmp.c ****  */
 786:Src/mpu6050_dmp.c **** int dmp_set_tap_time(unsigned short time)
 787:Src/mpu6050_dmp.c **** {
 788:Src/mpu6050_dmp.c ****     unsigned short dmp_time;
 789:Src/mpu6050_dmp.c ****     unsigned char tmp[2];
 790:Src/mpu6050_dmp.c **** 
 791:Src/mpu6050_dmp.c ****     dmp_time = time / (1000 / DMP_SAMPLE_RATE);
 792:Src/mpu6050_dmp.c ****     tmp[0] = (unsigned char)(dmp_time >> 8);
 793:Src/mpu6050_dmp.c ****     tmp[1] = (unsigned char)(dmp_time & 0xFF);
 794:Src/mpu6050_dmp.c ****     return mpu_write_mem(DMP_TAPW_MIN, 2, tmp);
 795:Src/mpu6050_dmp.c **** }
 796:Src/mpu6050_dmp.c **** 
 797:Src/mpu6050_dmp.c **** /**
 798:Src/mpu6050_dmp.c ****  *  @brief      Set max time between taps to register as a multi-tap.
 799:Src/mpu6050_dmp.c ****  *  @param[in]  time    Max milliseconds between taps.
 800:Src/mpu6050_dmp.c ****  *  @return     0 if successful.
 801:Src/mpu6050_dmp.c ****  */
 802:Src/mpu6050_dmp.c **** int dmp_set_tap_time_multi(unsigned short time)
 803:Src/mpu6050_dmp.c **** {
 804:Src/mpu6050_dmp.c ****     unsigned short dmp_time;
 805:Src/mpu6050_dmp.c ****     unsigned char tmp[2];
 806:Src/mpu6050_dmp.c **** 
 807:Src/mpu6050_dmp.c ****     dmp_time = time / (1000 / DMP_SAMPLE_RATE);
 808:Src/mpu6050_dmp.c ****     tmp[0] = (unsigned char)(dmp_time >> 8);
 809:Src/mpu6050_dmp.c ****     tmp[1] = (unsigned char)(dmp_time & 0xFF);
 810:Src/mpu6050_dmp.c ****     return mpu_write_mem(D_1_218, 2, tmp);
 811:Src/mpu6050_dmp.c **** }
 812:Src/mpu6050_dmp.c **** 
 813:Src/mpu6050_dmp.c **** /**
 814:Src/mpu6050_dmp.c ****  *  @brief      Set shake rejection threshold.
 815:Src/mpu6050_dmp.c ****  *  If the DMP detects a gyro sample larger than @e thresh, taps are rejected.
 816:Src/mpu6050_dmp.c ****  *  @param[in]  sf      Gyro scale factor.
 817:Src/mpu6050_dmp.c ****  *  @param[in]  thresh  Gyro threshold in dps.
 818:Src/mpu6050_dmp.c ****  *  @return     0 if successful.
 819:Src/mpu6050_dmp.c ****  */
 820:Src/mpu6050_dmp.c **** int dmp_set_shake_reject_thresh(long sf, unsigned short thresh)
 821:Src/mpu6050_dmp.c **** {
 822:Src/mpu6050_dmp.c ****     unsigned char tmp[4];
 823:Src/mpu6050_dmp.c ****     long thresh_scaled = sf / 1000 * thresh;
 824:Src/mpu6050_dmp.c ****     tmp[0] = (unsigned char)(((long)thresh_scaled >> 24) & 0xFF);
 825:Src/mpu6050_dmp.c ****     tmp[1] = (unsigned char)(((long)thresh_scaled >> 16) & 0xFF);
 826:Src/mpu6050_dmp.c ****     tmp[2] = (unsigned char)(((long)thresh_scaled >> 8) & 0xFF);
ARM GAS  /tmp/ccW0iIf7.s 			page 16


 827:Src/mpu6050_dmp.c ****     tmp[3] = (unsigned char)((long)thresh_scaled & 0xFF);
 828:Src/mpu6050_dmp.c ****     return mpu_write_mem(D_1_92, 4, tmp);
 829:Src/mpu6050_dmp.c **** }
 830:Src/mpu6050_dmp.c **** 
 831:Src/mpu6050_dmp.c **** /**
 832:Src/mpu6050_dmp.c ****  *  @brief      Set shake rejection time.
 833:Src/mpu6050_dmp.c ****  *  Sets the length of time that the gyro must be outside of the threshold set
 834:Src/mpu6050_dmp.c ****  *  by @e gyro_set_shake_reject_thresh before taps are rejected. A mandatory
 835:Src/mpu6050_dmp.c ****  *  60 ms is added to this parameter.
 836:Src/mpu6050_dmp.c ****  *  @param[in]  time    Time in milliseconds.
 837:Src/mpu6050_dmp.c ****  *  @return     0 if successful.
 838:Src/mpu6050_dmp.c ****  */
 839:Src/mpu6050_dmp.c **** int dmp_set_shake_reject_time(unsigned short time)
 840:Src/mpu6050_dmp.c **** {
 841:Src/mpu6050_dmp.c ****     unsigned char tmp[2];
 842:Src/mpu6050_dmp.c **** 
 843:Src/mpu6050_dmp.c ****     time /= (1000 / DMP_SAMPLE_RATE);
 844:Src/mpu6050_dmp.c ****     tmp[0] = time >> 8;
 845:Src/mpu6050_dmp.c ****     tmp[1] = time & 0xFF;
 846:Src/mpu6050_dmp.c ****     return mpu_write_mem(D_1_90,2,tmp);
 847:Src/mpu6050_dmp.c **** }
 848:Src/mpu6050_dmp.c **** 
 849:Src/mpu6050_dmp.c **** /**
 850:Src/mpu6050_dmp.c ****  *  @brief      Set shake rejection timeout.
 851:Src/mpu6050_dmp.c ****  *  Sets the length of time after a shake rejection that the gyro must stay
 852:Src/mpu6050_dmp.c ****  *  inside of the threshold before taps can be detected again. A mandatory
 853:Src/mpu6050_dmp.c ****  *  60 ms is added to this parameter.
 854:Src/mpu6050_dmp.c ****  *  @param[in]  time    Time in milliseconds.
 855:Src/mpu6050_dmp.c ****  *  @return     0 if successful.
 856:Src/mpu6050_dmp.c ****  */
 857:Src/mpu6050_dmp.c **** int dmp_set_shake_reject_timeout(unsigned short time)
 858:Src/mpu6050_dmp.c **** {
 859:Src/mpu6050_dmp.c ****     unsigned char tmp[2];
 860:Src/mpu6050_dmp.c **** 
 861:Src/mpu6050_dmp.c ****     time /= (1000 / DMP_SAMPLE_RATE);
 862:Src/mpu6050_dmp.c ****     tmp[0] = time >> 8;
 863:Src/mpu6050_dmp.c ****     tmp[1] = time & 0xFF;
 864:Src/mpu6050_dmp.c ****     return mpu_write_mem(D_1_88,2,tmp);
 865:Src/mpu6050_dmp.c **** }
 866:Src/mpu6050_dmp.c **** 
 867:Src/mpu6050_dmp.c **** /**
 868:Src/mpu6050_dmp.c ****  *  @brief      Get current step count.
 869:Src/mpu6050_dmp.c ****  *  @param[out] count   Number of steps detected.
 870:Src/mpu6050_dmp.c ****  *  @return     0 if successful.
 871:Src/mpu6050_dmp.c ****  */
 872:Src/mpu6050_dmp.c **** int dmp_get_pedometer_step_count(unsigned long *count)
 873:Src/mpu6050_dmp.c **** {
 874:Src/mpu6050_dmp.c ****     unsigned char tmp[4];
 875:Src/mpu6050_dmp.c ****     if (!count)
 876:Src/mpu6050_dmp.c ****         return -1;
 877:Src/mpu6050_dmp.c **** 
 878:Src/mpu6050_dmp.c ****     if (mpu_read_mem(D_PEDSTD_STEPCTR, 4, tmp))
 879:Src/mpu6050_dmp.c ****         return -1;
 880:Src/mpu6050_dmp.c **** 
 881:Src/mpu6050_dmp.c ****     count[0] = ((unsigned long)tmp[0] << 24) | ((unsigned long)tmp[1] << 16) |
 882:Src/mpu6050_dmp.c ****         ((unsigned long)tmp[2] << 8) | tmp[3];
 883:Src/mpu6050_dmp.c ****     return 0;
ARM GAS  /tmp/ccW0iIf7.s 			page 17


 884:Src/mpu6050_dmp.c **** }
 885:Src/mpu6050_dmp.c **** 
 886:Src/mpu6050_dmp.c **** /**
 887:Src/mpu6050_dmp.c ****  *  @brief      Overwrite current step count.
 888:Src/mpu6050_dmp.c ****  *  WARNING: This function writes to DMP memory and could potentially encounter
 889:Src/mpu6050_dmp.c ****  *  a race condition if called while the pedometer is enabled.
 890:Src/mpu6050_dmp.c ****  *  @param[in]  count   New step count.
 891:Src/mpu6050_dmp.c ****  *  @return     0 if successful.
 892:Src/mpu6050_dmp.c ****  */
 893:Src/mpu6050_dmp.c **** int dmp_set_pedometer_step_count(unsigned long count)
 894:Src/mpu6050_dmp.c **** {
 895:Src/mpu6050_dmp.c ****     unsigned char tmp[4];
 896:Src/mpu6050_dmp.c **** 
 897:Src/mpu6050_dmp.c ****     tmp[0] = (unsigned char)((count >> 24) & 0xFF);
 898:Src/mpu6050_dmp.c ****     tmp[1] = (unsigned char)((count >> 16) & 0xFF);
 899:Src/mpu6050_dmp.c ****     tmp[2] = (unsigned char)((count >> 8) & 0xFF);
 900:Src/mpu6050_dmp.c ****     tmp[3] = (unsigned char)(count & 0xFF);
 901:Src/mpu6050_dmp.c ****     return mpu_write_mem(D_PEDSTD_STEPCTR, 4, tmp);
 902:Src/mpu6050_dmp.c **** }
 903:Src/mpu6050_dmp.c **** 
 904:Src/mpu6050_dmp.c **** /**
 905:Src/mpu6050_dmp.c ****  *  @brief      Get duration of walking time.
 906:Src/mpu6050_dmp.c ****  *  @param[in]  time    Walk time in milliseconds.
 907:Src/mpu6050_dmp.c ****  *  @return     0 if successful.
 908:Src/mpu6050_dmp.c ****  */
 909:Src/mpu6050_dmp.c **** int dmp_get_pedometer_walk_time(unsigned long *time)
 910:Src/mpu6050_dmp.c **** {
 911:Src/mpu6050_dmp.c ****     unsigned char tmp[4];
 912:Src/mpu6050_dmp.c ****     if (!time)
 913:Src/mpu6050_dmp.c ****         return -1;
 914:Src/mpu6050_dmp.c **** 
 915:Src/mpu6050_dmp.c ****     if (mpu_read_mem(D_PEDSTD_TIMECTR, 4, tmp))
 916:Src/mpu6050_dmp.c ****         return -1;
 917:Src/mpu6050_dmp.c **** 
 918:Src/mpu6050_dmp.c ****     time[0] = (((unsigned long)tmp[0] << 24) | ((unsigned long)tmp[1] << 16) |
 919:Src/mpu6050_dmp.c ****         ((unsigned long)tmp[2] << 8) | tmp[3]) * 20;
 920:Src/mpu6050_dmp.c ****     return 0;
 921:Src/mpu6050_dmp.c **** }
 922:Src/mpu6050_dmp.c **** 
 923:Src/mpu6050_dmp.c **** /**
 924:Src/mpu6050_dmp.c ****  *  @brief      Overwrite current walk time.
 925:Src/mpu6050_dmp.c ****  *  WARNING: This function writes to DMP memory and could potentially encounter
 926:Src/mpu6050_dmp.c ****  *  a race condition if called while the pedometer is enabled.
 927:Src/mpu6050_dmp.c ****  *  @param[in]  time    New walk time in milliseconds.
 928:Src/mpu6050_dmp.c ****  */
 929:Src/mpu6050_dmp.c **** int dmp_set_pedometer_walk_time(unsigned long time)
 930:Src/mpu6050_dmp.c **** {
 931:Src/mpu6050_dmp.c ****     unsigned char tmp[4];
 932:Src/mpu6050_dmp.c **** 
 933:Src/mpu6050_dmp.c ****     time /= 20;
 934:Src/mpu6050_dmp.c **** 
 935:Src/mpu6050_dmp.c ****     tmp[0] = (unsigned char)((time >> 24) & 0xFF);
 936:Src/mpu6050_dmp.c ****     tmp[1] = (unsigned char)((time >> 16) & 0xFF);
 937:Src/mpu6050_dmp.c ****     tmp[2] = (unsigned char)((time >> 8) & 0xFF);
 938:Src/mpu6050_dmp.c ****     tmp[3] = (unsigned char)(time & 0xFF);
 939:Src/mpu6050_dmp.c ****     return mpu_write_mem(D_PEDSTD_TIMECTR, 4, tmp);
 940:Src/mpu6050_dmp.c **** }
ARM GAS  /tmp/ccW0iIf7.s 			page 18


 941:Src/mpu6050_dmp.c **** 
 942:Src/mpu6050_dmp.c **** /**
 943:Src/mpu6050_dmp.c ****  *  @brief      Enable DMP features.
 944:Src/mpu6050_dmp.c ****  *  The following \#define's are used in the input mask:
 945:Src/mpu6050_dmp.c ****  *  \n DMP_FEATURE_TAP
 946:Src/mpu6050_dmp.c ****  *  \n DMP_FEATURE_ANDROID_ORIENT
 947:Src/mpu6050_dmp.c ****  *  \n DMP_FEATURE_LP_QUAT
 948:Src/mpu6050_dmp.c ****  *  \n DMP_FEATURE_6X_LP_QUAT
 949:Src/mpu6050_dmp.c ****  *  \n DMP_FEATURE_GYRO_CAL
 950:Src/mpu6050_dmp.c ****  *  \n DMP_FEATURE_SEND_RAW_ACCEL
 951:Src/mpu6050_dmp.c ****  *  \n DMP_FEATURE_SEND_RAW_GYRO
 952:Src/mpu6050_dmp.c ****  *  \n NOTE: DMP_FEATURE_LP_QUAT and DMP_FEATURE_6X_LP_QUAT are mutually exclusive.
 953:Src/mpu6050_dmp.c ****  *  \n NOTE: DMP_FEATURE_SEND_RAW_GYRO and DMP_FEATURE_SEND_CAL_GYRO are also mutually exclusive.
 954:Src/mpu6050_dmp.c ****  *  @param[in]  mask    Mask of features to enable.
 955:Src/mpu6050_dmp.c ****  *  @return     0 if successful.
 956:Src/mpu6050_dmp.c ****  */
 957:Src/mpu6050_dmp.c **** int dmp_enable_feature(unsigned short mask)
 958:Src/mpu6050_dmp.c **** {
 959:Src/mpu6050_dmp.c ****     unsigned char tmp[10];
 960:Src/mpu6050_dmp.c **** 
 961:Src/mpu6050_dmp.c ****     /* TODO: All of these settings can probably be integrated into the default
 962:Src/mpu6050_dmp.c ****      * DMP image.
 963:Src/mpu6050_dmp.c ****      */
 964:Src/mpu6050_dmp.c ****     /* Set integration scale factor. */
 965:Src/mpu6050_dmp.c ****     tmp[0] = (unsigned char)((GYRO_SF >> 24) & 0xFF);
 966:Src/mpu6050_dmp.c ****     tmp[1] = (unsigned char)((GYRO_SF >> 16) & 0xFF);
 967:Src/mpu6050_dmp.c ****     tmp[2] = (unsigned char)((GYRO_SF >> 8) & 0xFF);
 968:Src/mpu6050_dmp.c ****     tmp[3] = (unsigned char)(GYRO_SF & 0xFF);
 969:Src/mpu6050_dmp.c ****     mpu_write_mem(D_0_104, 4, tmp);
 970:Src/mpu6050_dmp.c **** 
 971:Src/mpu6050_dmp.c ****     /* Send sensor data to the FIFO. */
 972:Src/mpu6050_dmp.c ****     tmp[0] = 0xA3;
 973:Src/mpu6050_dmp.c ****     if (mask & DMP_FEATURE_SEND_RAW_ACCEL) {
 974:Src/mpu6050_dmp.c ****         tmp[1] = 0xC0;
 975:Src/mpu6050_dmp.c ****         tmp[2] = 0xC8;
 976:Src/mpu6050_dmp.c ****         tmp[3] = 0xC2;
 977:Src/mpu6050_dmp.c ****     } else {
 978:Src/mpu6050_dmp.c ****         tmp[1] = 0xA3;
 979:Src/mpu6050_dmp.c ****         tmp[2] = 0xA3;
 980:Src/mpu6050_dmp.c ****         tmp[3] = 0xA3;
 981:Src/mpu6050_dmp.c ****     }
 982:Src/mpu6050_dmp.c ****     if (mask & DMP_FEATURE_SEND_ANY_GYRO) {
 983:Src/mpu6050_dmp.c ****         tmp[4] = 0xC4;
 984:Src/mpu6050_dmp.c ****         tmp[5] = 0xCC;
 985:Src/mpu6050_dmp.c ****         tmp[6] = 0xC6;
 986:Src/mpu6050_dmp.c ****     } else {
 987:Src/mpu6050_dmp.c ****         tmp[4] = 0xA3;
 988:Src/mpu6050_dmp.c ****         tmp[5] = 0xA3;
 989:Src/mpu6050_dmp.c ****         tmp[6] = 0xA3;
 990:Src/mpu6050_dmp.c ****     }
 991:Src/mpu6050_dmp.c ****     tmp[7] = 0xA3;
 992:Src/mpu6050_dmp.c ****     tmp[8] = 0xA3;
 993:Src/mpu6050_dmp.c ****     tmp[9] = 0xA3;
 994:Src/mpu6050_dmp.c ****     mpu_write_mem(CFG_15,10,tmp);
 995:Src/mpu6050_dmp.c **** 
 996:Src/mpu6050_dmp.c ****     /* Send gesture data to the FIFO. */
 997:Src/mpu6050_dmp.c ****     if (mask & (DMP_FEATURE_TAP | DMP_FEATURE_ANDROID_ORIENT))
ARM GAS  /tmp/ccW0iIf7.s 			page 19


 998:Src/mpu6050_dmp.c ****         tmp[0] = DINA20;
 999:Src/mpu6050_dmp.c ****     else
1000:Src/mpu6050_dmp.c ****         tmp[0] = 0xD8;
1001:Src/mpu6050_dmp.c ****     mpu_write_mem(CFG_27,1,tmp);
1002:Src/mpu6050_dmp.c **** 
1003:Src/mpu6050_dmp.c ****     if (mask & DMP_FEATURE_GYRO_CAL)
1004:Src/mpu6050_dmp.c ****         dmp_enable_gyro_cal(1);
1005:Src/mpu6050_dmp.c ****     else
1006:Src/mpu6050_dmp.c ****         dmp_enable_gyro_cal(0);
1007:Src/mpu6050_dmp.c **** 
1008:Src/mpu6050_dmp.c ****     if (mask & DMP_FEATURE_SEND_ANY_GYRO) {
1009:Src/mpu6050_dmp.c ****         if (mask & DMP_FEATURE_SEND_CAL_GYRO) {
1010:Src/mpu6050_dmp.c ****             tmp[0] = 0xB2;
1011:Src/mpu6050_dmp.c ****             tmp[1] = 0x8B;
1012:Src/mpu6050_dmp.c ****             tmp[2] = 0xB6;
1013:Src/mpu6050_dmp.c ****             tmp[3] = 0x9B;
1014:Src/mpu6050_dmp.c ****         } else {
1015:Src/mpu6050_dmp.c ****             tmp[0] = DINAC0;
1016:Src/mpu6050_dmp.c ****             tmp[1] = DINA80;
1017:Src/mpu6050_dmp.c ****             tmp[2] = DINAC2;
1018:Src/mpu6050_dmp.c ****             tmp[3] = DINA90;
1019:Src/mpu6050_dmp.c ****         }
1020:Src/mpu6050_dmp.c ****         mpu_write_mem(CFG_GYRO_RAW_DATA, 4, tmp);
1021:Src/mpu6050_dmp.c ****     }
1022:Src/mpu6050_dmp.c **** 
1023:Src/mpu6050_dmp.c ****     if (mask & DMP_FEATURE_TAP) {
1024:Src/mpu6050_dmp.c ****         /* Enable tap. */
1025:Src/mpu6050_dmp.c ****         tmp[0] = 0xF8;
1026:Src/mpu6050_dmp.c ****         mpu_write_mem(CFG_20, 1, tmp);
1027:Src/mpu6050_dmp.c ****         dmp_set_tap_thresh(DMP_TAP_AXES, DMP_TAP_THRESH);
1028:Src/mpu6050_dmp.c ****         dmp_set_tap_axes(DMP_TAP_AXES);
1029:Src/mpu6050_dmp.c ****         dmp_set_tap_count(DMP_TAP_COUNT);
1030:Src/mpu6050_dmp.c ****         dmp_set_tap_time(DMP_TAP_TIME);
1031:Src/mpu6050_dmp.c ****         dmp_set_tap_time_multi(DMP_TAP_TIME_MULTI);
1032:Src/mpu6050_dmp.c **** 
1033:Src/mpu6050_dmp.c ****         dmp_set_shake_reject_thresh(GYRO_SF, DMP_SHAKE_REJECT_THRESH);
1034:Src/mpu6050_dmp.c ****         dmp_set_shake_reject_time(DMP_SHAKE_REJECT_TIME);
1035:Src/mpu6050_dmp.c ****         dmp_set_shake_reject_timeout(DMP_SHAKE_REJECT_TIMEOUT);
1036:Src/mpu6050_dmp.c ****     } else {
1037:Src/mpu6050_dmp.c ****         tmp[0] = 0xD8;
1038:Src/mpu6050_dmp.c ****         mpu_write_mem(CFG_20, 1, tmp);
1039:Src/mpu6050_dmp.c ****     }
1040:Src/mpu6050_dmp.c **** 
1041:Src/mpu6050_dmp.c ****     if (mask & DMP_FEATURE_ANDROID_ORIENT) {
1042:Src/mpu6050_dmp.c ****         tmp[0] = 0xD9;
1043:Src/mpu6050_dmp.c ****     } else
1044:Src/mpu6050_dmp.c ****         tmp[0] = 0xD8;
1045:Src/mpu6050_dmp.c ****     mpu_write_mem(CFG_ANDROID_ORIENT_INT, 1, tmp);
1046:Src/mpu6050_dmp.c **** 
1047:Src/mpu6050_dmp.c ****     if (mask & DMP_FEATURE_LP_QUAT)
1048:Src/mpu6050_dmp.c ****         dmp_enable_lp_quat(1);
1049:Src/mpu6050_dmp.c ****     else
1050:Src/mpu6050_dmp.c ****         dmp_enable_lp_quat(0);
1051:Src/mpu6050_dmp.c **** 
1052:Src/mpu6050_dmp.c ****     if (mask & DMP_FEATURE_6X_LP_QUAT)
1053:Src/mpu6050_dmp.c ****         dmp_enable_6x_lp_quat(1);
1054:Src/mpu6050_dmp.c ****     else
ARM GAS  /tmp/ccW0iIf7.s 			page 20


1055:Src/mpu6050_dmp.c ****         dmp_enable_6x_lp_quat(0);
1056:Src/mpu6050_dmp.c **** 
1057:Src/mpu6050_dmp.c ****     /* Pedometer is always enabled. */
1058:Src/mpu6050_dmp.c ****     dmp.feature_mask = mask | DMP_FEATURE_PEDOMETER;
1059:Src/mpu6050_dmp.c ****     mpu_reset_fifo();
1060:Src/mpu6050_dmp.c **** 
1061:Src/mpu6050_dmp.c ****     dmp.packet_length = 0;
1062:Src/mpu6050_dmp.c ****     if (mask & DMP_FEATURE_SEND_RAW_ACCEL)
1063:Src/mpu6050_dmp.c ****         dmp.packet_length += 6;
1064:Src/mpu6050_dmp.c ****     if (mask & DMP_FEATURE_SEND_ANY_GYRO)
1065:Src/mpu6050_dmp.c ****         dmp.packet_length += 6;
1066:Src/mpu6050_dmp.c ****     if (mask & (DMP_FEATURE_LP_QUAT | DMP_FEATURE_6X_LP_QUAT))
1067:Src/mpu6050_dmp.c ****         dmp.packet_length += 16;
1068:Src/mpu6050_dmp.c ****     if (mask & (DMP_FEATURE_TAP | DMP_FEATURE_ANDROID_ORIENT))
1069:Src/mpu6050_dmp.c ****         dmp.packet_length += 4;
1070:Src/mpu6050_dmp.c **** 
1071:Src/mpu6050_dmp.c ****     return 0;
1072:Src/mpu6050_dmp.c **** }
1073:Src/mpu6050_dmp.c **** 
1074:Src/mpu6050_dmp.c **** /**
1075:Src/mpu6050_dmp.c ****  *  @brief      Get list of currently enabled DMP features.
1076:Src/mpu6050_dmp.c ****  *  @param[out] Mask of enabled features.
1077:Src/mpu6050_dmp.c ****  *  @return     0 if successful.
1078:Src/mpu6050_dmp.c ****  */
1079:Src/mpu6050_dmp.c **** int dmp_get_enabled_features(unsigned short *mask)
1080:Src/mpu6050_dmp.c **** {
1081:Src/mpu6050_dmp.c ****     mask[0] = dmp.feature_mask;
1082:Src/mpu6050_dmp.c ****     return 0;
1083:Src/mpu6050_dmp.c **** }
1084:Src/mpu6050_dmp.c **** 
1085:Src/mpu6050_dmp.c **** /**
1086:Src/mpu6050_dmp.c ****  *  @brief      Calibrate the gyro data in the DMP.
1087:Src/mpu6050_dmp.c ****  *  After eight seconds of no motion, the DMP will compute gyro biases and
1088:Src/mpu6050_dmp.c ****  *  subtract them from the quaternion output. If @e dmp_enable_feature is
1089:Src/mpu6050_dmp.c ****  *  called with @e DMP_FEATURE_SEND_CAL_GYRO, the biases will also be
1090:Src/mpu6050_dmp.c ****  *  subtracted from the gyro output.
1091:Src/mpu6050_dmp.c ****  *  @param[in]  enable  1 to enable gyro calibration.
1092:Src/mpu6050_dmp.c ****  *  @return     0 if successful.
1093:Src/mpu6050_dmp.c ****  */
1094:Src/mpu6050_dmp.c **** int dmp_enable_gyro_cal(unsigned char enable)
  29              		.loc 1 1094 5 view -0
  30              		.cfi_startproc
  31              		@ args = 0, pretend = 0, frame = 16
  32              		@ frame_needed = 0, uses_anonymous_args = 0
  33              	.LVL0:
  34              	.LBB8:
1095:Src/mpu6050_dmp.c **** {
1096:Src/mpu6050_dmp.c ****     if (enable) {
1097:Src/mpu6050_dmp.c ****         unsigned char regs[9] = {0xb8, 0xaa, 0xb3, 0x8d, 0xb4, 0x98, 0x0d, 0x35, 0x5d};
  35              		.loc 1 1097 9 view .LVU1
  36              	.LBE8:
1094:Src/mpu6050_dmp.c **** {
  37              		.loc 1 1094 5 is_stmt 0 view .LVU2
  38 0000 1FB5     		push	{r0, r1, r2, r3, r4, lr}
  39              	.LCFI0:
  40              		.cfi_def_cfa_offset 24
  41              		.cfi_offset 14, -4
ARM GAS  /tmp/ccW0iIf7.s 			page 21


  42              	.LBB9:
  43              		.loc 1 1097 23 view .LVU3
  44 0002 084A     		ldr	r2, .L2
  45 0004 01AB     		add	r3, sp, #4
  46 0006 1068     		ldr	r0, [r2]	@ unaligned
  47 0008 5168     		ldr	r1, [r2, #4]	@ unaligned
  48 000a 127A     		ldrb	r2, [r2, #8]	@ zero_extendqisi2
  49 000c 03C3     		stmia	r3!, {r0, r1}
1098:Src/mpu6050_dmp.c ****         return mpu_write_mem(CFG_MOTION_BIAS, 9, regs);
  50              		.loc 1 1098 16 view .LVU4
  51 000e 0921     		movs	r1, #9
1097:Src/mpu6050_dmp.c ****         return mpu_write_mem(CFG_MOTION_BIAS, 9, regs);
  52              		.loc 1 1097 23 view .LVU5
  53 0010 1A70     		strb	r2, [r3]
  54              		.loc 1 1098 9 is_stmt 1 view .LVU6
  55              		.loc 1 1098 16 is_stmt 0 view .LVU7
  56 0012 4FF49760 		mov	r0, #1208
  57 0016 01AA     		add	r2, sp, #4
  58 0018 FFF7FEFF 		bl	mpu_write_mem
  59              	.LVL1:
  60              	.LBE9:
1099:Src/mpu6050_dmp.c ****     } else {
1100:Src/mpu6050_dmp.c ****         unsigned char regs[9] = {0xb8, 0xaa, 0xaa, 0xaa, 0xb0, 0x88, 0xc3, 0xc5, 0xc7};
1101:Src/mpu6050_dmp.c ****         return mpu_write_mem(CFG_MOTION_BIAS, 9, regs);
1102:Src/mpu6050_dmp.c ****     }
1103:Src/mpu6050_dmp.c **** }
  61              		.loc 1 1103 1 view .LVU8
  62 001c 05B0     		add	sp, sp, #20
  63              	.LCFI1:
  64              		.cfi_def_cfa_offset 4
  65              		@ sp needed
  66 001e 5DF804FB 		ldr	pc, [sp], #4
  67              	.L3:
  68 0022 00BF     		.align	2
  69              	.L2:
  70 0024 00000000 		.word	.LC0
  71              		.cfi_endproc
  72              	.LFE87:
  74              		.section	.text.dmp_load_motion_driver_firmware,"ax",%progbits
  75              		.align	1
  76              		.global	dmp_load_motion_driver_firmware
  77              		.syntax unified
  78              		.thumb
  79              		.thumb_func
  80              		.fpu softvfp
  82              	dmp_load_motion_driver_firmware:
  83              	.LFB59:
 475:Src/mpu6050_dmp.c ****     return mpu_load_firmware(DMP_CODE_SIZE, dmp_memory, sStartAddress,
  84              		.loc 1 475 1 is_stmt 1 view -0
  85              		.cfi_startproc
  86              		@ args = 0, pretend = 0, frame = 0
  87              		@ frame_needed = 0, uses_anonymous_args = 0
  88              		@ link register save eliminated.
 476:Src/mpu6050_dmp.c ****         DMP_SAMPLE_RATE);
  89              		.loc 1 476 5 view .LVU10
 476:Src/mpu6050_dmp.c ****         DMP_SAMPLE_RATE);
  90              		.loc 1 476 12 is_stmt 0 view .LVU11
ARM GAS  /tmp/ccW0iIf7.s 			page 22


  91 0000 C823     		movs	r3, #200
  92 0002 4FF48062 		mov	r2, #1024
  93 0006 40F6F630 		movw	r0, #3062
  94 000a 0149     		ldr	r1, .L5
  95 000c FFF7FEBF 		b	mpu_load_firmware
  96              	.LVL2:
  97              	.L6:
  98              		.align	2
  99              	.L5:
 100 0010 00000000 		.word	.LANCHOR0
 101              		.cfi_endproc
 102              	.LFE59:
 104              		.section	.rodata.dmp_set_orientation.str1.1,"aMS",%progbits,1
 105              	.LC1:
 106 0000 4CCD6C00 		.ascii	"L\315l\000"
 107              	.LC2:
 108 0004 0CC92C00 		.ascii	"\014\311,\000"
 109              	.LC3:
 110 0008 36567600 		.ascii	"6Vv\000"
 111              	.LC4:
 112 000c 26466600 		.ascii	"&Ff\000"
 113              		.section	.text.dmp_set_orientation,"ax",%progbits
 114              		.align	1
 115              		.global	dmp_set_orientation
 116              		.syntax unified
 117              		.thumb
 118              		.thumb_func
 119              		.fpu softvfp
 121              	dmp_set_orientation:
 122              	.LVL3:
 123              	.LFB60:
 488:Src/mpu6050_dmp.c ****     unsigned char gyro_regs[3], accel_regs[3];
 124              		.loc 1 488 1 is_stmt 1 view -0
 125              		.cfi_startproc
 126              		@ args = 0, pretend = 0, frame = 24
 127              		@ frame_needed = 0, uses_anonymous_args = 0
 489:Src/mpu6050_dmp.c ****     const unsigned char gyro_axes[3] = {DINA4C, DINACD, DINA6C};
 128              		.loc 1 489 5 view .LVU13
 490:Src/mpu6050_dmp.c ****     const unsigned char accel_axes[3] = {DINA0C, DINAC9, DINA2C};
 129              		.loc 1 490 5 view .LVU14
 488:Src/mpu6050_dmp.c ****     unsigned char gyro_regs[3], accel_regs[3];
 130              		.loc 1 488 1 is_stmt 0 view .LVU15
 131 0000 10B5     		push	{r4, lr}
 132              	.LCFI2:
 133              		.cfi_def_cfa_offset 8
 134              		.cfi_offset 4, -8
 135              		.cfi_offset 14, -4
 490:Src/mpu6050_dmp.c ****     const unsigned char accel_axes[3] = {DINA0C, DINAC9, DINA2C};
 136              		.loc 1 490 25 view .LVU16
 137 0002 4A4B     		ldr	r3, .L23
 488:Src/mpu6050_dmp.c ****     unsigned char gyro_regs[3], accel_regs[3];
 138              		.loc 1 488 1 view .LVU17
 139 0004 86B0     		sub	sp, sp, #24
 140              	.LCFI3:
 141              		.cfi_def_cfa_offset 32
 490:Src/mpu6050_dmp.c ****     const unsigned char accel_axes[3] = {DINA0C, DINAC9, DINA2C};
 142              		.loc 1 490 25 view .LVU18
ARM GAS  /tmp/ccW0iIf7.s 			page 23


 143 0006 1A88     		ldrh	r2, [r3]	@ unaligned
 144 0008 9B78     		ldrb	r3, [r3, #2]	@ zero_extendqisi2
 145 000a ADF80820 		strh	r2, [sp, #8]	@ unaligned
 146 000e 8DF80A30 		strb	r3, [sp, #10]
 491:Src/mpu6050_dmp.c ****     const unsigned char gyro_sign[3] = {DINA36, DINA56, DINA76};
 147              		.loc 1 491 5 is_stmt 1 view .LVU19
 491:Src/mpu6050_dmp.c ****     const unsigned char gyro_sign[3] = {DINA36, DINA56, DINA76};
 148              		.loc 1 491 25 is_stmt 0 view .LVU20
 149 0012 474B     		ldr	r3, .L23+4
 495:Src/mpu6050_dmp.c ****     gyro_regs[1] = gyro_axes[(orient >> 3) & 3];
 150              		.loc 1 495 37 view .LVU21
 151 0014 00F00301 		and	r1, r0, #3
 491:Src/mpu6050_dmp.c ****     const unsigned char gyro_sign[3] = {DINA36, DINA56, DINA76};
 152              		.loc 1 491 25 view .LVU22
 153 0018 1A88     		ldrh	r2, [r3]	@ unaligned
 154 001a 9B78     		ldrb	r3, [r3, #2]	@ zero_extendqisi2
 155 001c ADF80C20 		strh	r2, [sp, #12]	@ unaligned
 156 0020 8DF80E30 		strb	r3, [sp, #14]
 492:Src/mpu6050_dmp.c ****     const unsigned char accel_sign[3] = {DINA26, DINA46, DINA66};
 157              		.loc 1 492 5 is_stmt 1 view .LVU23
 492:Src/mpu6050_dmp.c ****     const unsigned char accel_sign[3] = {DINA26, DINA46, DINA66};
 158              		.loc 1 492 25 is_stmt 0 view .LVU24
 159 0024 434B     		ldr	r3, .L23+8
 488:Src/mpu6050_dmp.c ****     unsigned char gyro_regs[3], accel_regs[3];
 160              		.loc 1 488 1 view .LVU25
 161 0026 0446     		mov	r4, r0
 492:Src/mpu6050_dmp.c ****     const unsigned char accel_sign[3] = {DINA26, DINA46, DINA66};
 162              		.loc 1 492 25 view .LVU26
 163 0028 1A88     		ldrh	r2, [r3]	@ unaligned
 164 002a 9B78     		ldrb	r3, [r3, #2]	@ zero_extendqisi2
 165 002c ADF81020 		strh	r2, [sp, #16]	@ unaligned
 166 0030 8DF81230 		strb	r3, [sp, #18]
 493:Src/mpu6050_dmp.c **** 
 167              		.loc 1 493 5 is_stmt 1 view .LVU27
 493:Src/mpu6050_dmp.c **** 
 168              		.loc 1 493 25 is_stmt 0 view .LVU28
 169 0034 404B     		ldr	r3, .L23+12
 170 0036 1A88     		ldrh	r2, [r3]	@ unaligned
 171 0038 9B78     		ldrb	r3, [r3, #2]	@ zero_extendqisi2
 172 003a ADF81420 		strh	r2, [sp, #20]	@ unaligned
 173 003e 8DF81630 		strb	r3, [sp, #22]
 495:Src/mpu6050_dmp.c ****     gyro_regs[1] = gyro_axes[(orient >> 3) & 3];
 174              		.loc 1 495 5 is_stmt 1 view .LVU29
 495:Src/mpu6050_dmp.c ****     gyro_regs[1] = gyro_axes[(orient >> 3) & 3];
 175              		.loc 1 495 29 is_stmt 0 view .LVU30
 176 0042 01F11803 		add	r3, r1, #24
 177 0046 0DEB0301 		add	r1, sp, r3
 495:Src/mpu6050_dmp.c ****     gyro_regs[1] = gyro_axes[(orient >> 3) & 3];
 178              		.loc 1 495 18 view .LVU31
 179 004a 11F8103C 		ldrb	r3, [r1, #-16]	@ zero_extendqisi2
 496:Src/mpu6050_dmp.c ****     gyro_regs[2] = gyro_axes[(orient >> 6) & 3];
 180              		.loc 1 496 44 view .LVU32
 181 004e C0F3C102 		ubfx	r2, r0, #3, #2
 495:Src/mpu6050_dmp.c ****     gyro_regs[1] = gyro_axes[(orient >> 3) & 3];
 182              		.loc 1 495 18 view .LVU33
 183 0052 8DF80030 		strb	r3, [sp]
 496:Src/mpu6050_dmp.c ****     gyro_regs[2] = gyro_axes[(orient >> 6) & 3];
ARM GAS  /tmp/ccW0iIf7.s 			page 24


 184              		.loc 1 496 5 is_stmt 1 view .LVU34
 496:Src/mpu6050_dmp.c ****     gyro_regs[2] = gyro_axes[(orient >> 6) & 3];
 185              		.loc 1 496 29 is_stmt 0 view .LVU35
 186 0056 02F11803 		add	r3, r2, #24
 187 005a 0DEB0302 		add	r2, sp, r3
 496:Src/mpu6050_dmp.c ****     gyro_regs[2] = gyro_axes[(orient >> 6) & 3];
 188              		.loc 1 496 18 view .LVU36
 189 005e 12F8103C 		ldrb	r3, [r2, #-16]	@ zero_extendqisi2
 498:Src/mpu6050_dmp.c ****     accel_regs[1] = accel_axes[(orient >> 3) & 3];
 190              		.loc 1 498 19 view .LVU37
 191 0062 11F80C1C 		ldrb	r1, [r1, #-12]	@ zero_extendqisi2
 496:Src/mpu6050_dmp.c ****     gyro_regs[2] = gyro_axes[(orient >> 6) & 3];
 192              		.loc 1 496 18 view .LVU38
 193 0066 8DF80130 		strb	r3, [sp, #1]
 497:Src/mpu6050_dmp.c ****     accel_regs[0] = accel_axes[orient & 3];
 194              		.loc 1 497 5 is_stmt 1 view .LVU39
 497:Src/mpu6050_dmp.c ****     accel_regs[0] = accel_axes[orient & 3];
 195              		.loc 1 497 44 is_stmt 0 view .LVU40
 196 006a C0F38113 		ubfx	r3, r0, #6, #2
 497:Src/mpu6050_dmp.c ****     accel_regs[0] = accel_axes[orient & 3];
 197              		.loc 1 497 29 view .LVU41
 198 006e 1833     		adds	r3, r3, #24
 199 0070 6B44     		add	r3, sp, r3
 497:Src/mpu6050_dmp.c ****     accel_regs[0] = accel_axes[orient & 3];
 200              		.loc 1 497 18 view .LVU42
 201 0072 13F8100C 		ldrb	r0, [r3, #-16]	@ zero_extendqisi2
 202              	.LVL4:
 499:Src/mpu6050_dmp.c ****     accel_regs[2] = accel_axes[(orient >> 6) & 3];
 203              		.loc 1 499 19 view .LVU43
 204 0076 12F80C2C 		ldrb	r2, [r2, #-12]	@ zero_extendqisi2
 500:Src/mpu6050_dmp.c **** 
 205              		.loc 1 500 19 view .LVU44
 206 007a 13F80C3C 		ldrb	r3, [r3, #-12]	@ zero_extendqisi2
 497:Src/mpu6050_dmp.c ****     accel_regs[0] = accel_axes[orient & 3];
 207              		.loc 1 497 18 view .LVU45
 208 007e 8DF80200 		strb	r0, [sp, #2]
 498:Src/mpu6050_dmp.c ****     accel_regs[1] = accel_axes[(orient >> 3) & 3];
 209              		.loc 1 498 5 is_stmt 1 view .LVU46
 498:Src/mpu6050_dmp.c ****     accel_regs[1] = accel_axes[(orient >> 3) & 3];
 210              		.loc 1 498 19 is_stmt 0 view .LVU47
 211 0082 8DF80410 		strb	r1, [sp, #4]
 499:Src/mpu6050_dmp.c ****     accel_regs[2] = accel_axes[(orient >> 6) & 3];
 212              		.loc 1 499 5 is_stmt 1 view .LVU48
 499:Src/mpu6050_dmp.c ****     accel_regs[2] = accel_axes[(orient >> 6) & 3];
 213              		.loc 1 499 19 is_stmt 0 view .LVU49
 214 0086 8DF80520 		strb	r2, [sp, #5]
 500:Src/mpu6050_dmp.c **** 
 215              		.loc 1 500 5 is_stmt 1 view .LVU50
 503:Src/mpu6050_dmp.c ****         return -1;
 216              		.loc 1 503 9 is_stmt 0 view .LVU51
 217 008a 0321     		movs	r1, #3
 218 008c 6A46     		mov	r2, sp
 219 008e 40F22640 		movw	r0, #1062
 500:Src/mpu6050_dmp.c **** 
 220              		.loc 1 500 19 view .LVU52
 221 0092 8DF80630 		strb	r3, [sp, #6]
 503:Src/mpu6050_dmp.c ****         return -1;
ARM GAS  /tmp/ccW0iIf7.s 			page 25


 222              		.loc 1 503 5 is_stmt 1 view .LVU53
 503:Src/mpu6050_dmp.c ****         return -1;
 223              		.loc 1 503 9 is_stmt 0 view .LVU54
 224 0096 FFF7FEFF 		bl	mpu_write_mem
 225              	.LVL5:
 503:Src/mpu6050_dmp.c ****         return -1;
 226              		.loc 1 503 8 view .LVU55
 227 009a 18B1     		cbz	r0, .L8
 228              	.L10:
 504:Src/mpu6050_dmp.c ****     if (mpu_write_mem(FCFG_2, 3, accel_regs))
 229              		.loc 1 504 16 view .LVU56
 230 009c 4FF0FF30 		mov	r0, #-1
 231              	.L7:
 530:Src/mpu6050_dmp.c **** 
 232              		.loc 1 530 1 view .LVU57
 233 00a0 06B0     		add	sp, sp, #24
 234              	.LCFI4:
 235              		.cfi_remember_state
 236              		.cfi_def_cfa_offset 8
 237              		@ sp needed
 238 00a2 10BD     		pop	{r4, pc}
 239              	.L8:
 240              	.LCFI5:
 241              		.cfi_restore_state
 505:Src/mpu6050_dmp.c ****         return -1;
 242              		.loc 1 505 5 is_stmt 1 view .LVU58
 505:Src/mpu6050_dmp.c ****         return -1;
 243              		.loc 1 505 9 is_stmt 0 view .LVU59
 244 00a4 0321     		movs	r1, #3
 245 00a6 40F22A40 		movw	r0, #1066
 246 00aa 01AA     		add	r2, sp, #4
 247 00ac FFF7FEFF 		bl	mpu_write_mem
 248              	.LVL6:
 505:Src/mpu6050_dmp.c ****         return -1;
 249              		.loc 1 505 8 view .LVU60
 250 00b0 0028     		cmp	r0, #0
 251 00b2 F3D1     		bne	.L10
 508:Src/mpu6050_dmp.c ****     memcpy(accel_regs, accel_sign, 3);
 252              		.loc 1 508 5 is_stmt 1 view .LVU61
 253 00b4 049B     		ldr	r3, [sp, #16]
 510:Src/mpu6050_dmp.c ****         gyro_regs[0] |= 1;
 254              		.loc 1 510 8 is_stmt 0 view .LVU62
 255 00b6 6107     		lsls	r1, r4, #29
 508:Src/mpu6050_dmp.c ****     memcpy(accel_regs, accel_sign, 3);
 256              		.loc 1 508 5 view .LVU63
 257 00b8 ADF80030 		strh	r3, [sp]	@ movhi
 258 00bc 4FEA1343 		lsr	r3, r3, #16
 259 00c0 8DF80230 		strb	r3, [sp, #2]
 509:Src/mpu6050_dmp.c ****     if (orient & 4) {
 260              		.loc 1 509 5 is_stmt 1 view .LVU64
 261 00c4 059B     		ldr	r3, [sp, #20]
 524:Src/mpu6050_dmp.c ****         return -1;
 262              		.loc 1 524 9 is_stmt 0 view .LVU65
 263 00c6 4FF00301 		mov	r1, #3
 509:Src/mpu6050_dmp.c ****     if (orient & 4) {
 264              		.loc 1 509 5 view .LVU66
 265 00ca ADF80430 		strh	r3, [sp, #4]	@ movhi
ARM GAS  /tmp/ccW0iIf7.s 			page 26


 266 00ce 4FEA1343 		lsr	r3, r3, #16
 267 00d2 8DF80630 		strb	r3, [sp, #6]
 510:Src/mpu6050_dmp.c ****         gyro_regs[0] |= 1;
 268              		.loc 1 510 5 is_stmt 1 view .LVU67
 511:Src/mpu6050_dmp.c ****         accel_regs[0] |= 1;
 269              		.loc 1 511 9 view .LVU68
 511:Src/mpu6050_dmp.c ****         accel_regs[0] |= 1;
 270              		.loc 1 511 22 is_stmt 0 view .LVU69
 271 00d6 41BF     		itttt	mi
 272 00d8 3723     		movmi	r3, #55
 273 00da 8DF80030 		strbmi	r3, [sp]
 512:Src/mpu6050_dmp.c ****     }
 274              		.loc 1 512 9 is_stmt 1 view .LVU70
 512:Src/mpu6050_dmp.c ****     }
 275              		.loc 1 512 23 is_stmt 0 view .LVU71
 276 00de 2723     		movmi	r3, #39
 277 00e0 8DF80430 		strbmi	r3, [sp, #4]
 514:Src/mpu6050_dmp.c ****         gyro_regs[1] |= 1;
 278              		.loc 1 514 5 is_stmt 1 view .LVU72
 514:Src/mpu6050_dmp.c ****         gyro_regs[1] |= 1;
 279              		.loc 1 514 8 is_stmt 0 view .LVU73
 280 00e4 A206     		lsls	r2, r4, #26
 515:Src/mpu6050_dmp.c ****         accel_regs[1] |= 1;
 281              		.loc 1 515 9 is_stmt 1 view .LVU74
 515:Src/mpu6050_dmp.c ****         accel_regs[1] |= 1;
 282              		.loc 1 515 22 is_stmt 0 view .LVU75
 283 00e6 41BF     		itttt	mi
 284 00e8 5723     		movmi	r3, #87
 285 00ea 8DF80130 		strbmi	r3, [sp, #1]
 516:Src/mpu6050_dmp.c ****     }
 286              		.loc 1 516 9 is_stmt 1 view .LVU76
 516:Src/mpu6050_dmp.c ****     }
 287              		.loc 1 516 23 is_stmt 0 view .LVU77
 288 00ee 4723     		movmi	r3, #71
 289 00f0 8DF80530 		strbmi	r3, [sp, #5]
 518:Src/mpu6050_dmp.c ****         gyro_regs[2] |= 1;
 290              		.loc 1 518 5 is_stmt 1 view .LVU78
 518:Src/mpu6050_dmp.c ****         gyro_regs[2] |= 1;
 291              		.loc 1 518 8 is_stmt 0 view .LVU79
 292 00f4 E305     		lsls	r3, r4, #23
 519:Src/mpu6050_dmp.c ****         accel_regs[2] |= 1;
 293              		.loc 1 519 9 is_stmt 1 view .LVU80
 519:Src/mpu6050_dmp.c ****         accel_regs[2] |= 1;
 294              		.loc 1 519 22 is_stmt 0 view .LVU81
 295 00f6 42BF     		ittt	mi
 296 00f8 7723     		movmi	r3, #119
 297 00fa 8DF80230 		strbmi	r3, [sp, #2]
 520:Src/mpu6050_dmp.c ****     }
 298              		.loc 1 520 9 is_stmt 1 view .LVU82
 520:Src/mpu6050_dmp.c ****     }
 299              		.loc 1 520 23 is_stmt 0 view .LVU83
 300 00fe 6723     		movmi	r3, #103
 524:Src/mpu6050_dmp.c ****         return -1;
 301              		.loc 1 524 9 view .LVU84
 302 0100 6A46     		mov	r2, sp
 303 0102 4FF48860 		mov	r0, #1088
 520:Src/mpu6050_dmp.c ****     }
ARM GAS  /tmp/ccW0iIf7.s 			page 27


 304              		.loc 1 520 23 view .LVU85
 305 0106 48BF     		it	mi
 306 0108 8DF80630 		strbmi	r3, [sp, #6]
 524:Src/mpu6050_dmp.c ****         return -1;
 307              		.loc 1 524 5 is_stmt 1 view .LVU86
 524:Src/mpu6050_dmp.c ****         return -1;
 308              		.loc 1 524 9 is_stmt 0 view .LVU87
 309 010c FFF7FEFF 		bl	mpu_write_mem
 310              	.LVL7:
 524:Src/mpu6050_dmp.c ****         return -1;
 311              		.loc 1 524 8 view .LVU88
 312 0110 0028     		cmp	r0, #0
 313 0112 C3D1     		bne	.L10
 526:Src/mpu6050_dmp.c ****         return -1;
 314              		.loc 1 526 5 is_stmt 1 view .LVU89
 526:Src/mpu6050_dmp.c ****         return -1;
 315              		.loc 1 526 9 is_stmt 0 view .LVU90
 316 0114 0321     		movs	r1, #3
 317 0116 40F23140 		movw	r0, #1073
 318 011a 01AA     		add	r2, sp, #4
 319 011c FFF7FEFF 		bl	mpu_write_mem
 320              	.LVL8:
 526:Src/mpu6050_dmp.c ****         return -1;
 321              		.loc 1 526 8 view .LVU91
 322 0120 0028     		cmp	r0, #0
 323 0122 BBD1     		bne	.L10
 528:Src/mpu6050_dmp.c ****     return 0;
 324              		.loc 1 528 5 is_stmt 1 view .LVU92
 528:Src/mpu6050_dmp.c ****     return 0;
 325              		.loc 1 528 16 is_stmt 0 view .LVU93
 326 0124 054B     		ldr	r3, .L23+16
 327 0126 1C81     		strh	r4, [r3, #8]	@ movhi
 529:Src/mpu6050_dmp.c **** }
 328              		.loc 1 529 5 is_stmt 1 view .LVU94
 529:Src/mpu6050_dmp.c **** }
 329              		.loc 1 529 12 is_stmt 0 view .LVU95
 330 0128 BAE7     		b	.L7
 331              	.L24:
 332 012a 00BF     		.align	2
 333              	.L23:
 334 012c 00000000 		.word	.LC1
 335 0130 04000000 		.word	.LC2
 336 0134 08000000 		.word	.LC3
 337 0138 0C000000 		.word	.LC4
 338 013c 00000000 		.word	.LANCHOR1
 339              		.cfi_endproc
 340              	.LFE60:
 342              		.section	.text.dmp_set_gyro_bias,"ax",%progbits
 343              		.align	1
 344              		.global	dmp_set_gyro_bias
 345              		.syntax unified
 346              		.thumb
 347              		.thumb_func
 348              		.fpu softvfp
 350              	dmp_set_gyro_bias:
 351              	.LVL9:
 352              	.LFB61:
ARM GAS  /tmp/ccW0iIf7.s 			page 28


 543:Src/mpu6050_dmp.c ****     long gyro_bias_body[3];
 353              		.loc 1 543 1 is_stmt 1 view -0
 354              		.cfi_startproc
 355              		@ args = 0, pretend = 0, frame = 8
 356              		@ frame_needed = 0, uses_anonymous_args = 0
 544:Src/mpu6050_dmp.c ****     unsigned char regs[4];
 357              		.loc 1 544 5 view .LVU97
 545:Src/mpu6050_dmp.c **** 
 358              		.loc 1 545 5 view .LVU98
 547:Src/mpu6050_dmp.c ****     if (dmp.orient & 4)
 359              		.loc 1 547 5 view .LVU99
 547:Src/mpu6050_dmp.c ****     if (dmp.orient & 4)
 360              		.loc 1 547 33 is_stmt 0 view .LVU100
 361 0000 314B     		ldr	r3, .L41
 543:Src/mpu6050_dmp.c ****     long gyro_bias_body[3];
 362              		.loc 1 543 1 view .LVU101
 363 0002 37B5     		push	{r0, r1, r2, r4, r5, lr}
 364              	.LCFI6:
 365              		.cfi_def_cfa_offset 24
 366              		.cfi_offset 4, -12
 367              		.cfi_offset 5, -8
 368              		.cfi_offset 14, -4
 547:Src/mpu6050_dmp.c ****     if (dmp.orient & 4)
 369              		.loc 1 547 33 view .LVU102
 370 0004 1A89     		ldrh	r2, [r3, #8]
 547:Src/mpu6050_dmp.c ****     if (dmp.orient & 4)
 371              		.loc 1 547 41 view .LVU103
 372 0006 02F00303 		and	r3, r2, #3
 550:Src/mpu6050_dmp.c ****     if (dmp.orient & 0x20)
 373              		.loc 1 550 48 view .LVU104
 374 000a C2F3C101 		ubfx	r1, r2, #3, #2
 547:Src/mpu6050_dmp.c ****     if (dmp.orient & 4)
 375              		.loc 1 547 29 view .LVU105
 376 000e 50F82330 		ldr	r3, [r0, r3, lsl #2]
 377              	.LVL10:
 548:Src/mpu6050_dmp.c ****         gyro_bias_body[0] *= -1;
 378              		.loc 1 548 5 is_stmt 1 view .LVU106
 550:Src/mpu6050_dmp.c ****     if (dmp.orient & 0x20)
 379              		.loc 1 550 29 is_stmt 0 view .LVU107
 380 0012 50F82150 		ldr	r5, [r0, r1, lsl #2]
 548:Src/mpu6050_dmp.c ****         gyro_bias_body[0] *= -1;
 381              		.loc 1 548 8 view .LVU108
 382 0016 5407     		lsls	r4, r2, #29
 549:Src/mpu6050_dmp.c ****     gyro_bias_body[1] = bias[(dmp.orient >> 3) & 3];
 383              		.loc 1 549 9 is_stmt 1 view .LVU109
 549:Src/mpu6050_dmp.c ****     gyro_bias_body[1] = bias[(dmp.orient >> 3) & 3];
 384              		.loc 1 549 27 is_stmt 0 view .LVU110
 385 0018 48BF     		it	mi
 386 001a 5B42     		rsbmi	r3, r3, #0
 387              	.LVL11:
 550:Src/mpu6050_dmp.c ****     if (dmp.orient & 0x20)
 388              		.loc 1 550 5 is_stmt 1 view .LVU111
 551:Src/mpu6050_dmp.c ****         gyro_bias_body[1] *= -1;
 389              		.loc 1 551 5 view .LVU112
 551:Src/mpu6050_dmp.c ****         gyro_bias_body[1] *= -1;
 390              		.loc 1 551 8 is_stmt 0 view .LVU113
 391 001c 9106     		lsls	r1, r2, #26
ARM GAS  /tmp/ccW0iIf7.s 			page 29


 552:Src/mpu6050_dmp.c ****     gyro_bias_body[2] = bias[(dmp.orient >> 6) & 3];
 392              		.loc 1 552 9 is_stmt 1 view .LVU114
 552:Src/mpu6050_dmp.c ****     gyro_bias_body[2] = bias[(dmp.orient >> 6) & 3];
 393              		.loc 1 552 27 is_stmt 0 view .LVU115
 394 001e 48BF     		it	mi
 395 0020 6D42     		rsbmi	r5, r5, #0
 396              	.LVL12:
 553:Src/mpu6050_dmp.c ****     if (dmp.orient & 0x100)
 397              		.loc 1 553 5 is_stmt 1 view .LVU116
 553:Src/mpu6050_dmp.c ****     if (dmp.orient & 0x100)
 398              		.loc 1 553 48 is_stmt 0 view .LVU117
 399 0022 C2F38111 		ubfx	r1, r2, #6, #2
 554:Src/mpu6050_dmp.c ****         gyro_bias_body[2] *= -1;
 400              		.loc 1 554 8 view .LVU118
 401 0026 D205     		lsls	r2, r2, #23
 562:Src/mpu6050_dmp.c ****     gyro_bias_body[1] = (long)(((long long)gyro_bias_body[1] * GYRO_SF) >> 30);
 402              		.loc 1 562 62 view .LVU119
 403 0028 284A     		ldr	r2, .L41+4
 553:Src/mpu6050_dmp.c ****     if (dmp.orient & 0x100)
 404              		.loc 1 553 29 view .LVU120
 405 002a 50F82140 		ldr	r4, [r0, r1, lsl #2]
 406              	.LVL13:
 554:Src/mpu6050_dmp.c ****         gyro_bias_body[2] *= -1;
 407              		.loc 1 554 5 is_stmt 1 view .LVU121
 555:Src/mpu6050_dmp.c **** 
 408              		.loc 1 555 9 view .LVU122
 562:Src/mpu6050_dmp.c ****     gyro_bias_body[1] = (long)(((long long)gyro_bias_body[1] * GYRO_SF) >> 30);
 409              		.loc 1 562 62 is_stmt 0 view .LVU123
 410 002e 83FB0231 		smull	r3, r1, r3, r2
 411              	.LVL14:
 555:Src/mpu6050_dmp.c **** 
 412              		.loc 1 555 27 view .LVU124
 413 0032 48BF     		it	mi
 414 0034 6442     		rsbmi	r4, r4, #0
 415              	.LVL15:
 562:Src/mpu6050_dmp.c ****     gyro_bias_body[1] = (long)(((long long)gyro_bias_body[1] * GYRO_SF) >> 30);
 416              		.loc 1 562 5 is_stmt 1 view .LVU125
 562:Src/mpu6050_dmp.c ****     gyro_bias_body[1] = (long)(((long long)gyro_bias_body[1] * GYRO_SF) >> 30);
 417              		.loc 1 562 73 is_stmt 0 view .LVU126
 418 0036 9B0F     		lsrs	r3, r3, #30
 419 0038 43EA8103 		orr	r3, r3, r1, lsl #2
 420              	.LVL16:
 563:Src/mpu6050_dmp.c ****     gyro_bias_body[2] = (long)(((long long)gyro_bias_body[2] * GYRO_SF) >> 30);
 421              		.loc 1 563 5 is_stmt 1 view .LVU127
 563:Src/mpu6050_dmp.c ****     gyro_bias_body[2] = (long)(((long long)gyro_bias_body[2] * GYRO_SF) >> 30);
 422              		.loc 1 563 62 is_stmt 0 view .LVU128
 423 003c 85FB0251 		smull	r5, r1, r5, r2
 424              	.LVL17:
 564:Src/mpu6050_dmp.c **** #endif
 425              		.loc 1 564 62 view .LVU129
 426 0040 84FB0242 		smull	r4, r2, r4, r2
 427              	.LVL18:
 564:Src/mpu6050_dmp.c **** #endif
 428              		.loc 1 564 73 view .LVU130
 429 0044 A40F     		lsrs	r4, r4, #30
 430 0046 44EA8204 		orr	r4, r4, r2, lsl #2
 567:Src/mpu6050_dmp.c ****     regs[1] = (unsigned char)((gyro_bias_body[0] >> 16) & 0xFF);
ARM GAS  /tmp/ccW0iIf7.s 			page 30


 431              		.loc 1 567 50 view .LVU131
 432 004a 1A16     		asrs	r2, r3, #24
 567:Src/mpu6050_dmp.c ****     regs[1] = (unsigned char)((gyro_bias_body[0] >> 16) & 0xFF);
 433              		.loc 1 567 15 view .LVU132
 434 004c 8DF80420 		strb	r2, [sp, #4]
 568:Src/mpu6050_dmp.c ****     regs[2] = (unsigned char)((gyro_bias_body[0] >> 8) & 0xFF);
 435              		.loc 1 568 50 view .LVU133
 436 0050 1A14     		asrs	r2, r3, #16
 563:Src/mpu6050_dmp.c ****     gyro_bias_body[2] = (long)(((long long)gyro_bias_body[2] * GYRO_SF) >> 30);
 437              		.loc 1 563 73 view .LVU134
 438 0052 AD0F     		lsrs	r5, r5, #30
 568:Src/mpu6050_dmp.c ****     regs[2] = (unsigned char)((gyro_bias_body[0] >> 8) & 0xFF);
 439              		.loc 1 568 15 view .LVU135
 440 0054 8DF80520 		strb	r2, [sp, #5]
 569:Src/mpu6050_dmp.c ****     regs[3] = (unsigned char)(gyro_bias_body[0] & 0xFF);
 441              		.loc 1 569 50 view .LVU136
 442 0058 1A12     		asrs	r2, r3, #8
 563:Src/mpu6050_dmp.c ****     gyro_bias_body[2] = (long)(((long long)gyro_bias_body[2] * GYRO_SF) >> 30);
 443              		.loc 1 563 73 view .LVU137
 444 005a 45EA8105 		orr	r5, r5, r1, lsl #2
 445              	.LVL19:
 564:Src/mpu6050_dmp.c **** #endif
 446              		.loc 1 564 5 is_stmt 1 view .LVU138
 567:Src/mpu6050_dmp.c ****     regs[1] = (unsigned char)((gyro_bias_body[0] >> 16) & 0xFF);
 447              		.loc 1 567 5 view .LVU139
 568:Src/mpu6050_dmp.c ****     regs[2] = (unsigned char)((gyro_bias_body[0] >> 8) & 0xFF);
 448              		.loc 1 568 5 view .LVU140
 569:Src/mpu6050_dmp.c ****     regs[3] = (unsigned char)(gyro_bias_body[0] & 0xFF);
 449              		.loc 1 569 5 view .LVU141
 569:Src/mpu6050_dmp.c ****     regs[3] = (unsigned char)(gyro_bias_body[0] & 0xFF);
 450              		.loc 1 569 15 is_stmt 0 view .LVU142
 451 005e 8DF80620 		strb	r2, [sp, #6]
 570:Src/mpu6050_dmp.c ****     if (mpu_write_mem(D_EXT_GYRO_BIAS_X, 4, regs))
 452              		.loc 1 570 5 is_stmt 1 view .LVU143
 571:Src/mpu6050_dmp.c ****         return -1;
 453              		.loc 1 571 9 is_stmt 0 view .LVU144
 454 0062 0421     		movs	r1, #4
 455 0064 4FF47470 		mov	r0, #976
 456              	.LVL20:
 571:Src/mpu6050_dmp.c ****         return -1;
 457              		.loc 1 571 9 view .LVU145
 458 0068 01AA     		add	r2, sp, #4
 570:Src/mpu6050_dmp.c ****     if (mpu_write_mem(D_EXT_GYRO_BIAS_X, 4, regs))
 459              		.loc 1 570 15 view .LVU146
 460 006a 8DF80730 		strb	r3, [sp, #7]
 571:Src/mpu6050_dmp.c ****         return -1;
 461              		.loc 1 571 5 is_stmt 1 view .LVU147
 571:Src/mpu6050_dmp.c ****         return -1;
 462              		.loc 1 571 9 is_stmt 0 view .LVU148
 463 006e FFF7FEFF 		bl	mpu_write_mem
 464              	.LVL21:
 571:Src/mpu6050_dmp.c ****         return -1;
 465              		.loc 1 571 8 view .LVU149
 466 0072 18B1     		cbz	r0, .L29
 467              	.L31:
 572:Src/mpu6050_dmp.c **** 
 468              		.loc 1 572 16 view .LVU150
ARM GAS  /tmp/ccW0iIf7.s 			page 31


 469 0074 4FF0FF30 		mov	r0, #-1
 470              	.L25:
 586:Src/mpu6050_dmp.c **** 
 471              		.loc 1 586 1 view .LVU151
 472 0078 03B0     		add	sp, sp, #12
 473              	.LCFI7:
 474              		.cfi_remember_state
 475              		.cfi_def_cfa_offset 12
 476              		@ sp needed
 477 007a 30BD     		pop	{r4, r5, pc}
 478              	.LVL22:
 479              	.L29:
 480              	.LCFI8:
 481              		.cfi_restore_state
 574:Src/mpu6050_dmp.c ****     regs[1] = (unsigned char)((gyro_bias_body[1] >> 16) & 0xFF);
 482              		.loc 1 574 5 is_stmt 1 view .LVU152
 574:Src/mpu6050_dmp.c ****     regs[1] = (unsigned char)((gyro_bias_body[1] >> 16) & 0xFF);
 483              		.loc 1 574 50 is_stmt 0 view .LVU153
 484 007c 2B16     		asrs	r3, r5, #24
 574:Src/mpu6050_dmp.c ****     regs[1] = (unsigned char)((gyro_bias_body[1] >> 16) & 0xFF);
 485              		.loc 1 574 15 view .LVU154
 486 007e 8DF80430 		strb	r3, [sp, #4]
 575:Src/mpu6050_dmp.c ****     regs[2] = (unsigned char)((gyro_bias_body[1] >> 8) & 0xFF);
 487              		.loc 1 575 5 is_stmt 1 view .LVU155
 575:Src/mpu6050_dmp.c ****     regs[2] = (unsigned char)((gyro_bias_body[1] >> 8) & 0xFF);
 488              		.loc 1 575 50 is_stmt 0 view .LVU156
 489 0082 2B14     		asrs	r3, r5, #16
 575:Src/mpu6050_dmp.c ****     regs[2] = (unsigned char)((gyro_bias_body[1] >> 8) & 0xFF);
 490              		.loc 1 575 15 view .LVU157
 491 0084 8DF80530 		strb	r3, [sp, #5]
 576:Src/mpu6050_dmp.c ****     regs[3] = (unsigned char)(gyro_bias_body[1] & 0xFF);
 492              		.loc 1 576 5 is_stmt 1 view .LVU158
 578:Src/mpu6050_dmp.c ****         return -1;
 493              		.loc 1 578 9 is_stmt 0 view .LVU159
 494 0088 0421     		movs	r1, #4
 576:Src/mpu6050_dmp.c ****     regs[3] = (unsigned char)(gyro_bias_body[1] & 0xFF);
 495              		.loc 1 576 50 view .LVU160
 496 008a 2B12     		asrs	r3, r5, #8
 578:Src/mpu6050_dmp.c ****         return -1;
 497              		.loc 1 578 9 view .LVU161
 498 008c 4FF47570 		mov	r0, #980
 499 0090 01AA     		add	r2, sp, #4
 576:Src/mpu6050_dmp.c ****     regs[3] = (unsigned char)(gyro_bias_body[1] & 0xFF);
 500              		.loc 1 576 15 view .LVU162
 501 0092 8DF80630 		strb	r3, [sp, #6]
 577:Src/mpu6050_dmp.c ****     if (mpu_write_mem(D_EXT_GYRO_BIAS_Y, 4, regs))
 502              		.loc 1 577 5 is_stmt 1 view .LVU163
 577:Src/mpu6050_dmp.c ****     if (mpu_write_mem(D_EXT_GYRO_BIAS_Y, 4, regs))
 503              		.loc 1 577 15 is_stmt 0 view .LVU164
 504 0096 8DF80750 		strb	r5, [sp, #7]
 578:Src/mpu6050_dmp.c ****         return -1;
 505              		.loc 1 578 5 is_stmt 1 view .LVU165
 578:Src/mpu6050_dmp.c ****         return -1;
 506              		.loc 1 578 9 is_stmt 0 view .LVU166
 507 009a FFF7FEFF 		bl	mpu_write_mem
 508              	.LVL23:
 578:Src/mpu6050_dmp.c ****         return -1;
ARM GAS  /tmp/ccW0iIf7.s 			page 32


 509              		.loc 1 578 8 view .LVU167
 510 009e 0028     		cmp	r0, #0
 511 00a0 E8D1     		bne	.L31
 581:Src/mpu6050_dmp.c ****     regs[1] = (unsigned char)((gyro_bias_body[2] >> 16) & 0xFF);
 512              		.loc 1 581 5 is_stmt 1 view .LVU168
 581:Src/mpu6050_dmp.c ****     regs[1] = (unsigned char)((gyro_bias_body[2] >> 16) & 0xFF);
 513              		.loc 1 581 50 is_stmt 0 view .LVU169
 514 00a2 2316     		asrs	r3, r4, #24
 581:Src/mpu6050_dmp.c ****     regs[1] = (unsigned char)((gyro_bias_body[2] >> 16) & 0xFF);
 515              		.loc 1 581 15 view .LVU170
 516 00a4 8DF80430 		strb	r3, [sp, #4]
 582:Src/mpu6050_dmp.c ****     regs[2] = (unsigned char)((gyro_bias_body[2] >> 8) & 0xFF);
 517              		.loc 1 582 5 is_stmt 1 view .LVU171
 582:Src/mpu6050_dmp.c ****     regs[2] = (unsigned char)((gyro_bias_body[2] >> 8) & 0xFF);
 518              		.loc 1 582 50 is_stmt 0 view .LVU172
 519 00a8 2314     		asrs	r3, r4, #16
 582:Src/mpu6050_dmp.c ****     regs[2] = (unsigned char)((gyro_bias_body[2] >> 8) & 0xFF);
 520              		.loc 1 582 15 view .LVU173
 521 00aa 8DF80530 		strb	r3, [sp, #5]
 583:Src/mpu6050_dmp.c ****     regs[3] = (unsigned char)(gyro_bias_body[2] & 0xFF);
 522              		.loc 1 583 5 is_stmt 1 view .LVU174
 585:Src/mpu6050_dmp.c **** }
 523              		.loc 1 585 12 is_stmt 0 view .LVU175
 524 00ae 0421     		movs	r1, #4
 583:Src/mpu6050_dmp.c ****     regs[3] = (unsigned char)(gyro_bias_body[2] & 0xFF);
 525              		.loc 1 583 50 view .LVU176
 526 00b0 2312     		asrs	r3, r4, #8
 585:Src/mpu6050_dmp.c **** }
 527              		.loc 1 585 12 view .LVU177
 528 00b2 01AA     		add	r2, sp, #4
 529 00b4 4FF47670 		mov	r0, #984
 583:Src/mpu6050_dmp.c ****     regs[3] = (unsigned char)(gyro_bias_body[2] & 0xFF);
 530              		.loc 1 583 15 view .LVU178
 531 00b8 8DF80630 		strb	r3, [sp, #6]
 584:Src/mpu6050_dmp.c ****     return mpu_write_mem(D_EXT_GYRO_BIAS_Z, 4, regs);
 532              		.loc 1 584 5 is_stmt 1 view .LVU179
 584:Src/mpu6050_dmp.c ****     return mpu_write_mem(D_EXT_GYRO_BIAS_Z, 4, regs);
 533              		.loc 1 584 15 is_stmt 0 view .LVU180
 534 00bc 8DF80740 		strb	r4, [sp, #7]
 585:Src/mpu6050_dmp.c **** }
 535              		.loc 1 585 5 is_stmt 1 view .LVU181
 585:Src/mpu6050_dmp.c **** }
 536              		.loc 1 585 12 is_stmt 0 view .LVU182
 537 00c0 FFF7FEFF 		bl	mpu_write_mem
 538              	.LVL24:
 539 00c4 D8E7     		b	.L25
 540              	.L42:
 541 00c6 00BF     		.align	2
 542              	.L41:
 543 00c8 00000000 		.word	.LANCHOR1
 544 00cc 09E3CA02 		.word	46850825
 545              		.cfi_endproc
 546              	.LFE61:
 548              		.section	.text.dmp_set_accel_bias,"ax",%progbits
 549              		.align	1
 550              		.global	dmp_set_accel_bias
 551              		.syntax unified
ARM GAS  /tmp/ccW0iIf7.s 			page 33


 552              		.thumb
 553              		.thumb_func
 554              		.fpu softvfp
 556              	dmp_set_accel_bias:
 557              	.LVL25:
 558              	.LFB62:
 595:Src/mpu6050_dmp.c ****     long accel_bias_body[3];
 559              		.loc 1 595 1 is_stmt 1 view -0
 560              		.cfi_startproc
 561              		@ args = 0, pretend = 0, frame = 16
 562              		@ frame_needed = 0, uses_anonymous_args = 0
 596:Src/mpu6050_dmp.c ****     unsigned char regs[12];
 563              		.loc 1 596 5 view .LVU184
 597:Src/mpu6050_dmp.c ****     long long accel_sf;
 564              		.loc 1 597 5 view .LVU185
 598:Src/mpu6050_dmp.c ****     unsigned short accel_sens;
 565              		.loc 1 598 5 view .LVU186
 599:Src/mpu6050_dmp.c **** 
 566              		.loc 1 599 5 view .LVU187
 601:Src/mpu6050_dmp.c ****     accel_sf = (long long)accel_sens << 15;
 567              		.loc 1 601 5 view .LVU188
 595:Src/mpu6050_dmp.c ****     long accel_bias_body[3];
 568              		.loc 1 595 1 is_stmt 0 view .LVU189
 569 0000 7FB5     		push	{r0, r1, r2, r3, r4, r5, r6, lr}
 570              	.LCFI9:
 571              		.cfi_def_cfa_offset 32
 572              		.cfi_offset 4, -16
 573              		.cfi_offset 5, -12
 574              		.cfi_offset 6, -8
 575              		.cfi_offset 14, -4
 595:Src/mpu6050_dmp.c ****     long accel_bias_body[3];
 576              		.loc 1 595 1 view .LVU190
 577 0002 0646     		mov	r6, r0
 601:Src/mpu6050_dmp.c ****     accel_sf = (long long)accel_sens << 15;
 578              		.loc 1 601 5 view .LVU191
 579 0004 0DF10200 		add	r0, sp, #2
 580              	.LVL26:
 601:Src/mpu6050_dmp.c ****     accel_sf = (long long)accel_sens << 15;
 581              		.loc 1 601 5 view .LVU192
 582 0008 FFF7FEFF 		bl	mpu_get_accel_sens
 583              	.LVL27:
 602:Src/mpu6050_dmp.c ****     // __no_operation();
 584              		.loc 1 602 5 is_stmt 1 view .LVU193
 605:Src/mpu6050_dmp.c ****     if (dmp.orient & 4)
 585              		.loc 1 605 34 is_stmt 0 view .LVU194
 586 000c 2F4B     		ldr	r3, .L56
 602:Src/mpu6050_dmp.c ****     // __no_operation();
 587              		.loc 1 602 16 view .LVU195
 588 000e BDF80240 		ldrh	r4, [sp, #2]
 605:Src/mpu6050_dmp.c ****     if (dmp.orient & 4)
 589              		.loc 1 605 34 view .LVU196
 590 0012 1D89     		ldrh	r5, [r3, #8]
 602:Src/mpu6050_dmp.c ****     // __no_operation();
 591              		.loc 1 602 14 view .LVU197
 592 0014 E403     		lsls	r4, r4, #15
 593              	.LVL28:
 605:Src/mpu6050_dmp.c ****     if (dmp.orient & 4)
ARM GAS  /tmp/ccW0iIf7.s 			page 34


 594              		.loc 1 605 5 is_stmt 1 view .LVU198
 605:Src/mpu6050_dmp.c ****     if (dmp.orient & 4)
 595              		.loc 1 605 42 is_stmt 0 view .LVU199
 596 0016 05F00303 		and	r3, r5, #3
 605:Src/mpu6050_dmp.c ****     if (dmp.orient & 4)
 597              		.loc 1 605 30 view .LVU200
 598 001a 56F82310 		ldr	r1, [r6, r3, lsl #2]
 599              	.LVL29:
 606:Src/mpu6050_dmp.c ****         accel_bias_body[0] *= -1;
 600              		.loc 1 606 5 is_stmt 1 view .LVU201
 608:Src/mpu6050_dmp.c ****     if (dmp.orient & 0x20)
 601              		.loc 1 608 49 is_stmt 0 view .LVU202
 602 001e C5F3C103 		ubfx	r3, r5, #3, #2
 606:Src/mpu6050_dmp.c ****         accel_bias_body[0] *= -1;
 603              		.loc 1 606 8 view .LVU203
 604 0022 6A07     		lsls	r2, r5, #29
 607:Src/mpu6050_dmp.c ****     accel_bias_body[1] = bias[(dmp.orient >> 3) & 3];
 605              		.loc 1 607 9 is_stmt 1 view .LVU204
 608:Src/mpu6050_dmp.c ****     if (dmp.orient & 0x20)
 606              		.loc 1 608 30 is_stmt 0 view .LVU205
 607 0024 56F82320 		ldr	r2, [r6, r3, lsl #2]
 607:Src/mpu6050_dmp.c ****     accel_bias_body[1] = bias[(dmp.orient >> 3) & 3];
 608              		.loc 1 607 28 view .LVU206
 609 0028 48BF     		it	mi
 610 002a 4942     		rsbmi	r1, r1, #0
 611              	.LVL30:
 608:Src/mpu6050_dmp.c ****     if (dmp.orient & 0x20)
 612              		.loc 1 608 5 is_stmt 1 view .LVU207
 609:Src/mpu6050_dmp.c ****         accel_bias_body[1] *= -1;
 613              		.loc 1 609 5 view .LVU208
 609:Src/mpu6050_dmp.c ****         accel_bias_body[1] *= -1;
 614              		.loc 1 609 8 is_stmt 0 view .LVU209
 615 002c AB06     		lsls	r3, r5, #26
 610:Src/mpu6050_dmp.c ****     accel_bias_body[2] = bias[(dmp.orient >> 6) & 3];
 616              		.loc 1 610 9 is_stmt 1 view .LVU210
 610:Src/mpu6050_dmp.c ****     accel_bias_body[2] = bias[(dmp.orient >> 6) & 3];
 617              		.loc 1 610 28 is_stmt 0 view .LVU211
 618 002e 48BF     		it	mi
 619 0030 5242     		rsbmi	r2, r2, #0
 620              	.LVL31:
 611:Src/mpu6050_dmp.c ****     if (dmp.orient & 0x100)
 621              		.loc 1 611 5 is_stmt 1 view .LVU212
 611:Src/mpu6050_dmp.c ****     if (dmp.orient & 0x100)
 622              		.loc 1 611 49 is_stmt 0 view .LVU213
 623 0032 C5F38113 		ubfx	r3, r5, #6, #2
 612:Src/mpu6050_dmp.c ****         accel_bias_body[2] *= -1;
 624              		.loc 1 612 8 view .LVU214
 625 0036 E805     		lsls	r0, r5, #23
 620:Src/mpu6050_dmp.c ****     accel_bias_body[1] = (long)(((long long)accel_bias_body[1] * accel_sf) >> 30);
 626              		.loc 1 620 34 view .LVU215
 627 0038 4FEAE175 		asr	r5, r1, #31
 620:Src/mpu6050_dmp.c ****     accel_bias_body[1] = (long)(((long long)accel_bias_body[1] * accel_sf) >> 30);
 628              		.loc 1 620 64 view .LVU216
 629 003c A1FB0410 		umull	r1, r0, r1, r4
 630              	.LVL32:
 620:Src/mpu6050_dmp.c ****     accel_bias_body[1] = (long)(((long long)accel_bias_body[1] * accel_sf) >> 30);
 631              		.loc 1 620 64 view .LVU217
ARM GAS  /tmp/ccW0iIf7.s 			page 35


 632 0040 04FB0500 		mla	r0, r4, r5, r0
 620:Src/mpu6050_dmp.c ****     accel_bias_body[1] = (long)(((long long)accel_bias_body[1] * accel_sf) >> 30);
 633              		.loc 1 620 76 view .LVU218
 634 0044 4FEA9171 		lsr	r1, r1, #30
 635 0048 41EA8001 		orr	r1, r1, r0, lsl #2
 621:Src/mpu6050_dmp.c ****     accel_bias_body[2] = (long)(((long long)accel_bias_body[2] * accel_sf) >> 30);
 636              		.loc 1 621 34 view .LVU219
 637 004c 4FEAE275 		asr	r5, r2, #31
 621:Src/mpu6050_dmp.c ****     accel_bias_body[2] = (long)(((long long)accel_bias_body[2] * accel_sf) >> 30);
 638              		.loc 1 621 64 view .LVU220
 639 0050 A2FB0420 		umull	r2, r0, r2, r4
 640              	.LVL33:
 621:Src/mpu6050_dmp.c ****     accel_bias_body[2] = (long)(((long long)accel_bias_body[2] * accel_sf) >> 30);
 641              		.loc 1 621 64 view .LVU221
 642 0054 04FB0500 		mla	r0, r4, r5, r0
 611:Src/mpu6050_dmp.c ****     if (dmp.orient & 0x100)
 643              		.loc 1 611 30 view .LVU222
 644 0058 56F82330 		ldr	r3, [r6, r3, lsl #2]
 645              	.LVL34:
 612:Src/mpu6050_dmp.c ****         accel_bias_body[2] *= -1;
 646              		.loc 1 612 5 is_stmt 1 view .LVU223
 613:Src/mpu6050_dmp.c **** 
 647              		.loc 1 613 9 view .LVU224
 621:Src/mpu6050_dmp.c ****     accel_bias_body[2] = (long)(((long long)accel_bias_body[2] * accel_sf) >> 30);
 648              		.loc 1 621 76 is_stmt 0 view .LVU225
 649 005c 4FEA9272 		lsr	r2, r2, #30
 613:Src/mpu6050_dmp.c **** 
 650              		.loc 1 613 28 view .LVU226
 651 0060 48BF     		it	mi
 652 0062 5B42     		rsbmi	r3, r3, #0
 653              	.LVL35:
 620:Src/mpu6050_dmp.c ****     accel_bias_body[1] = (long)(((long long)accel_bias_body[1] * accel_sf) >> 30);
 654              		.loc 1 620 5 is_stmt 1 view .LVU227
 621:Src/mpu6050_dmp.c ****     accel_bias_body[2] = (long)(((long long)accel_bias_body[2] * accel_sf) >> 30);
 655              		.loc 1 621 5 view .LVU228
 621:Src/mpu6050_dmp.c ****     accel_bias_body[2] = (long)(((long long)accel_bias_body[2] * accel_sf) >> 30);
 656              		.loc 1 621 76 is_stmt 0 view .LVU229
 657 0064 42EA8002 		orr	r2, r2, r0, lsl #2
 658              	.LVL36:
 622:Src/mpu6050_dmp.c **** #endif
 659              		.loc 1 622 5 is_stmt 1 view .LVU230
 622:Src/mpu6050_dmp.c **** #endif
 660              		.loc 1 622 34 is_stmt 0 view .LVU231
 661 0068 DD17     		asrs	r5, r3, #31
 622:Src/mpu6050_dmp.c **** #endif
 662              		.loc 1 622 64 view .LVU232
 663 006a A3FB0430 		umull	r3, r0, r3, r4
 664              	.LVL37:
 622:Src/mpu6050_dmp.c **** #endif
 665              		.loc 1 622 64 view .LVU233
 666 006e 04FB0504 		mla	r4, r4, r5, r0
 667              	.LVL38:
 625:Src/mpu6050_dmp.c ****     regs[1] = (unsigned char)((accel_bias_body[0] >> 16) & 0xFF);
 668              		.loc 1 625 51 view .LVU234
 669 0072 0816     		asrs	r0, r1, #24
 625:Src/mpu6050_dmp.c ****     regs[1] = (unsigned char)((accel_bias_body[0] >> 16) & 0xFF);
 670              		.loc 1 625 15 view .LVU235
ARM GAS  /tmp/ccW0iIf7.s 			page 36


 671 0074 8DF80400 		strb	r0, [sp, #4]
 626:Src/mpu6050_dmp.c ****     regs[2] = (unsigned char)((accel_bias_body[0] >> 8) & 0xFF);
 672              		.loc 1 626 51 view .LVU236
 673 0078 0814     		asrs	r0, r1, #16
 626:Src/mpu6050_dmp.c ****     regs[2] = (unsigned char)((accel_bias_body[0] >> 8) & 0xFF);
 674              		.loc 1 626 15 view .LVU237
 675 007a 8DF80500 		strb	r0, [sp, #5]
 628:Src/mpu6050_dmp.c ****     regs[4] = (unsigned char)((accel_bias_body[1] >> 24) & 0xFF);
 676              		.loc 1 628 15 view .LVU238
 677 007e 8DF80710 		strb	r1, [sp, #7]
 627:Src/mpu6050_dmp.c ****     regs[3] = (unsigned char)(accel_bias_body[0] & 0xFF);
 678              		.loc 1 627 51 view .LVU239
 679 0082 0812     		asrs	r0, r1, #8
 622:Src/mpu6050_dmp.c **** #endif
 680              		.loc 1 622 76 view .LVU240
 681 0084 9B0F     		lsrs	r3, r3, #30
 629:Src/mpu6050_dmp.c ****     regs[5] = (unsigned char)((accel_bias_body[1] >> 16) & 0xFF);
 682              		.loc 1 629 51 view .LVU241
 683 0086 1116     		asrs	r1, r2, #24
 684              	.LVL39:
 622:Src/mpu6050_dmp.c **** #endif
 685              		.loc 1 622 76 view .LVU242
 686 0088 43EA8403 		orr	r3, r3, r4, lsl #2
 687              	.LVL40:
 625:Src/mpu6050_dmp.c ****     regs[1] = (unsigned char)((accel_bias_body[0] >> 16) & 0xFF);
 688              		.loc 1 625 5 is_stmt 1 view .LVU243
 626:Src/mpu6050_dmp.c ****     regs[2] = (unsigned char)((accel_bias_body[0] >> 8) & 0xFF);
 689              		.loc 1 626 5 view .LVU244
 627:Src/mpu6050_dmp.c ****     regs[3] = (unsigned char)(accel_bias_body[0] & 0xFF);
 690              		.loc 1 627 5 view .LVU245
 629:Src/mpu6050_dmp.c ****     regs[5] = (unsigned char)((accel_bias_body[1] >> 16) & 0xFF);
 691              		.loc 1 629 15 is_stmt 0 view .LVU246
 692 008c 8DF80810 		strb	r1, [sp, #8]
 630:Src/mpu6050_dmp.c ****     regs[6] = (unsigned char)((accel_bias_body[1] >> 8) & 0xFF);
 693              		.loc 1 630 51 view .LVU247
 694 0090 1114     		asrs	r1, r2, #16
 630:Src/mpu6050_dmp.c ****     regs[6] = (unsigned char)((accel_bias_body[1] >> 8) & 0xFF);
 695              		.loc 1 630 15 view .LVU248
 696 0092 8DF80910 		strb	r1, [sp, #9]
 632:Src/mpu6050_dmp.c ****     regs[8] = (unsigned char)((accel_bias_body[2] >> 24) & 0xFF);
 697              		.loc 1 632 15 view .LVU249
 698 0096 8DF80B20 		strb	r2, [sp, #11]
 631:Src/mpu6050_dmp.c ****     regs[7] = (unsigned char)(accel_bias_body[1] & 0xFF);
 699              		.loc 1 631 51 view .LVU250
 700 009a 1112     		asrs	r1, r2, #8
 633:Src/mpu6050_dmp.c ****     regs[9] = (unsigned char)((accel_bias_body[2] >> 16) & 0xFF);
 701              		.loc 1 633 51 view .LVU251
 702 009c 1A16     		asrs	r2, r3, #24
 703              	.LVL41:
 633:Src/mpu6050_dmp.c ****     regs[9] = (unsigned char)((accel_bias_body[2] >> 16) & 0xFF);
 704              		.loc 1 633 15 view .LVU252
 705 009e 8DF80C20 		strb	r2, [sp, #12]
 634:Src/mpu6050_dmp.c ****     regs[10] = (unsigned char)((accel_bias_body[2] >> 8) & 0xFF);
 706              		.loc 1 634 51 view .LVU253
 707 00a2 1A14     		asrs	r2, r3, #16
 634:Src/mpu6050_dmp.c ****     regs[10] = (unsigned char)((accel_bias_body[2] >> 8) & 0xFF);
 708              		.loc 1 634 15 view .LVU254
ARM GAS  /tmp/ccW0iIf7.s 			page 37


 709 00a4 8DF80D20 		strb	r2, [sp, #13]
 635:Src/mpu6050_dmp.c ****     regs[11] = (unsigned char)(accel_bias_body[2] & 0xFF);
 710              		.loc 1 635 52 view .LVU255
 711 00a8 1A12     		asrs	r2, r3, #8
 627:Src/mpu6050_dmp.c ****     regs[3] = (unsigned char)(accel_bias_body[0] & 0xFF);
 712              		.loc 1 627 15 view .LVU256
 713 00aa 8DF80600 		strb	r0, [sp, #6]
 628:Src/mpu6050_dmp.c ****     regs[4] = (unsigned char)((accel_bias_body[1] >> 24) & 0xFF);
 714              		.loc 1 628 5 is_stmt 1 view .LVU257
 629:Src/mpu6050_dmp.c ****     regs[5] = (unsigned char)((accel_bias_body[1] >> 16) & 0xFF);
 715              		.loc 1 629 5 view .LVU258
 630:Src/mpu6050_dmp.c ****     regs[6] = (unsigned char)((accel_bias_body[1] >> 8) & 0xFF);
 716              		.loc 1 630 5 view .LVU259
 631:Src/mpu6050_dmp.c ****     regs[7] = (unsigned char)(accel_bias_body[1] & 0xFF);
 717              		.loc 1 631 5 view .LVU260
 631:Src/mpu6050_dmp.c ****     regs[7] = (unsigned char)(accel_bias_body[1] & 0xFF);
 718              		.loc 1 631 15 is_stmt 0 view .LVU261
 719 00ae 8DF80A10 		strb	r1, [sp, #10]
 632:Src/mpu6050_dmp.c ****     regs[8] = (unsigned char)((accel_bias_body[2] >> 24) & 0xFF);
 720              		.loc 1 632 5 is_stmt 1 view .LVU262
 633:Src/mpu6050_dmp.c ****     regs[9] = (unsigned char)((accel_bias_body[2] >> 16) & 0xFF);
 721              		.loc 1 633 5 view .LVU263
 634:Src/mpu6050_dmp.c ****     regs[10] = (unsigned char)((accel_bias_body[2] >> 8) & 0xFF);
 722              		.loc 1 634 5 view .LVU264
 635:Src/mpu6050_dmp.c ****     regs[11] = (unsigned char)(accel_bias_body[2] & 0xFF);
 723              		.loc 1 635 5 view .LVU265
 635:Src/mpu6050_dmp.c ****     regs[11] = (unsigned char)(accel_bias_body[2] & 0xFF);
 724              		.loc 1 635 16 is_stmt 0 view .LVU266
 725 00b2 8DF80E20 		strb	r2, [sp, #14]
 636:Src/mpu6050_dmp.c ****     return mpu_write_mem(D_ACCEL_BIAS, 12, regs);
 726              		.loc 1 636 5 is_stmt 1 view .LVU267
 637:Src/mpu6050_dmp.c **** }
 727              		.loc 1 637 12 is_stmt 0 view .LVU268
 728 00b6 0C21     		movs	r1, #12
 729 00b8 01AA     		add	r2, sp, #4
 730 00ba 4FF42570 		mov	r0, #660
 636:Src/mpu6050_dmp.c ****     return mpu_write_mem(D_ACCEL_BIAS, 12, regs);
 731              		.loc 1 636 16 view .LVU269
 732 00be 8DF80F30 		strb	r3, [sp, #15]
 637:Src/mpu6050_dmp.c **** }
 733              		.loc 1 637 5 is_stmt 1 view .LVU270
 637:Src/mpu6050_dmp.c **** }
 734              		.loc 1 637 12 is_stmt 0 view .LVU271
 735 00c2 FFF7FEFF 		bl	mpu_write_mem
 736              	.LVL42:
 638:Src/mpu6050_dmp.c **** 
 737              		.loc 1 638 1 view .LVU272
 738 00c6 04B0     		add	sp, sp, #16
 739              	.LCFI10:
 740              		.cfi_def_cfa_offset 16
 741              		@ sp needed
 742 00c8 70BD     		pop	{r4, r5, r6, pc}
 743              	.LVL43:
 744              	.L57:
 638:Src/mpu6050_dmp.c **** 
 745              		.loc 1 638 1 view .LVU273
 746 00ca 00BF     		.align	2
ARM GAS  /tmp/ccW0iIf7.s 			page 38


 747              	.L56:
 748 00cc 00000000 		.word	.LANCHOR1
 749              		.cfi_endproc
 750              	.LFE62:
 752              		.section	.rodata.dmp_set_fifo_rate.str1.1,"aMS",%progbits,1
 753              	.LC5:
 754 0000 FEF2ABC4 		.ascii	"\376\362\253\304\252\361\337\337\273\257\337\337\000"
 754      AAF1DFDF 
 754      BBAFDFDF 
 754      00
 755              		.section	.text.dmp_set_fifo_rate,"ax",%progbits
 756              		.align	1
 757              		.global	dmp_set_fifo_rate
 758              		.syntax unified
 759              		.thumb
 760              		.thumb_func
 761              		.fpu softvfp
 763              	dmp_set_fifo_rate:
 764              	.LVL44:
 765              	.LFB63:
 647:Src/mpu6050_dmp.c ****     const unsigned char regs_end[12] = {DINAFE, DINAF2, DINAAB,
 766              		.loc 1 647 1 is_stmt 1 view -0
 767              		.cfi_startproc
 768              		@ args = 0, pretend = 0, frame = 24
 769              		@ frame_needed = 0, uses_anonymous_args = 0
 648:Src/mpu6050_dmp.c ****         0xc4, DINAAA, DINAF1, DINADF, DINADF, 0xBB, 0xAF, DINADF, DINADF};
 770              		.loc 1 648 5 view .LVU275
 647:Src/mpu6050_dmp.c ****     const unsigned char regs_end[12] = {DINAFE, DINAF2, DINAAB,
 771              		.loc 1 647 1 is_stmt 0 view .LVU276
 772 0000 10B5     		push	{r4, lr}
 773              	.LCFI11:
 774              		.cfi_def_cfa_offset 8
 775              		.cfi_offset 4, -8
 776              		.cfi_offset 14, -4
 777 0002 0446     		mov	r4, r0
 648:Src/mpu6050_dmp.c ****         0xc4, DINAAA, DINAF1, DINADF, DINADF, 0xBB, 0xAF, DINADF, DINADF};
 778              		.loc 1 648 25 view .LVU277
 779 0004 144A     		ldr	r2, .L62
 647:Src/mpu6050_dmp.c ****     const unsigned char regs_end[12] = {DINAFE, DINAF2, DINAAB,
 780              		.loc 1 647 1 view .LVU278
 781 0006 86B0     		sub	sp, sp, #24
 782              	.LCFI12:
 783              		.cfi_def_cfa_offset 32
 648:Src/mpu6050_dmp.c ****         0xc4, DINAAA, DINAF1, DINADF, DINADF, 0xBB, 0xAF, DINADF, DINADF};
 784              		.loc 1 648 25 view .LVU279
 785 0008 1068     		ldr	r0, [r2]	@ unaligned
 786              	.LVL45:
 648:Src/mpu6050_dmp.c ****         0xc4, DINAAA, DINAF1, DINADF, DINADF, 0xBB, 0xAF, DINADF, DINADF};
 787              		.loc 1 648 25 view .LVU280
 788 000a 5168     		ldr	r1, [r2, #4]	@ unaligned
 789 000c 03AB     		add	r3, sp, #12
 790 000e 03C3     		stmia	r3!, {r0, r1}
 791 0010 9068     		ldr	r0, [r2, #8]	@ unaligned
 653:Src/mpu6050_dmp.c ****         return -1;
 792              		.loc 1 653 8 view .LVU281
 793 0012 C82C     		cmp	r4, #200
 648:Src/mpu6050_dmp.c ****         0xc4, DINAAA, DINAF1, DINADF, DINADF, 0xBB, 0xAF, DINADF, DINADF};
ARM GAS  /tmp/ccW0iIf7.s 			page 39


 794              		.loc 1 648 25 view .LVU282
 795 0014 1860     		str	r0, [r3]
 650:Src/mpu6050_dmp.c ****     unsigned char tmp[8];
 796              		.loc 1 650 5 is_stmt 1 view .LVU283
 651:Src/mpu6050_dmp.c **** 
 797              		.loc 1 651 5 view .LVU284
 653:Src/mpu6050_dmp.c ****         return -1;
 798              		.loc 1 653 5 view .LVU285
 653:Src/mpu6050_dmp.c ****         return -1;
 799              		.loc 1 653 8 is_stmt 0 view .LVU286
 800 0016 03D9     		bls	.L59
 801              	.L61:
 654:Src/mpu6050_dmp.c ****     div = DMP_SAMPLE_RATE / rate - 1;
 802              		.loc 1 654 16 view .LVU287
 803 0018 4FF0FF30 		mov	r0, #-1
 804              	.L58:
 665:Src/mpu6050_dmp.c **** 
 805              		.loc 1 665 1 view .LVU288
 806 001c 06B0     		add	sp, sp, #24
 807              	.LCFI13:
 808              		.cfi_remember_state
 809              		.cfi_def_cfa_offset 8
 810              		@ sp needed
 811 001e 10BD     		pop	{r4, pc}
 812              	.L59:
 813              	.LCFI14:
 814              		.cfi_restore_state
 655:Src/mpu6050_dmp.c ****     tmp[0] = (unsigned char)((div >> 8) & 0xFF);
 815              		.loc 1 655 5 is_stmt 1 view .LVU289
 816              	.LVL46:
 656:Src/mpu6050_dmp.c ****     tmp[1] = (unsigned char)(div & 0xFF);
 817              		.loc 1 656 5 view .LVU290
 656:Src/mpu6050_dmp.c ****     tmp[1] = (unsigned char)(div & 0xFF);
 818              		.loc 1 656 12 is_stmt 0 view .LVU291
 819 0020 0023     		movs	r3, #0
 820 0022 8DF80430 		strb	r3, [sp, #4]
 657:Src/mpu6050_dmp.c ****     if (mpu_write_mem(D_0_22, 2, tmp))
 821              		.loc 1 657 5 is_stmt 1 view .LVU292
 655:Src/mpu6050_dmp.c ****     tmp[0] = (unsigned char)((div >> 8) & 0xFF);
 822              		.loc 1 655 27 is_stmt 0 view .LVU293
 823 0026 C823     		movs	r3, #200
 824 0028 B3FBF4F3 		udiv	r3, r3, r4
 658:Src/mpu6050_dmp.c ****         return -1;
 825              		.loc 1 658 9 view .LVU294
 826 002c 0221     		movs	r1, #2
 655:Src/mpu6050_dmp.c ****     tmp[0] = (unsigned char)((div >> 8) & 0xFF);
 827              		.loc 1 655 9 view .LVU295
 828 002e 013B     		subs	r3, r3, #1
 658:Src/mpu6050_dmp.c ****         return -1;
 829              		.loc 1 658 9 view .LVU296
 830 0030 40F21620 		movw	r0, #534
 831 0034 01AA     		add	r2, sp, #4
 657:Src/mpu6050_dmp.c ****     if (mpu_write_mem(D_0_22, 2, tmp))
 832              		.loc 1 657 14 view .LVU297
 833 0036 8DF80530 		strb	r3, [sp, #5]
 658:Src/mpu6050_dmp.c ****         return -1;
 834              		.loc 1 658 5 is_stmt 1 view .LVU298
ARM GAS  /tmp/ccW0iIf7.s 			page 40


 658:Src/mpu6050_dmp.c ****         return -1;
 835              		.loc 1 658 9 is_stmt 0 view .LVU299
 836 003a FFF7FEFF 		bl	mpu_write_mem
 837              	.LVL47:
 658:Src/mpu6050_dmp.c ****         return -1;
 838              		.loc 1 658 8 view .LVU300
 839 003e 0028     		cmp	r0, #0
 840 0040 EAD1     		bne	.L61
 660:Src/mpu6050_dmp.c ****         return -1;
 841              		.loc 1 660 5 is_stmt 1 view .LVU301
 660:Src/mpu6050_dmp.c ****         return -1;
 842              		.loc 1 660 9 is_stmt 0 view .LVU302
 843 0042 0C21     		movs	r1, #12
 844 0044 40F6C120 		movw	r0, #2753
 845 0048 03AA     		add	r2, sp, #12
 846 004a FFF7FEFF 		bl	mpu_write_mem
 847              	.LVL48:
 660:Src/mpu6050_dmp.c ****         return -1;
 848              		.loc 1 660 8 view .LVU303
 849 004e 0028     		cmp	r0, #0
 850 0050 E2D1     		bne	.L61
 663:Src/mpu6050_dmp.c ****     return 0;
 851              		.loc 1 663 5 is_stmt 1 view .LVU304
 663:Src/mpu6050_dmp.c ****     return 0;
 852              		.loc 1 663 19 is_stmt 0 view .LVU305
 853 0052 024B     		ldr	r3, .L62+4
 854 0054 9C81     		strh	r4, [r3, #12]	@ movhi
 664:Src/mpu6050_dmp.c **** }
 855              		.loc 1 664 5 is_stmt 1 view .LVU306
 664:Src/mpu6050_dmp.c **** }
 856              		.loc 1 664 12 is_stmt 0 view .LVU307
 857 0056 E1E7     		b	.L58
 858              	.L63:
 859              		.align	2
 860              	.L62:
 861 0058 00000000 		.word	.LC5
 862 005c 00000000 		.word	.LANCHOR1
 863              		.cfi_endproc
 864              	.LFE63:
 866              		.section	.text.dmp_get_fifo_rate,"ax",%progbits
 867              		.align	1
 868              		.global	dmp_get_fifo_rate
 869              		.syntax unified
 870              		.thumb
 871              		.thumb_func
 872              		.fpu softvfp
 874              	dmp_get_fifo_rate:
 875              	.LVL49:
 876              	.LFB64:
 673:Src/mpu6050_dmp.c ****     rate[0] = dmp.fifo_rate;
 877              		.loc 1 673 1 is_stmt 1 view -0
 878              		.cfi_startproc
 879              		@ args = 0, pretend = 0, frame = 0
 880              		@ frame_needed = 0, uses_anonymous_args = 0
 881              		@ link register save eliminated.
 674:Src/mpu6050_dmp.c ****     return 0;
 882              		.loc 1 674 5 view .LVU309
ARM GAS  /tmp/ccW0iIf7.s 			page 41


 674:Src/mpu6050_dmp.c ****     return 0;
 883              		.loc 1 674 18 is_stmt 0 view .LVU310
 884 0000 024B     		ldr	r3, .L65
 674:Src/mpu6050_dmp.c ****     return 0;
 885              		.loc 1 674 13 view .LVU311
 886 0002 9B89     		ldrh	r3, [r3, #12]
 887 0004 0380     		strh	r3, [r0]	@ movhi
 675:Src/mpu6050_dmp.c **** }
 888              		.loc 1 675 5 is_stmt 1 view .LVU312
 676:Src/mpu6050_dmp.c **** 
 889              		.loc 1 676 1 is_stmt 0 view .LVU313
 890 0006 0020     		movs	r0, #0
 891              	.LVL50:
 676:Src/mpu6050_dmp.c **** 
 892              		.loc 1 676 1 view .LVU314
 893 0008 7047     		bx	lr
 894              	.L66:
 895 000a 00BF     		.align	2
 896              	.L65:
 897 000c 00000000 		.word	.LANCHOR1
 898              		.cfi_endproc
 899              	.LFE64:
 901              		.global	__aeabi_ui2f
 902              		.global	__aeabi_fdiv
 903              		.global	__aeabi_fmul
 904              		.global	__aeabi_f2uiz
 905              		.section	.text.dmp_set_tap_thresh,"ax",%progbits
 906              		.align	1
 907              		.global	dmp_set_tap_thresh
 908              		.syntax unified
 909              		.thumb
 910              		.thumb_func
 911              		.fpu softvfp
 913              	dmp_set_tap_thresh:
 914              	.LVL51:
 915              	.LFB65:
 685:Src/mpu6050_dmp.c ****     unsigned char tmp[4], accel_fsr;
 916              		.loc 1 685 1 is_stmt 1 view -0
 917              		.cfi_startproc
 918              		@ args = 0, pretend = 0, frame = 8
 919              		@ frame_needed = 0, uses_anonymous_args = 0
 686:Src/mpu6050_dmp.c ****     float scaled_thresh;
 920              		.loc 1 686 5 view .LVU316
 687:Src/mpu6050_dmp.c ****     unsigned short dmp_thresh, dmp_thresh_2;
 921              		.loc 1 687 5 view .LVU317
 688:Src/mpu6050_dmp.c ****     if (!(axis & TAP_XYZ) || thresh > 1600)
 922              		.loc 1 688 5 view .LVU318
 689:Src/mpu6050_dmp.c ****         return -1;
 923              		.loc 1 689 5 view .LVU319
 685:Src/mpu6050_dmp.c ****     unsigned char tmp[4], accel_fsr;
 924              		.loc 1 685 1 is_stmt 0 view .LVU320
 925 0000 73B5     		push	{r0, r1, r4, r5, r6, lr}
 926              	.LCFI15:
 927              		.cfi_def_cfa_offset 24
 928              		.cfi_offset 4, -16
 929              		.cfi_offset 5, -12
 930              		.cfi_offset 6, -8
ARM GAS  /tmp/ccW0iIf7.s 			page 42


 931              		.cfi_offset 14, -4
 685:Src/mpu6050_dmp.c ****     unsigned char tmp[4], accel_fsr;
 932              		.loc 1 685 1 view .LVU321
 933 0002 0446     		mov	r4, r0
 934 0004 0846     		mov	r0, r1
 935              	.LVL52:
 689:Src/mpu6050_dmp.c ****         return -1;
 936              		.loc 1 689 8 view .LVU322
 937 0006 6107     		lsls	r1, r4, #29
 938              	.LVL53:
 689:Src/mpu6050_dmp.c ****         return -1;
 939              		.loc 1 689 8 view .LVU323
 940 0008 03D1     		bne	.L68
 941              	.L83:
 695:Src/mpu6050_dmp.c ****     case 2:
 942              		.loc 1 695 5 view .LVU324
 943 000a 4FF0FF30 		mov	r0, #-1
 944              	.L67:
 743:Src/mpu6050_dmp.c **** 
 945              		.loc 1 743 1 view .LVU325
 946 000e 02B0     		add	sp, sp, #8
 947              	.LCFI16:
 948              		.cfi_remember_state
 949              		.cfi_def_cfa_offset 16
 950              		@ sp needed
 951 0010 70BD     		pop	{r4, r5, r6, pc}
 952              	.L68:
 953              	.LCFI17:
 954              		.cfi_restore_state
 689:Src/mpu6050_dmp.c ****         return -1;
 955              		.loc 1 689 27 discriminator 1 view .LVU326
 956 0012 B0F5C86F 		cmp	r0, #1600
 957 0016 F8D8     		bhi	.L83
 692:Src/mpu6050_dmp.c **** 
 958              		.loc 1 692 5 is_stmt 1 view .LVU327
 692:Src/mpu6050_dmp.c **** 
 959              		.loc 1 692 21 is_stmt 0 view .LVU328
 960 0018 FFF7FEFF 		bl	__aeabi_ui2f
 961              	.LVL54:
 692:Src/mpu6050_dmp.c **** 
 962              		.loc 1 692 19 view .LVU329
 963 001c 4449     		ldr	r1, .L84
 964 001e FFF7FEFF 		bl	__aeabi_fdiv
 965              	.LVL55:
 966 0022 0646     		mov	r6, r0
 967              	.LVL56:
 694:Src/mpu6050_dmp.c ****     switch (accel_fsr) {
 968              		.loc 1 694 5 is_stmt 1 view .LVU330
 969 0024 0DF10300 		add	r0, sp, #3
 970              	.LVL57:
 694:Src/mpu6050_dmp.c ****     switch (accel_fsr) {
 971              		.loc 1 694 5 is_stmt 0 view .LVU331
 972 0028 FFF7FEFF 		bl	mpu_get_accel_fsr
 973              	.LVL58:
 695:Src/mpu6050_dmp.c ****     case 2:
 974              		.loc 1 695 5 is_stmt 1 view .LVU332
 975 002c 9DF80330 		ldrb	r3, [sp, #3]	@ zero_extendqisi2
ARM GAS  /tmp/ccW0iIf7.s 			page 43


 976 0030 082B     		cmp	r3, #8
 977 0032 60D0     		beq	.L71
 978 0034 0DD8     		bhi	.L72
 979 0036 022B     		cmp	r3, #2
 980 0038 17D0     		beq	.L73
 981 003a 042B     		cmp	r3, #4
 982 003c E5D1     		bne	.L83
 702:Src/mpu6050_dmp.c ****         /* dmp_thresh * 0.75 */
 983              		.loc 1 702 9 view .LVU333
 702:Src/mpu6050_dmp.c ****         /* dmp_thresh * 0.75 */
 984              		.loc 1 702 53 is_stmt 0 view .LVU334
 985 003e 4FF08C41 		mov	r1, #1174405120
 986 0042 3046     		mov	r0, r6
 987 0044 FFF7FEFF 		bl	__aeabi_fmul
 988              	.LVL59:
 702:Src/mpu6050_dmp.c ****         /* dmp_thresh * 0.75 */
 989              		.loc 1 702 20 view .LVU335
 990 0048 FFF7FEFF 		bl	__aeabi_f2uiz
 991              	.LVL60:
 704:Src/mpu6050_dmp.c ****         break;
 992              		.loc 1 704 55 view .LVU336
 993 004c 3949     		ldr	r1, .L84+4
 702:Src/mpu6050_dmp.c ****         /* dmp_thresh * 0.75 */
 994              		.loc 1 702 20 view .LVU337
 995 004e 85B2     		uxth	r5, r0
 996              	.LVL61:
 704:Src/mpu6050_dmp.c ****         break;
 997              		.loc 1 704 9 is_stmt 1 view .LVU338
 998 0050 14E0     		b	.L82
 999              	.LVL62:
 1000              	.L72:
 695:Src/mpu6050_dmp.c ****     case 2:
 1001              		.loc 1 695 5 is_stmt 0 view .LVU339
 1002 0052 102B     		cmp	r3, #16
 1003 0054 D9D1     		bne	.L83
 712:Src/mpu6050_dmp.c ****         /* dmp_thresh * 0.75 */
 1004              		.loc 1 712 9 is_stmt 1 view .LVU340
 712:Src/mpu6050_dmp.c ****         /* dmp_thresh * 0.75 */
 1005              		.loc 1 712 53 is_stmt 0 view .LVU341
 1006 0056 4FF08A41 		mov	r1, #1157627904
 1007 005a 3046     		mov	r0, r6
 1008 005c FFF7FEFF 		bl	__aeabi_fmul
 1009              	.LVL63:
 712:Src/mpu6050_dmp.c ****         /* dmp_thresh * 0.75 */
 1010              		.loc 1 712 20 view .LVU342
 1011 0060 FFF7FEFF 		bl	__aeabi_f2uiz
 1012              	.LVL64:
 714:Src/mpu6050_dmp.c ****         break;
 1013              		.loc 1 714 55 view .LVU343
 1014 0064 3449     		ldr	r1, .L84+8
 712:Src/mpu6050_dmp.c ****         /* dmp_thresh * 0.75 */
 1015              		.loc 1 712 20 view .LVU344
 1016 0066 85B2     		uxth	r5, r0
 1017              	.LVL65:
 714:Src/mpu6050_dmp.c ****         break;
 1018              		.loc 1 714 9 is_stmt 1 view .LVU345
 1019 0068 08E0     		b	.L82
ARM GAS  /tmp/ccW0iIf7.s 			page 44


 1020              	.LVL66:
 1021              	.L73:
 697:Src/mpu6050_dmp.c ****         /* dmp_thresh * 0.75 */
 1022              		.loc 1 697 9 view .LVU346
 697:Src/mpu6050_dmp.c ****         /* dmp_thresh * 0.75 */
 1023              		.loc 1 697 53 is_stmt 0 view .LVU347
 1024 006a 4FF08D41 		mov	r1, #1182793728
 1025 006e 3046     		mov	r0, r6
 1026 0070 FFF7FEFF 		bl	__aeabi_fmul
 1027              	.LVL67:
 697:Src/mpu6050_dmp.c ****         /* dmp_thresh * 0.75 */
 1028              		.loc 1 697 20 view .LVU348
 1029 0074 FFF7FEFF 		bl	__aeabi_f2uiz
 1030              	.LVL68:
 699:Src/mpu6050_dmp.c ****         break;
 1031              		.loc 1 699 55 view .LVU349
 1032 0078 3049     		ldr	r1, .L84+12
 697:Src/mpu6050_dmp.c ****         /* dmp_thresh * 0.75 */
 1033              		.loc 1 697 20 view .LVU350
 1034 007a 85B2     		uxth	r5, r0
 1035              	.LVL69:
 699:Src/mpu6050_dmp.c ****         break;
 1036              		.loc 1 699 9 is_stmt 1 view .LVU351
 1037              	.L82:
 714:Src/mpu6050_dmp.c ****         break;
 1038              		.loc 1 714 55 is_stmt 0 view .LVU352
 1039 007c 3046     		mov	r0, r6
 1040 007e FFF7FEFF 		bl	__aeabi_fmul
 1041              	.LVL70:
 714:Src/mpu6050_dmp.c ****         break;
 1042              		.loc 1 714 22 view .LVU353
 1043 0082 FFF7FEFF 		bl	__aeabi_f2uiz
 1044              	.LVL71:
 719:Src/mpu6050_dmp.c ****     tmp[1] = (unsigned char)(dmp_thresh & 0xFF);
 1045              		.loc 1 719 14 view .LVU354
 1046 0086 2B0A     		lsrs	r3, r5, #8
 714:Src/mpu6050_dmp.c ****         break;
 1047              		.loc 1 714 22 view .LVU355
 1048 0088 80B2     		uxth	r0, r0
 1049              	.LVL72:
 715:Src/mpu6050_dmp.c ****     default:
 1050              		.loc 1 715 9 is_stmt 1 view .LVU356
 719:Src/mpu6050_dmp.c ****     tmp[1] = (unsigned char)(dmp_thresh & 0xFF);
 1051              		.loc 1 719 5 view .LVU357
 719:Src/mpu6050_dmp.c ****     tmp[1] = (unsigned char)(dmp_thresh & 0xFF);
 1052              		.loc 1 719 14 is_stmt 0 view .LVU358
 1053 008a 8DF80430 		strb	r3, [sp, #4]
 720:Src/mpu6050_dmp.c ****     tmp[2] = (unsigned char)(dmp_thresh_2 >> 8);
 1054              		.loc 1 720 5 is_stmt 1 view .LVU359
 724:Src/mpu6050_dmp.c ****         if (mpu_write_mem(DMP_TAP_THX, 2, tmp))
 1055              		.loc 1 724 8 is_stmt 0 view .LVU360
 1056 008e E207     		lsls	r2, r4, #31
 721:Src/mpu6050_dmp.c ****     tmp[3] = (unsigned char)(dmp_thresh_2 & 0xFF);
 1057              		.loc 1 721 14 view .LVU361
 1058 0090 4FEA1023 		lsr	r3, r0, #8
 720:Src/mpu6050_dmp.c ****     tmp[2] = (unsigned char)(dmp_thresh_2 >> 8);
 1059              		.loc 1 720 14 view .LVU362
ARM GAS  /tmp/ccW0iIf7.s 			page 45


 1060 0094 8DF80550 		strb	r5, [sp, #5]
 721:Src/mpu6050_dmp.c ****     tmp[3] = (unsigned char)(dmp_thresh_2 & 0xFF);
 1061              		.loc 1 721 5 is_stmt 1 view .LVU363
 721:Src/mpu6050_dmp.c ****     tmp[3] = (unsigned char)(dmp_thresh_2 & 0xFF);
 1062              		.loc 1 721 14 is_stmt 0 view .LVU364
 1063 0098 8DF80630 		strb	r3, [sp, #6]
 722:Src/mpu6050_dmp.c **** 
 1064              		.loc 1 722 5 is_stmt 1 view .LVU365
 722:Src/mpu6050_dmp.c **** 
 1065              		.loc 1 722 14 is_stmt 0 view .LVU366
 1066 009c 8DF80700 		strb	r0, [sp, #7]
 724:Src/mpu6050_dmp.c ****         if (mpu_write_mem(DMP_TAP_THX, 2, tmp))
 1067              		.loc 1 724 5 is_stmt 1 view .LVU367
 724:Src/mpu6050_dmp.c ****         if (mpu_write_mem(DMP_TAP_THX, 2, tmp))
 1068              		.loc 1 724 8 is_stmt 0 view .LVU368
 1069 00a0 33D4     		bmi	.L77
 1070              	.LVL73:
 1071              	.L80:
 730:Src/mpu6050_dmp.c ****         if (mpu_write_mem(DMP_TAP_THY, 2, tmp))
 1072              		.loc 1 730 5 is_stmt 1 view .LVU369
 730:Src/mpu6050_dmp.c ****         if (mpu_write_mem(DMP_TAP_THY, 2, tmp))
 1073              		.loc 1 730 8 is_stmt 0 view .LVU370
 1074 00a2 A307     		lsls	r3, r4, #30
 1075 00a4 10D5     		bpl	.L79
 731:Src/mpu6050_dmp.c ****             return -1;
 1076              		.loc 1 731 9 is_stmt 1 view .LVU371
 731:Src/mpu6050_dmp.c ****             return -1;
 1077              		.loc 1 731 13 is_stmt 0 view .LVU372
 1078 00a6 0221     		movs	r1, #2
 1079 00a8 4FF4EC70 		mov	r0, #472
 1080 00ac 01AA     		add	r2, sp, #4
 1081 00ae FFF7FEFF 		bl	mpu_write_mem
 1082              	.LVL74:
 731:Src/mpu6050_dmp.c ****             return -1;
 1083              		.loc 1 731 12 view .LVU373
 1084 00b2 0028     		cmp	r0, #0
 1085 00b4 A9D1     		bne	.L83
 733:Src/mpu6050_dmp.c ****             return -1;
 1086              		.loc 1 733 9 is_stmt 1 view .LVU374
 733:Src/mpu6050_dmp.c ****             return -1;
 1087              		.loc 1 733 13 is_stmt 0 view .LVU375
 1088 00b6 0221     		movs	r1, #2
 1089 00b8 4FF49470 		mov	r0, #296
 1090 00bc 0DF10602 		add	r2, sp, #6
 1091 00c0 FFF7FEFF 		bl	mpu_write_mem
 1092              	.LVL75:
 733:Src/mpu6050_dmp.c ****             return -1;
 1093              		.loc 1 733 12 view .LVU376
 1094 00c4 0028     		cmp	r0, #0
 1095 00c6 A0D1     		bne	.L83
 1096              	.L79:
 736:Src/mpu6050_dmp.c ****         if (mpu_write_mem(DMP_TAP_THZ, 2, tmp))
 1097              		.loc 1 736 5 is_stmt 1 view .LVU377
 736:Src/mpu6050_dmp.c ****         if (mpu_write_mem(DMP_TAP_THZ, 2, tmp))
 1098              		.loc 1 736 8 is_stmt 0 view .LVU378
 1099 00c8 14F00400 		ands	r0, r4, #4
 1100 00cc 9FD0     		beq	.L67
ARM GAS  /tmp/ccW0iIf7.s 			page 46


 737:Src/mpu6050_dmp.c ****             return -1;
 1101              		.loc 1 737 9 is_stmt 1 view .LVU379
 737:Src/mpu6050_dmp.c ****             return -1;
 1102              		.loc 1 737 13 is_stmt 0 view .LVU380
 1103 00ce 0221     		movs	r1, #2
 1104 00d0 4FF4EE70 		mov	r0, #476
 1105 00d4 01AA     		add	r2, sp, #4
 1106 00d6 FFF7FEFF 		bl	mpu_write_mem
 1107              	.LVL76:
 737:Src/mpu6050_dmp.c ****             return -1;
 1108              		.loc 1 737 12 view .LVU381
 1109 00da 0028     		cmp	r0, #0
 1110 00dc 95D1     		bne	.L83
 739:Src/mpu6050_dmp.c ****             return -1;
 1111              		.loc 1 739 9 is_stmt 1 view .LVU382
 739:Src/mpu6050_dmp.c ****             return -1;
 1112              		.loc 1 739 13 is_stmt 0 view .LVU383
 1113 00de 0221     		movs	r1, #2
 1114 00e0 4FF49670 		mov	r0, #300
 1115 00e4 0DF10602 		add	r2, sp, #6
 1116 00e8 FFF7FEFF 		bl	mpu_write_mem
 1117              	.LVL77:
 739:Src/mpu6050_dmp.c ****             return -1;
 1118              		.loc 1 739 12 view .LVU384
 1119 00ec 0038     		subs	r0, r0, #0
 1120 00ee 18BF     		it	ne
 1121 00f0 0120     		movne	r0, #1
 1122 00f2 4042     		rsbs	r0, r0, #0
 1123 00f4 8BE7     		b	.L67
 1124              	.LVL78:
 1125              	.L71:
 707:Src/mpu6050_dmp.c ****         /* dmp_thresh * 0.75 */
 1126              		.loc 1 707 9 is_stmt 1 view .LVU385
 707:Src/mpu6050_dmp.c ****         /* dmp_thresh * 0.75 */
 1127              		.loc 1 707 53 is_stmt 0 view .LVU386
 1128 00f6 4FF08B41 		mov	r1, #1166016512
 1129 00fa 3046     		mov	r0, r6
 1130 00fc FFF7FEFF 		bl	__aeabi_fmul
 1131              	.LVL79:
 707:Src/mpu6050_dmp.c ****         /* dmp_thresh * 0.75 */
 1132              		.loc 1 707 20 view .LVU387
 1133 0100 FFF7FEFF 		bl	__aeabi_f2uiz
 1134              	.LVL80:
 709:Src/mpu6050_dmp.c ****         break;
 1135              		.loc 1 709 55 view .LVU388
 1136 0104 0E49     		ldr	r1, .L84+16
 707:Src/mpu6050_dmp.c ****         /* dmp_thresh * 0.75 */
 1137              		.loc 1 707 20 view .LVU389
 1138 0106 85B2     		uxth	r5, r0
 1139              	.LVL81:
 709:Src/mpu6050_dmp.c ****         break;
 1140              		.loc 1 709 9 is_stmt 1 view .LVU390
 1141 0108 B8E7     		b	.L82
 1142              	.LVL82:
 1143              	.L77:
 725:Src/mpu6050_dmp.c ****             return -1;
 1144              		.loc 1 725 9 view .LVU391
ARM GAS  /tmp/ccW0iIf7.s 			page 47


 725:Src/mpu6050_dmp.c ****             return -1;
 1145              		.loc 1 725 13 is_stmt 0 view .LVU392
 1146 010a 0221     		movs	r1, #2
 1147 010c 4FF4EA70 		mov	r0, #468
 1148              	.LVL83:
 725:Src/mpu6050_dmp.c ****             return -1;
 1149              		.loc 1 725 13 view .LVU393
 1150 0110 01AA     		add	r2, sp, #4
 1151 0112 FFF7FEFF 		bl	mpu_write_mem
 1152              	.LVL84:
 725:Src/mpu6050_dmp.c ****             return -1;
 1153              		.loc 1 725 12 view .LVU394
 1154 0116 0028     		cmp	r0, #0
 1155 0118 7FF477AF 		bne	.L83
 727:Src/mpu6050_dmp.c ****             return -1;
 1156              		.loc 1 727 9 is_stmt 1 view .LVU395
 727:Src/mpu6050_dmp.c ****             return -1;
 1157              		.loc 1 727 13 is_stmt 0 view .LVU396
 1158 011c 0221     		movs	r1, #2
 1159 011e 4FF49270 		mov	r0, #292
 1160 0122 0DF10602 		add	r2, sp, #6
 1161 0126 FFF7FEFF 		bl	mpu_write_mem
 1162              	.LVL85:
 727:Src/mpu6050_dmp.c ****             return -1;
 1163              		.loc 1 727 12 view .LVU397
 1164 012a 0028     		cmp	r0, #0
 1165 012c B9D0     		beq	.L80
 1166 012e 6CE7     		b	.L83
 1167              	.L85:
 1168              		.align	2
 1169              	.L84:
 1170 0130 00004843 		.word	1128792064
 1171 0134 0000C045 		.word	1170210816
 1172 0138 0000C044 		.word	1153433600
 1173 013c 00004046 		.word	1178599424
 1174 0140 00004045 		.word	1161822208
 1175              		.cfi_endproc
 1176              	.LFE65:
 1178              		.section	.text.dmp_set_tap_axes,"ax",%progbits
 1179              		.align	1
 1180              		.global	dmp_set_tap_axes
 1181              		.syntax unified
 1182              		.thumb
 1183              		.thumb_func
 1184              		.fpu softvfp
 1186              	dmp_set_tap_axes:
 1187              	.LVL86:
 1188              	.LFB66:
 751:Src/mpu6050_dmp.c ****     unsigned char tmp = 0;
 1189              		.loc 1 751 1 is_stmt 1 view -0
 1190              		.cfi_startproc
 1191              		@ args = 0, pretend = 0, frame = 8
 1192              		@ frame_needed = 0, uses_anonymous_args = 0
 752:Src/mpu6050_dmp.c **** 
 1193              		.loc 1 752 5 view .LVU399
 754:Src/mpu6050_dmp.c ****         tmp |= 0x30;
 1194              		.loc 1 754 5 view .LVU400
ARM GAS  /tmp/ccW0iIf7.s 			page 48


 754:Src/mpu6050_dmp.c ****         tmp |= 0x30;
 1195              		.loc 1 754 8 is_stmt 0 view .LVU401
 1196 0000 10F00103 		ands	r3, r0, #1
 755:Src/mpu6050_dmp.c ****     if (axis & TAP_Y)
 1197              		.loc 1 755 9 is_stmt 1 view .LVU402
 755:Src/mpu6050_dmp.c ****     if (axis & TAP_Y)
 1198              		.loc 1 755 13 is_stmt 0 view .LVU403
 1199 0004 18BF     		it	ne
 1200 0006 3023     		movne	r3, #48
 751:Src/mpu6050_dmp.c ****     unsigned char tmp = 0;
 1201              		.loc 1 751 1 view .LVU404
 1202 0008 07B5     		push	{r0, r1, r2, lr}
 1203              	.LCFI18:
 1204              		.cfi_def_cfa_offset 16
 1205              		.cfi_offset 14, -4
 756:Src/mpu6050_dmp.c ****         tmp |= 0x0C;
 1206              		.loc 1 756 8 view .LVU405
 1207 000a 8207     		lsls	r2, r0, #30
 755:Src/mpu6050_dmp.c ****     if (axis & TAP_Y)
 1208              		.loc 1 755 13 view .LVU406
 1209 000c 8DF80730 		strb	r3, [sp, #7]
 756:Src/mpu6050_dmp.c ****         tmp |= 0x0C;
 1210              		.loc 1 756 5 is_stmt 1 view .LVU407
 757:Src/mpu6050_dmp.c ****     if (axis & TAP_Z)
 1211              		.loc 1 757 9 view .LVU408
 757:Src/mpu6050_dmp.c ****     if (axis & TAP_Z)
 1212              		.loc 1 757 13 is_stmt 0 view .LVU409
 1213 0010 48BF     		it	mi
 1214 0012 9DF80730 		ldrbmi	r3, [sp, #7]	@ zero_extendqisi2
 760:Src/mpu6050_dmp.c **** }
 1215              		.loc 1 760 12 view .LVU410
 1216 0016 4FF00101 		mov	r1, #1
 757:Src/mpu6050_dmp.c ****     if (axis & TAP_Z)
 1217              		.loc 1 757 13 view .LVU411
 1218 001a 44BF     		itt	mi
 1219 001c 43F00C03 		orrmi	r3, r3, #12
 1220 0020 8DF80730 		strbmi	r3, [sp, #7]
 758:Src/mpu6050_dmp.c ****         tmp |= 0x03;
 1221              		.loc 1 758 5 is_stmt 1 view .LVU412
 758:Src/mpu6050_dmp.c ****         tmp |= 0x03;
 1222              		.loc 1 758 8 is_stmt 0 view .LVU413
 1223 0024 4307     		lsls	r3, r0, #29
 759:Src/mpu6050_dmp.c ****     return mpu_write_mem(D_1_72, 1, &tmp);
 1224              		.loc 1 759 9 is_stmt 1 view .LVU414
 759:Src/mpu6050_dmp.c ****     return mpu_write_mem(D_1_72, 1, &tmp);
 1225              		.loc 1 759 13 is_stmt 0 view .LVU415
 1226 0026 48BF     		it	mi
 1227 0028 9DF80730 		ldrbmi	r3, [sp, #7]	@ zero_extendqisi2
 760:Src/mpu6050_dmp.c **** }
 1228              		.loc 1 760 12 view .LVU416
 1229 002c 0DF10702 		add	r2, sp, #7
 759:Src/mpu6050_dmp.c ****     return mpu_write_mem(D_1_72, 1, &tmp);
 1230              		.loc 1 759 13 view .LVU417
 1231 0030 48BF     		it	mi
 1232 0032 43F00303 		orrmi	r3, r3, #3
 760:Src/mpu6050_dmp.c **** }
 1233              		.loc 1 760 12 view .LVU418
ARM GAS  /tmp/ccW0iIf7.s 			page 49


 1234 0036 4FF4A470 		mov	r0, #328
 1235              	.LVL87:
 759:Src/mpu6050_dmp.c ****     return mpu_write_mem(D_1_72, 1, &tmp);
 1236              		.loc 1 759 13 view .LVU419
 1237 003a 48BF     		it	mi
 1238 003c 8DF80730 		strbmi	r3, [sp, #7]
 760:Src/mpu6050_dmp.c **** }
 1239              		.loc 1 760 5 is_stmt 1 view .LVU420
 760:Src/mpu6050_dmp.c **** }
 1240              		.loc 1 760 12 is_stmt 0 view .LVU421
 1241 0040 FFF7FEFF 		bl	mpu_write_mem
 1242              	.LVL88:
 761:Src/mpu6050_dmp.c **** 
 1243              		.loc 1 761 1 view .LVU422
 1244 0044 03B0     		add	sp, sp, #12
 1245              	.LCFI19:
 1246              		.cfi_def_cfa_offset 4
 1247              		@ sp needed
 1248 0046 5DF804FB 		ldr	pc, [sp], #4
 1249              		.cfi_endproc
 1250              	.LFE66:
 1252              		.section	.text.dmp_set_tap_count,"ax",%progbits
 1253              		.align	1
 1254              		.global	dmp_set_tap_count
 1255              		.syntax unified
 1256              		.thumb
 1257              		.thumb_func
 1258              		.fpu softvfp
 1260              	dmp_set_tap_count:
 1261              	.LVL89:
 1262              	.LFB67:
 769:Src/mpu6050_dmp.c ****     unsigned char tmp;
 1263              		.loc 1 769 1 is_stmt 1 view -0
 1264              		.cfi_startproc
 1265              		@ args = 0, pretend = 0, frame = 8
 1266              		@ frame_needed = 0, uses_anonymous_args = 0
 770:Src/mpu6050_dmp.c **** 
 1267              		.loc 1 770 5 view .LVU424
 772:Src/mpu6050_dmp.c ****         min_taps = 1;
 1268              		.loc 1 772 5 view .LVU425
 1269 0000 0428     		cmp	r0, #4
 769:Src/mpu6050_dmp.c ****     unsigned char tmp;
 1270              		.loc 1 769 1 is_stmt 0 view .LVU426
 1271 0002 07B5     		push	{r0, r1, r2, lr}
 1272              	.LCFI20:
 1273              		.cfi_def_cfa_offset 16
 1274              		.cfi_offset 14, -4
 1275 0004 28BF     		it	cs
 1276 0006 0420     		movcs	r0, #4
 1277              	.LVL90:
 777:Src/mpu6050_dmp.c ****     return mpu_write_mem(D_1_79, 1, &tmp);
 1278              		.loc 1 777 5 is_stmt 1 view .LVU427
 777:Src/mpu6050_dmp.c ****     return mpu_write_mem(D_1_79, 1, &tmp);
 1279              		.loc 1 777 20 is_stmt 0 view .LVU428
 1280 0008 0128     		cmp	r0, #1
 1281 000a 38BF     		it	cc
 1282 000c 0120     		movcc	r0, #1
ARM GAS  /tmp/ccW0iIf7.s 			page 50


 1283              	.LVL91:
 777:Src/mpu6050_dmp.c ****     return mpu_write_mem(D_1_79, 1, &tmp);
 1284              		.loc 1 777 20 view .LVU429
 1285 000e 0138     		subs	r0, r0, #1
 777:Src/mpu6050_dmp.c ****     return mpu_write_mem(D_1_79, 1, &tmp);
 1286              		.loc 1 777 9 view .LVU430
 1287 0010 8DF80700 		strb	r0, [sp, #7]
 778:Src/mpu6050_dmp.c **** }
 1288              		.loc 1 778 5 is_stmt 1 view .LVU431
 778:Src/mpu6050_dmp.c **** }
 1289              		.loc 1 778 12 is_stmt 0 view .LVU432
 1290 0014 0121     		movs	r1, #1
 1291 0016 0DF10702 		add	r2, sp, #7
 1292 001a 40F24F10 		movw	r0, #335
 1293 001e FFF7FEFF 		bl	mpu_write_mem
 1294              	.LVL92:
 779:Src/mpu6050_dmp.c **** 
 1295              		.loc 1 779 1 view .LVU433
 1296 0022 03B0     		add	sp, sp, #12
 1297              	.LCFI21:
 1298              		.cfi_def_cfa_offset 4
 1299              		@ sp needed
 1300 0024 5DF804FB 		ldr	pc, [sp], #4
 1301              		.cfi_endproc
 1302              	.LFE67:
 1304              		.section	.text.dmp_set_tap_time,"ax",%progbits
 1305              		.align	1
 1306              		.global	dmp_set_tap_time
 1307              		.syntax unified
 1308              		.thumb
 1309              		.thumb_func
 1310              		.fpu softvfp
 1312              	dmp_set_tap_time:
 1313              	.LVL93:
 1314              	.LFB68:
 787:Src/mpu6050_dmp.c ****     unsigned short dmp_time;
 1315              		.loc 1 787 1 is_stmt 1 view -0
 1316              		.cfi_startproc
 1317              		@ args = 0, pretend = 0, frame = 8
 1318              		@ frame_needed = 0, uses_anonymous_args = 0
 788:Src/mpu6050_dmp.c ****     unsigned char tmp[2];
 1319              		.loc 1 788 5 view .LVU435
 789:Src/mpu6050_dmp.c **** 
 1320              		.loc 1 789 5 view .LVU436
 791:Src/mpu6050_dmp.c ****     tmp[0] = (unsigned char)(dmp_time >> 8);
 1321              		.loc 1 791 5 view .LVU437
 791:Src/mpu6050_dmp.c ****     tmp[0] = (unsigned char)(dmp_time >> 8);
 1322              		.loc 1 791 14 is_stmt 0 view .LVU438
 1323 0000 0523     		movs	r3, #5
 787:Src/mpu6050_dmp.c ****     unsigned short dmp_time;
 1324              		.loc 1 787 1 view .LVU439
 1325 0002 07B5     		push	{r0, r1, r2, lr}
 1326              	.LCFI22:
 1327              		.cfi_def_cfa_offset 16
 1328              		.cfi_offset 14, -4
 791:Src/mpu6050_dmp.c ****     tmp[0] = (unsigned char)(dmp_time >> 8);
 1329              		.loc 1 791 14 view .LVU440
ARM GAS  /tmp/ccW0iIf7.s 			page 51


 1330 0004 B0FBF3F0 		udiv	r0, r0, r3
 1331              	.LVL94:
 792:Src/mpu6050_dmp.c ****     tmp[1] = (unsigned char)(dmp_time & 0xFF);
 1332              		.loc 1 792 5 is_stmt 1 view .LVU441
 794:Src/mpu6050_dmp.c **** }
 1333              		.loc 1 794 12 is_stmt 0 view .LVU442
 1334 0008 0221     		movs	r1, #2
 792:Src/mpu6050_dmp.c ****     tmp[1] = (unsigned char)(dmp_time & 0xFF);
 1335              		.loc 1 792 14 view .LVU443
 1336 000a 030A     		lsrs	r3, r0, #8
 793:Src/mpu6050_dmp.c ****     return mpu_write_mem(DMP_TAPW_MIN, 2, tmp);
 1337              		.loc 1 793 14 view .LVU444
 1338 000c 8DF80500 		strb	r0, [sp, #5]
 794:Src/mpu6050_dmp.c **** }
 1339              		.loc 1 794 12 view .LVU445
 1340 0010 01AA     		add	r2, sp, #4
 1341 0012 4FF4EF70 		mov	r0, #478
 1342              	.LVL95:
 792:Src/mpu6050_dmp.c ****     tmp[1] = (unsigned char)(dmp_time & 0xFF);
 1343              		.loc 1 792 14 view .LVU446
 1344 0016 8DF80430 		strb	r3, [sp, #4]
 793:Src/mpu6050_dmp.c ****     return mpu_write_mem(DMP_TAPW_MIN, 2, tmp);
 1345              		.loc 1 793 5 is_stmt 1 view .LVU447
 794:Src/mpu6050_dmp.c **** }
 1346              		.loc 1 794 5 view .LVU448
 794:Src/mpu6050_dmp.c **** }
 1347              		.loc 1 794 12 is_stmt 0 view .LVU449
 1348 001a FFF7FEFF 		bl	mpu_write_mem
 1349              	.LVL96:
 795:Src/mpu6050_dmp.c **** 
 1350              		.loc 1 795 1 view .LVU450
 1351 001e 03B0     		add	sp, sp, #12
 1352              	.LCFI23:
 1353              		.cfi_def_cfa_offset 4
 1354              		@ sp needed
 1355 0020 5DF804FB 		ldr	pc, [sp], #4
 1356              		.cfi_endproc
 1357              	.LFE68:
 1359              		.section	.text.dmp_set_tap_time_multi,"ax",%progbits
 1360              		.align	1
 1361              		.global	dmp_set_tap_time_multi
 1362              		.syntax unified
 1363              		.thumb
 1364              		.thumb_func
 1365              		.fpu softvfp
 1367              	dmp_set_tap_time_multi:
 1368              	.LVL97:
 1369              	.LFB69:
 803:Src/mpu6050_dmp.c ****     unsigned short dmp_time;
 1370              		.loc 1 803 1 is_stmt 1 view -0
 1371              		.cfi_startproc
 1372              		@ args = 0, pretend = 0, frame = 8
 1373              		@ frame_needed = 0, uses_anonymous_args = 0
 804:Src/mpu6050_dmp.c ****     unsigned char tmp[2];
 1374              		.loc 1 804 5 view .LVU452
 805:Src/mpu6050_dmp.c **** 
 1375              		.loc 1 805 5 view .LVU453
ARM GAS  /tmp/ccW0iIf7.s 			page 52


 807:Src/mpu6050_dmp.c ****     tmp[0] = (unsigned char)(dmp_time >> 8);
 1376              		.loc 1 807 5 view .LVU454
 807:Src/mpu6050_dmp.c ****     tmp[0] = (unsigned char)(dmp_time >> 8);
 1377              		.loc 1 807 14 is_stmt 0 view .LVU455
 1378 0000 0523     		movs	r3, #5
 803:Src/mpu6050_dmp.c ****     unsigned short dmp_time;
 1379              		.loc 1 803 1 view .LVU456
 1380 0002 07B5     		push	{r0, r1, r2, lr}
 1381              	.LCFI24:
 1382              		.cfi_def_cfa_offset 16
 1383              		.cfi_offset 14, -4
 807:Src/mpu6050_dmp.c ****     tmp[0] = (unsigned char)(dmp_time >> 8);
 1384              		.loc 1 807 14 view .LVU457
 1385 0004 B0FBF3F0 		udiv	r0, r0, r3
 1386              	.LVL98:
 808:Src/mpu6050_dmp.c ****     tmp[1] = (unsigned char)(dmp_time & 0xFF);
 1387              		.loc 1 808 5 is_stmt 1 view .LVU458
 810:Src/mpu6050_dmp.c **** }
 1388              		.loc 1 810 12 is_stmt 0 view .LVU459
 1389 0008 0221     		movs	r1, #2
 808:Src/mpu6050_dmp.c ****     tmp[1] = (unsigned char)(dmp_time & 0xFF);
 1390              		.loc 1 808 14 view .LVU460
 1391 000a 030A     		lsrs	r3, r0, #8
 809:Src/mpu6050_dmp.c ****     return mpu_write_mem(D_1_218, 2, tmp);
 1392              		.loc 1 809 14 view .LVU461
 1393 000c 8DF80500 		strb	r0, [sp, #5]
 810:Src/mpu6050_dmp.c **** }
 1394              		.loc 1 810 12 view .LVU462
 1395 0010 01AA     		add	r2, sp, #4
 1396 0012 4FF4ED70 		mov	r0, #474
 1397              	.LVL99:
 808:Src/mpu6050_dmp.c ****     tmp[1] = (unsigned char)(dmp_time & 0xFF);
 1398              		.loc 1 808 14 view .LVU463
 1399 0016 8DF80430 		strb	r3, [sp, #4]
 809:Src/mpu6050_dmp.c ****     return mpu_write_mem(D_1_218, 2, tmp);
 1400              		.loc 1 809 5 is_stmt 1 view .LVU464
 810:Src/mpu6050_dmp.c **** }
 1401              		.loc 1 810 5 view .LVU465
 810:Src/mpu6050_dmp.c **** }
 1402              		.loc 1 810 12 is_stmt 0 view .LVU466
 1403 001a FFF7FEFF 		bl	mpu_write_mem
 1404              	.LVL100:
 811:Src/mpu6050_dmp.c **** 
 1405              		.loc 1 811 1 view .LVU467
 1406 001e 03B0     		add	sp, sp, #12
 1407              	.LCFI25:
 1408              		.cfi_def_cfa_offset 4
 1409              		@ sp needed
 1410 0020 5DF804FB 		ldr	pc, [sp], #4
 1411              		.cfi_endproc
 1412              	.LFE69:
 1414              		.section	.text.dmp_set_shake_reject_thresh,"ax",%progbits
 1415              		.align	1
 1416              		.global	dmp_set_shake_reject_thresh
 1417              		.syntax unified
 1418              		.thumb
 1419              		.thumb_func
ARM GAS  /tmp/ccW0iIf7.s 			page 53


 1420              		.fpu softvfp
 1422              	dmp_set_shake_reject_thresh:
 1423              	.LVL101:
 1424              	.LFB70:
 821:Src/mpu6050_dmp.c ****     unsigned char tmp[4];
 1425              		.loc 1 821 1 is_stmt 1 view -0
 1426              		.cfi_startproc
 1427              		@ args = 0, pretend = 0, frame = 8
 1428              		@ frame_needed = 0, uses_anonymous_args = 0
 822:Src/mpu6050_dmp.c ****     long thresh_scaled = sf / 1000 * thresh;
 1429              		.loc 1 822 5 view .LVU469
 823:Src/mpu6050_dmp.c ****     tmp[0] = (unsigned char)(((long)thresh_scaled >> 24) & 0xFF);
 1430              		.loc 1 823 5 view .LVU470
 823:Src/mpu6050_dmp.c ****     tmp[0] = (unsigned char)(((long)thresh_scaled >> 24) & 0xFF);
 1431              		.loc 1 823 29 is_stmt 0 view .LVU471
 1432 0000 4FF47A73 		mov	r3, #1000
 821:Src/mpu6050_dmp.c ****     unsigned char tmp[4];
 1433              		.loc 1 821 1 view .LVU472
 1434 0004 07B5     		push	{r0, r1, r2, lr}
 1435              	.LCFI26:
 1436              		.cfi_def_cfa_offset 16
 1437              		.cfi_offset 14, -4
 823:Src/mpu6050_dmp.c ****     tmp[0] = (unsigned char)(((long)thresh_scaled >> 24) & 0xFF);
 1438              		.loc 1 823 29 view .LVU473
 1439 0006 90FBF3F0 		sdiv	r0, r0, r3
 1440              	.LVL102:
 823:Src/mpu6050_dmp.c ****     tmp[0] = (unsigned char)(((long)thresh_scaled >> 24) & 0xFF);
 1441              		.loc 1 823 10 view .LVU474
 1442 000a 4143     		muls	r1, r0, r1
 1443              	.LVL103:
 824:Src/mpu6050_dmp.c ****     tmp[1] = (unsigned char)(((long)thresh_scaled >> 16) & 0xFF);
 1444              		.loc 1 824 5 is_stmt 1 view .LVU475
 824:Src/mpu6050_dmp.c ****     tmp[1] = (unsigned char)(((long)thresh_scaled >> 16) & 0xFF);
 1445              		.loc 1 824 51 is_stmt 0 view .LVU476
 1446 000c 0B16     		asrs	r3, r1, #24
 824:Src/mpu6050_dmp.c ****     tmp[1] = (unsigned char)(((long)thresh_scaled >> 16) & 0xFF);
 1447              		.loc 1 824 14 view .LVU477
 1448 000e 8DF80430 		strb	r3, [sp, #4]
 825:Src/mpu6050_dmp.c ****     tmp[2] = (unsigned char)(((long)thresh_scaled >> 8) & 0xFF);
 1449              		.loc 1 825 5 is_stmt 1 view .LVU478
 825:Src/mpu6050_dmp.c ****     tmp[2] = (unsigned char)(((long)thresh_scaled >> 8) & 0xFF);
 1450              		.loc 1 825 51 is_stmt 0 view .LVU479
 1451 0012 0B14     		asrs	r3, r1, #16
 825:Src/mpu6050_dmp.c ****     tmp[2] = (unsigned char)(((long)thresh_scaled >> 8) & 0xFF);
 1452              		.loc 1 825 14 view .LVU480
 1453 0014 8DF80530 		strb	r3, [sp, #5]
 826:Src/mpu6050_dmp.c ****     tmp[3] = (unsigned char)((long)thresh_scaled & 0xFF);
 1454              		.loc 1 826 5 is_stmt 1 view .LVU481
 827:Src/mpu6050_dmp.c ****     return mpu_write_mem(D_1_92, 4, tmp);
 1455              		.loc 1 827 14 is_stmt 0 view .LVU482
 1456 0018 8DF80710 		strb	r1, [sp, #7]
 826:Src/mpu6050_dmp.c ****     tmp[3] = (unsigned char)((long)thresh_scaled & 0xFF);
 1457              		.loc 1 826 51 view .LVU483
 1458 001c 0B12     		asrs	r3, r1, #8
 828:Src/mpu6050_dmp.c **** }
 1459              		.loc 1 828 12 view .LVU484
 1460 001e 01AA     		add	r2, sp, #4
ARM GAS  /tmp/ccW0iIf7.s 			page 54


 1461 0020 0421     		movs	r1, #4
 1462              	.LVL104:
 828:Src/mpu6050_dmp.c **** }
 1463              		.loc 1 828 12 view .LVU485
 1464 0022 4FF4AE70 		mov	r0, #348
 826:Src/mpu6050_dmp.c ****     tmp[3] = (unsigned char)((long)thresh_scaled & 0xFF);
 1465              		.loc 1 826 14 view .LVU486
 1466 0026 8DF80630 		strb	r3, [sp, #6]
 827:Src/mpu6050_dmp.c ****     return mpu_write_mem(D_1_92, 4, tmp);
 1467              		.loc 1 827 5 is_stmt 1 view .LVU487
 828:Src/mpu6050_dmp.c **** }
 1468              		.loc 1 828 5 view .LVU488
 828:Src/mpu6050_dmp.c **** }
 1469              		.loc 1 828 12 is_stmt 0 view .LVU489
 1470 002a FFF7FEFF 		bl	mpu_write_mem
 1471              	.LVL105:
 829:Src/mpu6050_dmp.c **** 
 1472              		.loc 1 829 1 view .LVU490
 1473 002e 03B0     		add	sp, sp, #12
 1474              	.LCFI27:
 1475              		.cfi_def_cfa_offset 4
 1476              		@ sp needed
 1477 0030 5DF804FB 		ldr	pc, [sp], #4
 1478              		.cfi_endproc
 1479              	.LFE70:
 1481              		.section	.text.dmp_set_shake_reject_time,"ax",%progbits
 1482              		.align	1
 1483              		.global	dmp_set_shake_reject_time
 1484              		.syntax unified
 1485              		.thumb
 1486              		.thumb_func
 1487              		.fpu softvfp
 1489              	dmp_set_shake_reject_time:
 1490              	.LVL106:
 1491              	.LFB71:
 840:Src/mpu6050_dmp.c ****     unsigned char tmp[2];
 1492              		.loc 1 840 1 is_stmt 1 view -0
 1493              		.cfi_startproc
 1494              		@ args = 0, pretend = 0, frame = 8
 1495              		@ frame_needed = 0, uses_anonymous_args = 0
 841:Src/mpu6050_dmp.c **** 
 1496              		.loc 1 841 5 view .LVU492
 843:Src/mpu6050_dmp.c ****     tmp[0] = time >> 8;
 1497              		.loc 1 843 5 view .LVU493
 843:Src/mpu6050_dmp.c ****     tmp[0] = time >> 8;
 1498              		.loc 1 843 10 is_stmt 0 view .LVU494
 1499 0000 0523     		movs	r3, #5
 840:Src/mpu6050_dmp.c ****     unsigned char tmp[2];
 1500              		.loc 1 840 1 view .LVU495
 1501 0002 07B5     		push	{r0, r1, r2, lr}
 1502              	.LCFI28:
 1503              		.cfi_def_cfa_offset 16
 1504              		.cfi_offset 14, -4
 843:Src/mpu6050_dmp.c ****     tmp[0] = time >> 8;
 1505              		.loc 1 843 10 view .LVU496
 1506 0004 B0FBF3F0 		udiv	r0, r0, r3
 1507              	.LVL107:
ARM GAS  /tmp/ccW0iIf7.s 			page 55


 844:Src/mpu6050_dmp.c ****     tmp[1] = time & 0xFF;
 1508              		.loc 1 844 5 is_stmt 1 view .LVU497
 846:Src/mpu6050_dmp.c **** }
 1509              		.loc 1 846 12 is_stmt 0 view .LVU498
 1510 0008 0221     		movs	r1, #2
 844:Src/mpu6050_dmp.c ****     tmp[1] = time & 0xFF;
 1511              		.loc 1 844 12 view .LVU499
 1512 000a 030A     		lsrs	r3, r0, #8
 845:Src/mpu6050_dmp.c ****     return mpu_write_mem(D_1_90,2,tmp);
 1513              		.loc 1 845 12 view .LVU500
 1514 000c 8DF80500 		strb	r0, [sp, #5]
 846:Src/mpu6050_dmp.c **** }
 1515              		.loc 1 846 12 view .LVU501
 1516 0010 01AA     		add	r2, sp, #4
 1517 0012 4FF4AD70 		mov	r0, #346
 1518              	.LVL108:
 844:Src/mpu6050_dmp.c ****     tmp[1] = time & 0xFF;
 1519              		.loc 1 844 12 view .LVU502
 1520 0016 8DF80430 		strb	r3, [sp, #4]
 845:Src/mpu6050_dmp.c ****     return mpu_write_mem(D_1_90,2,tmp);
 1521              		.loc 1 845 5 is_stmt 1 view .LVU503
 846:Src/mpu6050_dmp.c **** }
 1522              		.loc 1 846 5 view .LVU504
 846:Src/mpu6050_dmp.c **** }
 1523              		.loc 1 846 12 is_stmt 0 view .LVU505
 1524 001a FFF7FEFF 		bl	mpu_write_mem
 1525              	.LVL109:
 847:Src/mpu6050_dmp.c **** 
 1526              		.loc 1 847 1 view .LVU506
 1527 001e 03B0     		add	sp, sp, #12
 1528              	.LCFI29:
 1529              		.cfi_def_cfa_offset 4
 1530              		@ sp needed
 1531 0020 5DF804FB 		ldr	pc, [sp], #4
 1532              		.cfi_endproc
 1533              	.LFE71:
 1535              		.section	.text.dmp_set_shake_reject_timeout,"ax",%progbits
 1536              		.align	1
 1537              		.global	dmp_set_shake_reject_timeout
 1538              		.syntax unified
 1539              		.thumb
 1540              		.thumb_func
 1541              		.fpu softvfp
 1543              	dmp_set_shake_reject_timeout:
 1544              	.LVL110:
 1545              	.LFB72:
 858:Src/mpu6050_dmp.c ****     unsigned char tmp[2];
 1546              		.loc 1 858 1 is_stmt 1 view -0
 1547              		.cfi_startproc
 1548              		@ args = 0, pretend = 0, frame = 8
 1549              		@ frame_needed = 0, uses_anonymous_args = 0
 859:Src/mpu6050_dmp.c **** 
 1550              		.loc 1 859 5 view .LVU508
 861:Src/mpu6050_dmp.c ****     tmp[0] = time >> 8;
 1551              		.loc 1 861 5 view .LVU509
 861:Src/mpu6050_dmp.c ****     tmp[0] = time >> 8;
 1552              		.loc 1 861 10 is_stmt 0 view .LVU510
ARM GAS  /tmp/ccW0iIf7.s 			page 56


 1553 0000 0523     		movs	r3, #5
 858:Src/mpu6050_dmp.c ****     unsigned char tmp[2];
 1554              		.loc 1 858 1 view .LVU511
 1555 0002 07B5     		push	{r0, r1, r2, lr}
 1556              	.LCFI30:
 1557              		.cfi_def_cfa_offset 16
 1558              		.cfi_offset 14, -4
 861:Src/mpu6050_dmp.c ****     tmp[0] = time >> 8;
 1559              		.loc 1 861 10 view .LVU512
 1560 0004 B0FBF3F0 		udiv	r0, r0, r3
 1561              	.LVL111:
 862:Src/mpu6050_dmp.c ****     tmp[1] = time & 0xFF;
 1562              		.loc 1 862 5 is_stmt 1 view .LVU513
 864:Src/mpu6050_dmp.c **** }
 1563              		.loc 1 864 12 is_stmt 0 view .LVU514
 1564 0008 0221     		movs	r1, #2
 862:Src/mpu6050_dmp.c ****     tmp[1] = time & 0xFF;
 1565              		.loc 1 862 12 view .LVU515
 1566 000a 030A     		lsrs	r3, r0, #8
 863:Src/mpu6050_dmp.c ****     return mpu_write_mem(D_1_88,2,tmp);
 1567              		.loc 1 863 12 view .LVU516
 1568 000c 8DF80500 		strb	r0, [sp, #5]
 864:Src/mpu6050_dmp.c **** }
 1569              		.loc 1 864 12 view .LVU517
 1570 0010 01AA     		add	r2, sp, #4
 1571 0012 4FF4AC70 		mov	r0, #344
 1572              	.LVL112:
 862:Src/mpu6050_dmp.c ****     tmp[1] = time & 0xFF;
 1573              		.loc 1 862 12 view .LVU518
 1574 0016 8DF80430 		strb	r3, [sp, #4]
 863:Src/mpu6050_dmp.c ****     return mpu_write_mem(D_1_88,2,tmp);
 1575              		.loc 1 863 5 is_stmt 1 view .LVU519
 864:Src/mpu6050_dmp.c **** }
 1576              		.loc 1 864 5 view .LVU520
 864:Src/mpu6050_dmp.c **** }
 1577              		.loc 1 864 12 is_stmt 0 view .LVU521
 1578 001a FFF7FEFF 		bl	mpu_write_mem
 1579              	.LVL113:
 865:Src/mpu6050_dmp.c **** 
 1580              		.loc 1 865 1 view .LVU522
 1581 001e 03B0     		add	sp, sp, #12
 1582              	.LCFI31:
 1583              		.cfi_def_cfa_offset 4
 1584              		@ sp needed
 1585 0020 5DF804FB 		ldr	pc, [sp], #4
 1586              		.cfi_endproc
 1587              	.LFE72:
 1589              		.section	.text.dmp_get_pedometer_step_count,"ax",%progbits
 1590              		.align	1
 1591              		.global	dmp_get_pedometer_step_count
 1592              		.syntax unified
 1593              		.thumb
 1594              		.thumb_func
 1595              		.fpu softvfp
 1597              	dmp_get_pedometer_step_count:
 1598              	.LVL114:
 1599              	.LFB73:
ARM GAS  /tmp/ccW0iIf7.s 			page 57


 873:Src/mpu6050_dmp.c ****     unsigned char tmp[4];
 1600              		.loc 1 873 1 is_stmt 1 view -0
 1601              		.cfi_startproc
 1602              		@ args = 0, pretend = 0, frame = 8
 1603              		@ frame_needed = 0, uses_anonymous_args = 0
 874:Src/mpu6050_dmp.c ****     if (!count)
 1604              		.loc 1 874 5 view .LVU524
 875:Src/mpu6050_dmp.c ****         return -1;
 1605              		.loc 1 875 5 view .LVU525
 873:Src/mpu6050_dmp.c ****     unsigned char tmp[4];
 1606              		.loc 1 873 1 is_stmt 0 view .LVU526
 1607 0000 13B5     		push	{r0, r1, r4, lr}
 1608              	.LCFI32:
 1609              		.cfi_def_cfa_offset 16
 1610              		.cfi_offset 4, -8
 1611              		.cfi_offset 14, -4
 875:Src/mpu6050_dmp.c ****         return -1;
 1612              		.loc 1 875 8 view .LVU527
 1613 0002 0446     		mov	r4, r0
 1614 0004 18B9     		cbnz	r0, .L105
 1615              	.LVL115:
 1616              	.L107:
 876:Src/mpu6050_dmp.c **** 
 1617              		.loc 1 876 16 view .LVU528
 1618 0006 4FF0FF30 		mov	r0, #-1
 1619              	.L104:
 884:Src/mpu6050_dmp.c **** 
 1620              		.loc 1 884 1 view .LVU529
 1621 000a 02B0     		add	sp, sp, #8
 1622              	.LCFI33:
 1623              		.cfi_remember_state
 1624              		.cfi_def_cfa_offset 8
 1625              		@ sp needed
 1626 000c 10BD     		pop	{r4, pc}
 1627              	.LVL116:
 1628              	.L105:
 1629              	.LCFI34:
 1630              		.cfi_restore_state
 878:Src/mpu6050_dmp.c ****         return -1;
 1631              		.loc 1 878 5 is_stmt 1 view .LVU530
 878:Src/mpu6050_dmp.c ****         return -1;
 1632              		.loc 1 878 9 is_stmt 0 view .LVU531
 1633 000e 0421     		movs	r1, #4
 1634 0010 4FF45870 		mov	r0, #864
 1635              	.LVL117:
 878:Src/mpu6050_dmp.c ****         return -1;
 1636              		.loc 1 878 9 view .LVU532
 1637 0014 01AA     		add	r2, sp, #4
 1638 0016 FFF7FEFF 		bl	mpu_read_mem
 1639              	.LVL118:
 878:Src/mpu6050_dmp.c ****         return -1;
 1640              		.loc 1 878 8 view .LVU533
 1641 001a 0028     		cmp	r0, #0
 1642 001c F3D1     		bne	.L107
 881:Src/mpu6050_dmp.c ****         ((unsigned long)tmp[2] << 8) | tmp[3];
 1643              		.loc 1 881 5 is_stmt 1 view .LVU534
 1644 001e 019B     		ldr	r3, [sp, #4]
ARM GAS  /tmp/ccW0iIf7.s 			page 58


 1645 0020 1BBA     		rev	r3, r3
 881:Src/mpu6050_dmp.c ****         ((unsigned long)tmp[2] << 8) | tmp[3];
 1646              		.loc 1 881 14 is_stmt 0 view .LVU535
 1647 0022 2360     		str	r3, [r4]
 883:Src/mpu6050_dmp.c **** }
 1648              		.loc 1 883 5 is_stmt 1 view .LVU536
 883:Src/mpu6050_dmp.c **** }
 1649              		.loc 1 883 12 is_stmt 0 view .LVU537
 1650 0024 F1E7     		b	.L104
 1651              		.cfi_endproc
 1652              	.LFE73:
 1654              		.section	.text.dmp_set_pedometer_step_count,"ax",%progbits
 1655              		.align	1
 1656              		.global	dmp_set_pedometer_step_count
 1657              		.syntax unified
 1658              		.thumb
 1659              		.thumb_func
 1660              		.fpu softvfp
 1662              	dmp_set_pedometer_step_count:
 1663              	.LVL119:
 1664              	.LFB74:
 894:Src/mpu6050_dmp.c ****     unsigned char tmp[4];
 1665              		.loc 1 894 1 is_stmt 1 view -0
 1666              		.cfi_startproc
 1667              		@ args = 0, pretend = 0, frame = 8
 1668              		@ frame_needed = 0, uses_anonymous_args = 0
 895:Src/mpu6050_dmp.c **** 
 1669              		.loc 1 895 5 view .LVU539
 897:Src/mpu6050_dmp.c ****     tmp[1] = (unsigned char)((count >> 16) & 0xFF);
 1670              		.loc 1 897 5 view .LVU540
 894:Src/mpu6050_dmp.c ****     unsigned char tmp[4];
 1671              		.loc 1 894 1 is_stmt 0 view .LVU541
 1672 0000 07B5     		push	{r0, r1, r2, lr}
 1673              	.LCFI35:
 1674              		.cfi_def_cfa_offset 16
 1675              		.cfi_offset 14, -4
 897:Src/mpu6050_dmp.c ****     tmp[1] = (unsigned char)((count >> 16) & 0xFF);
 1676              		.loc 1 897 37 view .LVU542
 1677 0002 030E     		lsrs	r3, r0, #24
 897:Src/mpu6050_dmp.c ****     tmp[1] = (unsigned char)((count >> 16) & 0xFF);
 1678              		.loc 1 897 14 view .LVU543
 1679 0004 8DF80430 		strb	r3, [sp, #4]
 898:Src/mpu6050_dmp.c ****     tmp[2] = (unsigned char)((count >> 8) & 0xFF);
 1680              		.loc 1 898 5 is_stmt 1 view .LVU544
 898:Src/mpu6050_dmp.c ****     tmp[2] = (unsigned char)((count >> 8) & 0xFF);
 1681              		.loc 1 898 37 is_stmt 0 view .LVU545
 1682 0008 030C     		lsrs	r3, r0, #16
 898:Src/mpu6050_dmp.c ****     tmp[2] = (unsigned char)((count >> 8) & 0xFF);
 1683              		.loc 1 898 14 view .LVU546
 1684 000a 8DF80530 		strb	r3, [sp, #5]
 899:Src/mpu6050_dmp.c ****     tmp[3] = (unsigned char)(count & 0xFF);
 1685              		.loc 1 899 5 is_stmt 1 view .LVU547
 900:Src/mpu6050_dmp.c ****     return mpu_write_mem(D_PEDSTD_STEPCTR, 4, tmp);
 1686              		.loc 1 900 14 is_stmt 0 view .LVU548
 1687 000e 8DF80700 		strb	r0, [sp, #7]
 899:Src/mpu6050_dmp.c ****     tmp[3] = (unsigned char)(count & 0xFF);
 1688              		.loc 1 899 37 view .LVU549
ARM GAS  /tmp/ccW0iIf7.s 			page 59


 1689 0012 030A     		lsrs	r3, r0, #8
 901:Src/mpu6050_dmp.c **** }
 1690              		.loc 1 901 12 view .LVU550
 1691 0014 0421     		movs	r1, #4
 1692 0016 01AA     		add	r2, sp, #4
 1693 0018 4FF45870 		mov	r0, #864
 1694              	.LVL120:
 899:Src/mpu6050_dmp.c ****     tmp[3] = (unsigned char)(count & 0xFF);
 1695              		.loc 1 899 14 view .LVU551
 1696 001c 8DF80630 		strb	r3, [sp, #6]
 900:Src/mpu6050_dmp.c ****     return mpu_write_mem(D_PEDSTD_STEPCTR, 4, tmp);
 1697              		.loc 1 900 5 is_stmt 1 view .LVU552
 901:Src/mpu6050_dmp.c **** }
 1698              		.loc 1 901 5 view .LVU553
 901:Src/mpu6050_dmp.c **** }
 1699              		.loc 1 901 12 is_stmt 0 view .LVU554
 1700 0020 FFF7FEFF 		bl	mpu_write_mem
 1701              	.LVL121:
 902:Src/mpu6050_dmp.c **** 
 1702              		.loc 1 902 1 view .LVU555
 1703 0024 03B0     		add	sp, sp, #12
 1704              	.LCFI36:
 1705              		.cfi_def_cfa_offset 4
 1706              		@ sp needed
 1707 0026 5DF804FB 		ldr	pc, [sp], #4
 1708              		.cfi_endproc
 1709              	.LFE74:
 1711              		.section	.text.dmp_get_pedometer_walk_time,"ax",%progbits
 1712              		.align	1
 1713              		.global	dmp_get_pedometer_walk_time
 1714              		.syntax unified
 1715              		.thumb
 1716              		.thumb_func
 1717              		.fpu softvfp
 1719              	dmp_get_pedometer_walk_time:
 1720              	.LVL122:
 1721              	.LFB75:
 910:Src/mpu6050_dmp.c ****     unsigned char tmp[4];
 1722              		.loc 1 910 1 is_stmt 1 view -0
 1723              		.cfi_startproc
 1724              		@ args = 0, pretend = 0, frame = 8
 1725              		@ frame_needed = 0, uses_anonymous_args = 0
 911:Src/mpu6050_dmp.c ****     if (!time)
 1726              		.loc 1 911 5 view .LVU557
 912:Src/mpu6050_dmp.c ****         return -1;
 1727              		.loc 1 912 5 view .LVU558
 910:Src/mpu6050_dmp.c ****     unsigned char tmp[4];
 1728              		.loc 1 910 1 is_stmt 0 view .LVU559
 1729 0000 13B5     		push	{r0, r1, r4, lr}
 1730              	.LCFI37:
 1731              		.cfi_def_cfa_offset 16
 1732              		.cfi_offset 4, -8
 1733              		.cfi_offset 14, -4
 912:Src/mpu6050_dmp.c ****         return -1;
 1734              		.loc 1 912 8 view .LVU560
 1735 0002 0446     		mov	r4, r0
 1736 0004 18B9     		cbnz	r0, .L110
ARM GAS  /tmp/ccW0iIf7.s 			page 60


 1737              	.LVL123:
 1738              	.L112:
 913:Src/mpu6050_dmp.c **** 
 1739              		.loc 1 913 16 view .LVU561
 1740 0006 4FF0FF30 		mov	r0, #-1
 1741              	.L109:
 921:Src/mpu6050_dmp.c **** 
 1742              		.loc 1 921 1 view .LVU562
 1743 000a 02B0     		add	sp, sp, #8
 1744              	.LCFI38:
 1745              		.cfi_remember_state
 1746              		.cfi_def_cfa_offset 8
 1747              		@ sp needed
 1748 000c 10BD     		pop	{r4, pc}
 1749              	.LVL124:
 1750              	.L110:
 1751              	.LCFI39:
 1752              		.cfi_restore_state
 915:Src/mpu6050_dmp.c ****         return -1;
 1753              		.loc 1 915 5 is_stmt 1 view .LVU563
 915:Src/mpu6050_dmp.c ****         return -1;
 1754              		.loc 1 915 9 is_stmt 0 view .LVU564
 1755 000e 0421     		movs	r1, #4
 1756 0010 4FF47170 		mov	r0, #964
 1757              	.LVL125:
 915:Src/mpu6050_dmp.c ****         return -1;
 1758              		.loc 1 915 9 view .LVU565
 1759 0014 01AA     		add	r2, sp, #4
 1760 0016 FFF7FEFF 		bl	mpu_read_mem
 1761              	.LVL126:
 915:Src/mpu6050_dmp.c ****         return -1;
 1762              		.loc 1 915 8 view .LVU566
 1763 001a 0028     		cmp	r0, #0
 1764 001c F3D1     		bne	.L112
 918:Src/mpu6050_dmp.c ****         ((unsigned long)tmp[2] << 8) | tmp[3]) * 20;
 1765              		.loc 1 918 5 is_stmt 1 view .LVU567
 919:Src/mpu6050_dmp.c ****     return 0;
 1766              		.loc 1 919 48 is_stmt 0 view .LVU568
 1767 001e 1422     		movs	r2, #20
 1768 0020 019B     		ldr	r3, [sp, #4]
 1769 0022 1BBA     		rev	r3, r3
 1770 0024 5343     		muls	r3, r2, r3
 918:Src/mpu6050_dmp.c ****         ((unsigned long)tmp[2] << 8) | tmp[3]) * 20;
 1771              		.loc 1 918 13 view .LVU569
 1772 0026 2360     		str	r3, [r4]
 920:Src/mpu6050_dmp.c **** }
 1773              		.loc 1 920 5 is_stmt 1 view .LVU570
 920:Src/mpu6050_dmp.c **** }
 1774              		.loc 1 920 12 is_stmt 0 view .LVU571
 1775 0028 EFE7     		b	.L109
 1776              		.cfi_endproc
 1777              	.LFE75:
 1779              		.section	.text.dmp_set_pedometer_walk_time,"ax",%progbits
 1780              		.align	1
 1781              		.global	dmp_set_pedometer_walk_time
 1782              		.syntax unified
 1783              		.thumb
ARM GAS  /tmp/ccW0iIf7.s 			page 61


 1784              		.thumb_func
 1785              		.fpu softvfp
 1787              	dmp_set_pedometer_walk_time:
 1788              	.LVL127:
 1789              	.LFB76:
 930:Src/mpu6050_dmp.c ****     unsigned char tmp[4];
 1790              		.loc 1 930 1 is_stmt 1 view -0
 1791              		.cfi_startproc
 1792              		@ args = 0, pretend = 0, frame = 8
 1793              		@ frame_needed = 0, uses_anonymous_args = 0
 931:Src/mpu6050_dmp.c **** 
 1794              		.loc 1 931 5 view .LVU573
 933:Src/mpu6050_dmp.c **** 
 1795              		.loc 1 933 5 view .LVU574
 933:Src/mpu6050_dmp.c **** 
 1796              		.loc 1 933 10 is_stmt 0 view .LVU575
 1797 0000 1423     		movs	r3, #20
 930:Src/mpu6050_dmp.c ****     unsigned char tmp[4];
 1798              		.loc 1 930 1 view .LVU576
 1799 0002 07B5     		push	{r0, r1, r2, lr}
 1800              	.LCFI40:
 1801              		.cfi_def_cfa_offset 16
 1802              		.cfi_offset 14, -4
 933:Src/mpu6050_dmp.c **** 
 1803              		.loc 1 933 10 view .LVU577
 1804 0004 B0FBF3F0 		udiv	r0, r0, r3
 1805              	.LVL128:
 935:Src/mpu6050_dmp.c ****     tmp[1] = (unsigned char)((time >> 16) & 0xFF);
 1806              		.loc 1 935 5 is_stmt 1 view .LVU578
 935:Src/mpu6050_dmp.c ****     tmp[1] = (unsigned char)((time >> 16) & 0xFF);
 1807              		.loc 1 935 36 is_stmt 0 view .LVU579
 1808 0008 030E     		lsrs	r3, r0, #24
 935:Src/mpu6050_dmp.c ****     tmp[1] = (unsigned char)((time >> 16) & 0xFF);
 1809              		.loc 1 935 14 view .LVU580
 1810 000a 8DF80430 		strb	r3, [sp, #4]
 936:Src/mpu6050_dmp.c ****     tmp[2] = (unsigned char)((time >> 8) & 0xFF);
 1811              		.loc 1 936 5 is_stmt 1 view .LVU581
 936:Src/mpu6050_dmp.c ****     tmp[2] = (unsigned char)((time >> 8) & 0xFF);
 1812              		.loc 1 936 36 is_stmt 0 view .LVU582
 1813 000e 030C     		lsrs	r3, r0, #16
 936:Src/mpu6050_dmp.c ****     tmp[2] = (unsigned char)((time >> 8) & 0xFF);
 1814              		.loc 1 936 14 view .LVU583
 1815 0010 8DF80530 		strb	r3, [sp, #5]
 937:Src/mpu6050_dmp.c ****     tmp[3] = (unsigned char)(time & 0xFF);
 1816              		.loc 1 937 5 is_stmt 1 view .LVU584
 938:Src/mpu6050_dmp.c ****     return mpu_write_mem(D_PEDSTD_TIMECTR, 4, tmp);
 1817              		.loc 1 938 14 is_stmt 0 view .LVU585
 1818 0014 8DF80700 		strb	r0, [sp, #7]
 937:Src/mpu6050_dmp.c ****     tmp[3] = (unsigned char)(time & 0xFF);
 1819              		.loc 1 937 36 view .LVU586
 1820 0018 030A     		lsrs	r3, r0, #8
 939:Src/mpu6050_dmp.c **** }
 1821              		.loc 1 939 12 view .LVU587
 1822 001a 0421     		movs	r1, #4
 1823 001c 01AA     		add	r2, sp, #4
 1824 001e 4FF47170 		mov	r0, #964
 1825              	.LVL129:
ARM GAS  /tmp/ccW0iIf7.s 			page 62


 937:Src/mpu6050_dmp.c ****     tmp[3] = (unsigned char)(time & 0xFF);
 1826              		.loc 1 937 14 view .LVU588
 1827 0022 8DF80630 		strb	r3, [sp, #6]
 938:Src/mpu6050_dmp.c ****     return mpu_write_mem(D_PEDSTD_TIMECTR, 4, tmp);
 1828              		.loc 1 938 5 is_stmt 1 view .LVU589
 939:Src/mpu6050_dmp.c **** }
 1829              		.loc 1 939 5 view .LVU590
 939:Src/mpu6050_dmp.c **** }
 1830              		.loc 1 939 12 is_stmt 0 view .LVU591
 1831 0026 FFF7FEFF 		bl	mpu_write_mem
 1832              	.LVL130:
 940:Src/mpu6050_dmp.c **** 
 1833              		.loc 1 940 1 view .LVU592
 1834 002a 03B0     		add	sp, sp, #12
 1835              	.LCFI41:
 1836              		.cfi_def_cfa_offset 4
 1837              		@ sp needed
 1838 002c 5DF804FB 		ldr	pc, [sp], #4
 1839              		.cfi_endproc
 1840              	.LFE76:
 1842              		.section	.text.dmp_get_enabled_features,"ax",%progbits
 1843              		.align	1
 1844              		.global	dmp_get_enabled_features
 1845              		.syntax unified
 1846              		.thumb
 1847              		.thumb_func
 1848              		.fpu softvfp
 1850              	dmp_get_enabled_features:
 1851              	.LVL131:
 1852              	.LFB78:
1080:Src/mpu6050_dmp.c ****     mask[0] = dmp.feature_mask;
 1853              		.loc 1 1080 1 is_stmt 1 view -0
 1854              		.cfi_startproc
 1855              		@ args = 0, pretend = 0, frame = 0
 1856              		@ frame_needed = 0, uses_anonymous_args = 0
 1857              		@ link register save eliminated.
1081:Src/mpu6050_dmp.c ****     return 0;
 1858              		.loc 1 1081 5 view .LVU594
1081:Src/mpu6050_dmp.c ****     return 0;
 1859              		.loc 1 1081 18 is_stmt 0 view .LVU595
 1860 0000 024B     		ldr	r3, .L115
1081:Src/mpu6050_dmp.c ****     return 0;
 1861              		.loc 1 1081 13 view .LVU596
 1862 0002 5B89     		ldrh	r3, [r3, #10]
 1863 0004 0380     		strh	r3, [r0]	@ movhi
1082:Src/mpu6050_dmp.c **** }
 1864              		.loc 1 1082 5 is_stmt 1 view .LVU597
1083:Src/mpu6050_dmp.c **** 
 1865              		.loc 1 1083 1 is_stmt 0 view .LVU598
 1866 0006 0020     		movs	r0, #0
 1867              	.LVL132:
1083:Src/mpu6050_dmp.c **** 
 1868              		.loc 1 1083 1 view .LVU599
 1869 0008 7047     		bx	lr
 1870              	.L116:
 1871 000a 00BF     		.align	2
 1872              	.L115:
ARM GAS  /tmp/ccW0iIf7.s 			page 63


 1873 000c 00000000 		.word	.LANCHOR1
 1874              		.cfi_endproc
 1875              	.LFE78:
 1877              		.section	.rodata.dmp_enable_gyro_cal.str1.1,"aMS",%progbits,1
 1878              	.LC6:
 1879 0000 B8AAAAAA 		.ascii	"\270\252\252\252\260\210\303\305\307\000"
 1879      B088C3C5 
 1879      C700
 1880              		.section	.text.dmp_enable_gyro_cal,"ax",%progbits
 1881              		.align	1
 1882              		.global	dmp_enable_gyro_cal
 1883              		.syntax unified
 1884              		.thumb
 1885              		.thumb_func
 1886              		.fpu softvfp
 1888              	dmp_enable_gyro_cal:
 1889              	.LVL133:
 1890              	.LFB79:
1095:Src/mpu6050_dmp.c ****     if (enable) {
 1891              		.loc 1 1095 1 is_stmt 1 view -0
 1892              		.cfi_startproc
 1893              		@ args = 0, pretend = 0, frame = 16
 1894              		@ frame_needed = 0, uses_anonymous_args = 0
1096:Src/mpu6050_dmp.c ****         unsigned char regs[9] = {0xb8, 0xaa, 0xb3, 0x8d, 0xb4, 0x98, 0x0d, 0x35, 0x5d};
 1895              		.loc 1 1096 5 view .LVU601
1095:Src/mpu6050_dmp.c ****     if (enable) {
 1896              		.loc 1 1095 1 is_stmt 0 view .LVU602
 1897 0000 1FB5     		push	{r0, r1, r2, r3, r4, lr}
 1898              	.LCFI42:
 1899              		.cfi_def_cfa_offset 24
 1900              		.cfi_offset 14, -4
1096:Src/mpu6050_dmp.c ****         unsigned char regs[9] = {0xb8, 0xaa, 0xb3, 0x8d, 0xb4, 0x98, 0x0d, 0x35, 0x5d};
 1901              		.loc 1 1096 8 view .LVU603
 1902 0002 20B1     		cbz	r0, .L118
 1903              		.loc 1 1103 1 view .LVU604
 1904 0004 05B0     		add	sp, sp, #20
 1905              	.LCFI43:
 1906              		.cfi_remember_state
 1907              		.cfi_def_cfa_offset 4
 1908              		@ sp needed
 1909 0006 5DF804EB 		ldr	lr, [sp], #4
 1910              	.LCFI44:
 1911              		.cfi_restore 14
 1912              		.cfi_def_cfa_offset 0
 1913 000a FFF7FEBF 		b	dmp_enable_gyro_cal.part.0
 1914              	.LVL134:
 1915              	.L118:
 1916              	.LCFI45:
 1917              		.cfi_restore_state
 1918              	.LBB10:
1100:Src/mpu6050_dmp.c ****         return mpu_write_mem(CFG_MOTION_BIAS, 9, regs);
 1919              		.loc 1 1100 9 is_stmt 1 view .LVU605
1100:Src/mpu6050_dmp.c ****         return mpu_write_mem(CFG_MOTION_BIAS, 9, regs);
 1920              		.loc 1 1100 23 is_stmt 0 view .LVU606
 1921 000e 084A     		ldr	r2, .L119
 1922 0010 01AB     		add	r3, sp, #4
 1923 0012 1068     		ldr	r0, [r2]	@ unaligned
ARM GAS  /tmp/ccW0iIf7.s 			page 64


 1924              	.LVL135:
1100:Src/mpu6050_dmp.c ****         return mpu_write_mem(CFG_MOTION_BIAS, 9, regs);
 1925              		.loc 1 1100 23 view .LVU607
 1926 0014 5168     		ldr	r1, [r2, #4]	@ unaligned
 1927 0016 127A     		ldrb	r2, [r2, #8]	@ zero_extendqisi2
 1928 0018 03C3     		stmia	r3!, {r0, r1}
1101:Src/mpu6050_dmp.c ****     }
 1929              		.loc 1 1101 16 view .LVU608
 1930 001a 0921     		movs	r1, #9
1100:Src/mpu6050_dmp.c ****         return mpu_write_mem(CFG_MOTION_BIAS, 9, regs);
 1931              		.loc 1 1100 23 view .LVU609
 1932 001c 1A70     		strb	r2, [r3]
1101:Src/mpu6050_dmp.c ****     }
 1933              		.loc 1 1101 9 is_stmt 1 view .LVU610
1101:Src/mpu6050_dmp.c ****     }
 1934              		.loc 1 1101 16 is_stmt 0 view .LVU611
 1935 001e 4FF49760 		mov	r0, #1208
 1936 0022 01AA     		add	r2, sp, #4
 1937 0024 FFF7FEFF 		bl	mpu_write_mem
 1938              	.LVL136:
 1939              	.LBE10:
 1940              		.loc 1 1103 1 view .LVU612
 1941 0028 05B0     		add	sp, sp, #20
 1942              	.LCFI46:
 1943              		.cfi_def_cfa_offset 4
 1944              		@ sp needed
 1945 002a 5DF804FB 		ldr	pc, [sp], #4
 1946              	.L120:
 1947 002e 00BF     		.align	2
 1948              	.L119:
 1949 0030 00000000 		.word	.LC6
 1950              		.cfi_endproc
 1951              	.LFE79:
 1953              		.section	.text.dmp_enable_lp_quat,"ax",%progbits
 1954              		.align	1
 1955              		.global	dmp_enable_lp_quat
 1956              		.syntax unified
 1957              		.thumb
 1958              		.thumb_func
 1959              		.fpu softvfp
 1961              	dmp_enable_lp_quat:
 1962              	.LVL137:
 1963              	.LFB80:
1104:Src/mpu6050_dmp.c **** 
1105:Src/mpu6050_dmp.c **** /**
1106:Src/mpu6050_dmp.c ****  *  @brief      Generate 3-axis quaternions from the DMP.
1107:Src/mpu6050_dmp.c ****  *  In this driver, the 3-axis and 6-axis DMP quaternion features are mutually
1108:Src/mpu6050_dmp.c ****  *  exclusive.
1109:Src/mpu6050_dmp.c ****  *  @param[in]  enable  1 to enable 3-axis quaternion.
1110:Src/mpu6050_dmp.c ****  *  @return     0 if successful.
1111:Src/mpu6050_dmp.c ****  */
1112:Src/mpu6050_dmp.c **** int dmp_enable_lp_quat(unsigned char enable)
1113:Src/mpu6050_dmp.c **** {
 1964              		.loc 1 1113 1 is_stmt 1 view -0
 1965              		.cfi_startproc
 1966              		@ args = 0, pretend = 0, frame = 8
 1967              		@ frame_needed = 0, uses_anonymous_args = 0
ARM GAS  /tmp/ccW0iIf7.s 			page 65


1114:Src/mpu6050_dmp.c ****     unsigned char regs[4];
 1968              		.loc 1 1114 5 view .LVU614
1115:Src/mpu6050_dmp.c ****     if (enable) {
 1969              		.loc 1 1115 5 view .LVU615
1113:Src/mpu6050_dmp.c ****     unsigned char regs[4];
 1970              		.loc 1 1113 1 is_stmt 0 view .LVU616
 1971 0000 07B5     		push	{r0, r1, r2, lr}
 1972              	.LCFI47:
 1973              		.cfi_def_cfa_offset 16
 1974              		.cfi_offset 14, -4
 1975              		.loc 1 1115 8 view .LVU617
 1976 0002 B0B1     		cbz	r0, .L122
1116:Src/mpu6050_dmp.c ****         regs[0] = DINBC0;
 1977              		.loc 1 1116 9 is_stmt 1 view .LVU618
 1978              		.loc 1 1116 17 is_stmt 0 view .LVU619
 1979 0004 C023     		movs	r3, #192
 1980 0006 8DF80430 		strb	r3, [sp, #4]
1117:Src/mpu6050_dmp.c ****         regs[1] = DINBC2;
 1981              		.loc 1 1117 9 is_stmt 1 view .LVU620
 1982              		.loc 1 1117 17 is_stmt 0 view .LVU621
 1983 000a C223     		movs	r3, #194
 1984 000c 8DF80530 		strb	r3, [sp, #5]
1118:Src/mpu6050_dmp.c ****         regs[2] = DINBC4;
 1985              		.loc 1 1118 9 is_stmt 1 view .LVU622
 1986              		.loc 1 1118 17 is_stmt 0 view .LVU623
 1987 0010 C423     		movs	r3, #196
 1988 0012 8DF80630 		strb	r3, [sp, #6]
1119:Src/mpu6050_dmp.c ****         regs[3] = DINBC6;
 1989              		.loc 1 1119 9 is_stmt 1 view .LVU624
 1990              		.loc 1 1119 17 is_stmt 0 view .LVU625
 1991 0016 C623     		movs	r3, #198
 1992 0018 8DF80730 		strb	r3, [sp, #7]
 1993              	.L123:
1120:Src/mpu6050_dmp.c ****     }
1121:Src/mpu6050_dmp.c ****     else
1122:Src/mpu6050_dmp.c ****         memset(regs, 0x8B, 4);
1123:Src/mpu6050_dmp.c **** 
1124:Src/mpu6050_dmp.c ****     mpu_write_mem(CFG_LP_QUAT, 4, regs);
 1994              		.loc 1 1124 5 is_stmt 1 view .LVU626
 1995 001c 0421     		movs	r1, #4
 1996 001e 01AA     		add	r2, sp, #4
 1997 0020 40F69820 		movw	r0, #2712
 1998              	.LVL138:
 1999              		.loc 1 1124 5 is_stmt 0 view .LVU627
 2000 0024 FFF7FEFF 		bl	mpu_write_mem
 2001              	.LVL139:
1125:Src/mpu6050_dmp.c **** 
1126:Src/mpu6050_dmp.c ****     return mpu_reset_fifo();
 2002              		.loc 1 1126 5 is_stmt 1 view .LVU628
 2003              		.loc 1 1126 12 is_stmt 0 view .LVU629
 2004 0028 FFF7FEFF 		bl	mpu_reset_fifo
 2005              	.LVL140:
1127:Src/mpu6050_dmp.c **** }
 2006              		.loc 1 1127 1 view .LVU630
 2007 002c 03B0     		add	sp, sp, #12
 2008              	.LCFI48:
 2009              		.cfi_remember_state
ARM GAS  /tmp/ccW0iIf7.s 			page 66


 2010              		.cfi_def_cfa_offset 4
 2011              		@ sp needed
 2012 002e 5DF804FB 		ldr	pc, [sp], #4
 2013              	.LVL141:
 2014              	.L122:
 2015              	.LCFI49:
 2016              		.cfi_restore_state
1122:Src/mpu6050_dmp.c **** 
 2017              		.loc 1 1122 9 is_stmt 1 view .LVU631
 2018 0032 4FF08B33 		mov	r3, #-1953789045
 2019 0036 0193     		str	r3, [sp, #4]
 2020 0038 F0E7     		b	.L123
 2021              		.cfi_endproc
 2022              	.LFE80:
 2024              		.section	.text.dmp_enable_6x_lp_quat,"ax",%progbits
 2025              		.align	1
 2026              		.global	dmp_enable_6x_lp_quat
 2027              		.syntax unified
 2028              		.thumb
 2029              		.thumb_func
 2030              		.fpu softvfp
 2032              	dmp_enable_6x_lp_quat:
 2033              	.LVL142:
 2034              	.LFB81:
1128:Src/mpu6050_dmp.c **** 
1129:Src/mpu6050_dmp.c **** /**
1130:Src/mpu6050_dmp.c ****  *  @brief       Generate 6-axis quaternions from the DMP.
1131:Src/mpu6050_dmp.c ****  *  In this driver, the 3-axis and 6-axis DMP quaternion features are mutually
1132:Src/mpu6050_dmp.c ****  *  exclusive.
1133:Src/mpu6050_dmp.c ****  *  @param[in]   enable  1 to enable 6-axis quaternion.
1134:Src/mpu6050_dmp.c ****  *  @return      0 if successful.
1135:Src/mpu6050_dmp.c ****  */
1136:Src/mpu6050_dmp.c **** int dmp_enable_6x_lp_quat(unsigned char enable)
1137:Src/mpu6050_dmp.c **** {
 2035              		.loc 1 1137 1 view -0
 2036              		.cfi_startproc
 2037              		@ args = 0, pretend = 0, frame = 8
 2038              		@ frame_needed = 0, uses_anonymous_args = 0
1138:Src/mpu6050_dmp.c ****     unsigned char regs[4];
 2039              		.loc 1 1138 5 view .LVU633
1139:Src/mpu6050_dmp.c ****     if (enable) {
 2040              		.loc 1 1139 5 view .LVU634
1137:Src/mpu6050_dmp.c ****     unsigned char regs[4];
 2041              		.loc 1 1137 1 is_stmt 0 view .LVU635
 2042 0000 07B5     		push	{r0, r1, r2, lr}
 2043              	.LCFI50:
 2044              		.cfi_def_cfa_offset 16
 2045              		.cfi_offset 14, -4
 2046              		.loc 1 1139 8 view .LVU636
 2047 0002 B0B1     		cbz	r0, .L125
1140:Src/mpu6050_dmp.c ****         regs[0] = DINA20;
 2048              		.loc 1 1140 9 is_stmt 1 view .LVU637
 2049              		.loc 1 1140 17 is_stmt 0 view .LVU638
 2050 0004 2023     		movs	r3, #32
 2051 0006 8DF80430 		strb	r3, [sp, #4]
1141:Src/mpu6050_dmp.c ****         regs[1] = DINA28;
 2052              		.loc 1 1141 9 is_stmt 1 view .LVU639
ARM GAS  /tmp/ccW0iIf7.s 			page 67


 2053              		.loc 1 1141 17 is_stmt 0 view .LVU640
 2054 000a 2823     		movs	r3, #40
 2055 000c 8DF80530 		strb	r3, [sp, #5]
1142:Src/mpu6050_dmp.c ****         regs[2] = DINA30;
 2056              		.loc 1 1142 9 is_stmt 1 view .LVU641
 2057              		.loc 1 1142 17 is_stmt 0 view .LVU642
 2058 0010 3023     		movs	r3, #48
 2059 0012 8DF80630 		strb	r3, [sp, #6]
1143:Src/mpu6050_dmp.c ****         regs[3] = DINA38;
 2060              		.loc 1 1143 9 is_stmt 1 view .LVU643
 2061              		.loc 1 1143 17 is_stmt 0 view .LVU644
 2062 0016 3823     		movs	r3, #56
 2063 0018 8DF80730 		strb	r3, [sp, #7]
 2064              	.L126:
1144:Src/mpu6050_dmp.c ****     } else
1145:Src/mpu6050_dmp.c ****         memset(regs, 0xA3, 4);
1146:Src/mpu6050_dmp.c **** 
1147:Src/mpu6050_dmp.c ****     mpu_write_mem(CFG_8, 4, regs);
 2065              		.loc 1 1147 5 is_stmt 1 view .LVU645
 2066 001c 0421     		movs	r1, #4
 2067 001e 01AA     		add	r2, sp, #4
 2068 0020 40F69E20 		movw	r0, #2718
 2069              	.LVL143:
 2070              		.loc 1 1147 5 is_stmt 0 view .LVU646
 2071 0024 FFF7FEFF 		bl	mpu_write_mem
 2072              	.LVL144:
1148:Src/mpu6050_dmp.c **** 
1149:Src/mpu6050_dmp.c ****     return mpu_reset_fifo();
 2073              		.loc 1 1149 5 is_stmt 1 view .LVU647
 2074              		.loc 1 1149 12 is_stmt 0 view .LVU648
 2075 0028 FFF7FEFF 		bl	mpu_reset_fifo
 2076              	.LVL145:
1150:Src/mpu6050_dmp.c **** }
 2077              		.loc 1 1150 1 view .LVU649
 2078 002c 03B0     		add	sp, sp, #12
 2079              	.LCFI51:
 2080              		.cfi_remember_state
 2081              		.cfi_def_cfa_offset 4
 2082              		@ sp needed
 2083 002e 5DF804FB 		ldr	pc, [sp], #4
 2084              	.LVL146:
 2085              	.L125:
 2086              	.LCFI52:
 2087              		.cfi_restore_state
1145:Src/mpu6050_dmp.c **** 
 2088              		.loc 1 1145 9 is_stmt 1 view .LVU650
 2089 0032 4FF0A333 		mov	r3, #-1549556829
 2090 0036 0193     		str	r3, [sp, #4]
 2091 0038 F0E7     		b	.L126
 2092              		.cfi_endproc
 2093              	.LFE81:
 2095              		.section	.text.dmp_enable_feature,"ax",%progbits
 2096              		.align	1
 2097              		.global	dmp_enable_feature
 2098              		.syntax unified
 2099              		.thumb
 2100              		.thumb_func
ARM GAS  /tmp/ccW0iIf7.s 			page 68


 2101              		.fpu softvfp
 2103              	dmp_enable_feature:
 2104              	.LVL147:
 2105              	.LFB77:
 958:Src/mpu6050_dmp.c ****     unsigned char tmp[10];
 2106              		.loc 1 958 1 view -0
 2107              		.cfi_startproc
 2108              		@ args = 0, pretend = 0, frame = 16
 2109              		@ frame_needed = 0, uses_anonymous_args = 0
 959:Src/mpu6050_dmp.c **** 
 2110              		.loc 1 959 5 view .LVU652
 965:Src/mpu6050_dmp.c ****     tmp[1] = (unsigned char)((GYRO_SF >> 16) & 0xFF);
 2111              		.loc 1 965 5 view .LVU653
 958:Src/mpu6050_dmp.c ****     unsigned char tmp[10];
 2112              		.loc 1 958 1 is_stmt 0 view .LVU654
 2113 0000 2DE9FF41 		push	{r0, r1, r2, r3, r4, r5, r6, r7, r8, lr}
 2114              	.LCFI53:
 2115              		.cfi_def_cfa_offset 40
 2116              		.cfi_offset 4, -24
 2117              		.cfi_offset 5, -20
 2118              		.cfi_offset 6, -16
 2119              		.cfi_offset 7, -12
 2120              		.cfi_offset 8, -8
 2121              		.cfi_offset 14, -4
 965:Src/mpu6050_dmp.c ****     tmp[1] = (unsigned char)((GYRO_SF >> 16) & 0xFF);
 2122              		.loc 1 965 12 view .LVU655
 2123 0004 0223     		movs	r3, #2
 2124 0006 8DF80430 		strb	r3, [sp, #4]
 966:Src/mpu6050_dmp.c ****     tmp[2] = (unsigned char)((GYRO_SF >> 8) & 0xFF);
 2125              		.loc 1 966 5 is_stmt 1 view .LVU656
 966:Src/mpu6050_dmp.c ****     tmp[2] = (unsigned char)((GYRO_SF >> 8) & 0xFF);
 2126              		.loc 1 966 12 is_stmt 0 view .LVU657
 2127 000a CA23     		movs	r3, #202
 2128 000c 8DF80530 		strb	r3, [sp, #5]
 967:Src/mpu6050_dmp.c ****     tmp[3] = (unsigned char)(GYRO_SF & 0xFF);
 2129              		.loc 1 967 5 is_stmt 1 view .LVU658
 967:Src/mpu6050_dmp.c ****     tmp[3] = (unsigned char)(GYRO_SF & 0xFF);
 2130              		.loc 1 967 12 is_stmt 0 view .LVU659
 2131 0010 E323     		movs	r3, #227
 2132 0012 8DF80630 		strb	r3, [sp, #6]
 968:Src/mpu6050_dmp.c ****     mpu_write_mem(D_0_104, 4, tmp);
 2133              		.loc 1 968 5 is_stmt 1 view .LVU660
 968:Src/mpu6050_dmp.c ****     mpu_write_mem(D_0_104, 4, tmp);
 2134              		.loc 1 968 12 is_stmt 0 view .LVU661
 2135 0016 0923     		movs	r3, #9
 958:Src/mpu6050_dmp.c ****     unsigned char tmp[10];
 2136              		.loc 1 958 1 view .LVU662
 2137 0018 0446     		mov	r4, r0
 969:Src/mpu6050_dmp.c **** 
 2138              		.loc 1 969 5 view .LVU663
 2139 001a 0421     		movs	r1, #4
 2140 001c 01AA     		add	r2, sp, #4
 2141 001e 6820     		movs	r0, #104
 2142              	.LVL148:
 968:Src/mpu6050_dmp.c ****     mpu_write_mem(D_0_104, 4, tmp);
 2143              		.loc 1 968 12 view .LVU664
 2144 0020 8DF80730 		strb	r3, [sp, #7]
ARM GAS  /tmp/ccW0iIf7.s 			page 69


 969:Src/mpu6050_dmp.c **** 
 2145              		.loc 1 969 5 is_stmt 1 view .LVU665
 2146 0024 FFF7FEFF 		bl	mpu_write_mem
 2147              	.LVL149:
 972:Src/mpu6050_dmp.c ****     if (mask & DMP_FEATURE_SEND_RAW_ACCEL) {
 2148              		.loc 1 972 5 view .LVU666
 972:Src/mpu6050_dmp.c ****     if (mask & DMP_FEATURE_SEND_RAW_ACCEL) {
 2149              		.loc 1 972 12 is_stmt 0 view .LVU667
 2150 0028 A323     		movs	r3, #163
 973:Src/mpu6050_dmp.c ****         tmp[1] = 0xC0;
 2151              		.loc 1 973 8 view .LVU668
 2152 002a 14F04008 		ands	r8, r4, #64
 972:Src/mpu6050_dmp.c ****     if (mask & DMP_FEATURE_SEND_RAW_ACCEL) {
 2153              		.loc 1 972 12 view .LVU669
 2154 002e 8DF80430 		strb	r3, [sp, #4]
 973:Src/mpu6050_dmp.c ****         tmp[1] = 0xC0;
 2155              		.loc 1 973 5 is_stmt 1 view .LVU670
 974:Src/mpu6050_dmp.c ****         tmp[2] = 0xC8;
 2156              		.loc 1 974 9 view .LVU671
 974:Src/mpu6050_dmp.c ****         tmp[2] = 0xC8;
 2157              		.loc 1 974 16 is_stmt 0 view .LVU672
 2158 0032 1FBF     		itttt	ne
 2159 0034 C023     		movne	r3, #192
 2160 0036 8DF80530 		strbne	r3, [sp, #5]
 975:Src/mpu6050_dmp.c ****         tmp[3] = 0xC2;
 2161              		.loc 1 975 9 is_stmt 1 view .LVU673
 975:Src/mpu6050_dmp.c ****         tmp[3] = 0xC2;
 2162              		.loc 1 975 16 is_stmt 0 view .LVU674
 2163 003a C823     		movne	r3, #200
 2164 003c 8DF80630 		strbne	r3, [sp, #6]
 976:Src/mpu6050_dmp.c ****     } else {
 2165              		.loc 1 976 9 is_stmt 1 view .LVU675
 976:Src/mpu6050_dmp.c ****     } else {
 2166              		.loc 1 976 16 is_stmt 0 view .LVU676
 2167 0040 12BF     		itee	ne
 2168 0042 C223     		movne	r3, #194
 978:Src/mpu6050_dmp.c ****         tmp[2] = 0xA3;
 2169              		.loc 1 978 9 is_stmt 1 view .LVU677
 978:Src/mpu6050_dmp.c ****         tmp[2] = 0xA3;
 2170              		.loc 1 978 16 is_stmt 0 view .LVU678
 2171 0044 8DF80530 		strbeq	r3, [sp, #5]
 979:Src/mpu6050_dmp.c ****         tmp[3] = 0xA3;
 2172              		.loc 1 979 9 is_stmt 1 view .LVU679
 979:Src/mpu6050_dmp.c ****         tmp[3] = 0xA3;
 2173              		.loc 1 979 16 is_stmt 0 view .LVU680
 2174 0048 8DF80630 		strbeq	r3, [sp, #6]
 980:Src/mpu6050_dmp.c ****     }
 2175              		.loc 1 980 9 is_stmt 1 view .LVU681
 982:Src/mpu6050_dmp.c ****         tmp[4] = 0xC4;
 2176              		.loc 1 982 8 is_stmt 0 view .LVU682
 2177 004c 14F4C076 		ands	r6, r4, #384
 980:Src/mpu6050_dmp.c ****     }
 2178              		.loc 1 980 16 view .LVU683
 2179 0050 8DF80730 		strb	r3, [sp, #7]
 982:Src/mpu6050_dmp.c ****         tmp[4] = 0xC4;
 2180              		.loc 1 982 5 is_stmt 1 view .LVU684
 983:Src/mpu6050_dmp.c ****         tmp[5] = 0xCC;
ARM GAS  /tmp/ccW0iIf7.s 			page 70


 2181              		.loc 1 983 9 view .LVU685
 983:Src/mpu6050_dmp.c ****         tmp[5] = 0xCC;
 2182              		.loc 1 983 16 is_stmt 0 view .LVU686
 2183 0054 1DBF     		ittte	ne
 2184 0056 C423     		movne	r3, #196
 2185 0058 8DF80830 		strbne	r3, [sp, #8]
 984:Src/mpu6050_dmp.c ****         tmp[6] = 0xC6;
 2186              		.loc 1 984 9 is_stmt 1 view .LVU687
 984:Src/mpu6050_dmp.c ****         tmp[6] = 0xC6;
 2187              		.loc 1 984 16 is_stmt 0 view .LVU688
 2188 005c CC23     		movne	r3, #204
 987:Src/mpu6050_dmp.c ****         tmp[5] = 0xA3;
 2189              		.loc 1 987 16 view .LVU689
 2190 005e A323     		moveq	r3, #163
 984:Src/mpu6050_dmp.c ****         tmp[6] = 0xC6;
 2191              		.loc 1 984 16 view .LVU690
 2192 0060 19BF     		ittee	ne
 2193 0062 8DF80930 		strbne	r3, [sp, #9]
 985:Src/mpu6050_dmp.c ****     } else {
 2194              		.loc 1 985 9 is_stmt 1 view .LVU691
 985:Src/mpu6050_dmp.c ****     } else {
 2195              		.loc 1 985 16 is_stmt 0 view .LVU692
 2196 0066 C623     		movne	r3, #198
 987:Src/mpu6050_dmp.c ****         tmp[5] = 0xA3;
 2197              		.loc 1 987 9 is_stmt 1 view .LVU693
 987:Src/mpu6050_dmp.c ****         tmp[5] = 0xA3;
 2198              		.loc 1 987 16 is_stmt 0 view .LVU694
 2199 0068 8DF80830 		strbeq	r3, [sp, #8]
 988:Src/mpu6050_dmp.c ****         tmp[6] = 0xA3;
 2200              		.loc 1 988 9 is_stmt 1 view .LVU695
 988:Src/mpu6050_dmp.c ****         tmp[6] = 0xA3;
 2201              		.loc 1 988 16 is_stmt 0 view .LVU696
 2202 006c 8DF80930 		strbeq	r3, [sp, #9]
 989:Src/mpu6050_dmp.c ****     }
 2203              		.loc 1 989 9 is_stmt 1 view .LVU697
 989:Src/mpu6050_dmp.c ****     }
 2204              		.loc 1 989 16 is_stmt 0 view .LVU698
 2205 0070 8DF80A30 		strb	r3, [sp, #10]
 991:Src/mpu6050_dmp.c ****     tmp[8] = 0xA3;
 2206              		.loc 1 991 5 is_stmt 1 view .LVU699
 991:Src/mpu6050_dmp.c ****     tmp[8] = 0xA3;
 2207              		.loc 1 991 12 is_stmt 0 view .LVU700
 2208 0074 A323     		movs	r3, #163
 994:Src/mpu6050_dmp.c **** 
 2209              		.loc 1 994 5 view .LVU701
 2210 0076 0A21     		movs	r1, #10
 2211 0078 01AA     		add	r2, sp, #4
 2212 007a 40F6A720 		movw	r0, #2727
 991:Src/mpu6050_dmp.c ****     tmp[8] = 0xA3;
 2213              		.loc 1 991 12 view .LVU702
 2214 007e 8DF80B30 		strb	r3, [sp, #11]
 992:Src/mpu6050_dmp.c ****     tmp[9] = 0xA3;
 2215              		.loc 1 992 5 is_stmt 1 view .LVU703
 992:Src/mpu6050_dmp.c ****     tmp[9] = 0xA3;
 2216              		.loc 1 992 12 is_stmt 0 view .LVU704
 2217 0082 8DF80C30 		strb	r3, [sp, #12]
 993:Src/mpu6050_dmp.c ****     mpu_write_mem(CFG_15,10,tmp);
ARM GAS  /tmp/ccW0iIf7.s 			page 71


 2218              		.loc 1 993 5 is_stmt 1 view .LVU705
 993:Src/mpu6050_dmp.c ****     mpu_write_mem(CFG_15,10,tmp);
 2219              		.loc 1 993 12 is_stmt 0 view .LVU706
 2220 0086 8DF80D30 		strb	r3, [sp, #13]
 994:Src/mpu6050_dmp.c **** 
 2221              		.loc 1 994 5 is_stmt 1 view .LVU707
 2222 008a FFF7FEFF 		bl	mpu_write_mem
 2223              	.LVL150:
 997:Src/mpu6050_dmp.c ****         tmp[0] = DINA20;
 2224              		.loc 1 997 5 view .LVU708
 998:Src/mpu6050_dmp.c ****     else
 2225              		.loc 1 998 16 is_stmt 0 view .LVU709
 2226 008e 14F00307 		ands	r7, r4, #3
 2227 0092 0CBF     		ite	eq
 2228 0094 D823     		moveq	r3, #216
 2229 0096 2023     		movne	r3, #32
1001:Src/mpu6050_dmp.c **** 
 2230              		.loc 1 1001 5 view .LVU710
 2231 0098 0121     		movs	r1, #1
 2232 009a 40F6B620 		movw	r0, #2742
 2233 009e 01AA     		add	r2, sp, #4
 2234 00a0 8DF80430 		strb	r3, [sp, #4]
1001:Src/mpu6050_dmp.c **** 
 2235              		.loc 1 1001 5 is_stmt 1 view .LVU711
 2236 00a4 FFF7FEFF 		bl	mpu_write_mem
 2237              	.LVL151:
1003:Src/mpu6050_dmp.c ****         dmp_enable_gyro_cal(1);
 2238              		.loc 1 1003 5 view .LVU712
1003:Src/mpu6050_dmp.c ****         dmp_enable_gyro_cal(1);
 2239              		.loc 1 1003 8 is_stmt 0 view .LVU713
 2240 00a8 14F02000 		ands	r0, r4, #32
 2241 00ac 72D0     		beq	.L133
1004:Src/mpu6050_dmp.c ****     else
 2242              		.loc 1 1004 9 is_stmt 1 view .LVU714
 2243              	.LVL152:
 2244              	.LBB11:
 2245              	.LBI11:
1094:Src/mpu6050_dmp.c **** {
 2246              		.loc 1 1094 5 view .LVU715
 2247              	.LBB12:
1096:Src/mpu6050_dmp.c ****         unsigned char regs[9] = {0xb8, 0xaa, 0xb3, 0x8d, 0xb4, 0x98, 0x0d, 0x35, 0x5d};
 2248              		.loc 1 1096 5 view .LVU716
 2249 00ae FFF7FEFF 		bl	dmp_enable_gyro_cal.part.0
 2250              	.LVL153:
 2251              	.L134:
1096:Src/mpu6050_dmp.c ****         unsigned char regs[9] = {0xb8, 0xaa, 0xb3, 0x8d, 0xb4, 0x98, 0x0d, 0x35, 0x5d};
 2252              		.loc 1 1096 5 is_stmt 0 view .LVU717
 2253              	.LBE12:
 2254              	.LBE11:
1008:Src/mpu6050_dmp.c ****         if (mask & DMP_FEATURE_SEND_CAL_GYRO) {
 2255              		.loc 1 1008 5 is_stmt 1 view .LVU718
1008:Src/mpu6050_dmp.c ****         if (mask & DMP_FEATURE_SEND_CAL_GYRO) {
 2256              		.loc 1 1008 8 is_stmt 0 view .LVU719
 2257 00b2 9EB1     		cbz	r6, .L135
1009:Src/mpu6050_dmp.c ****             tmp[0] = 0xB2;
 2258              		.loc 1 1009 9 is_stmt 1 view .LVU720
1009:Src/mpu6050_dmp.c ****             tmp[0] = 0xB2;
ARM GAS  /tmp/ccW0iIf7.s 			page 72


 2259              		.loc 1 1009 12 is_stmt 0 view .LVU721
 2260 00b4 E205     		lsls	r2, r4, #23
 2261 00b6 70D5     		bpl	.L136
1010:Src/mpu6050_dmp.c ****             tmp[1] = 0x8B;
 2262              		.loc 1 1010 13 is_stmt 1 view .LVU722
1010:Src/mpu6050_dmp.c ****             tmp[1] = 0x8B;
 2263              		.loc 1 1010 20 is_stmt 0 view .LVU723
 2264 00b8 B223     		movs	r3, #178
 2265 00ba 8DF80430 		strb	r3, [sp, #4]
1011:Src/mpu6050_dmp.c ****             tmp[2] = 0xB6;
 2266              		.loc 1 1011 13 is_stmt 1 view .LVU724
1011:Src/mpu6050_dmp.c ****             tmp[2] = 0xB6;
 2267              		.loc 1 1011 20 is_stmt 0 view .LVU725
 2268 00be 8B23     		movs	r3, #139
 2269 00c0 8DF80530 		strb	r3, [sp, #5]
1012:Src/mpu6050_dmp.c ****             tmp[3] = 0x9B;
 2270              		.loc 1 1012 13 is_stmt 1 view .LVU726
1012:Src/mpu6050_dmp.c ****             tmp[3] = 0x9B;
 2271              		.loc 1 1012 20 is_stmt 0 view .LVU727
 2272 00c4 B623     		movs	r3, #182
 2273 00c6 8DF80630 		strb	r3, [sp, #6]
1013:Src/mpu6050_dmp.c ****         } else {
 2274              		.loc 1 1013 13 is_stmt 1 view .LVU728
1013:Src/mpu6050_dmp.c ****         } else {
 2275              		.loc 1 1013 20 is_stmt 0 view .LVU729
 2276 00ca 9B23     		movs	r3, #155
 2277              	.L166:
1020:Src/mpu6050_dmp.c ****     }
 2278              		.loc 1 1020 9 view .LVU730
 2279 00cc 0421     		movs	r1, #4
 2280 00ce 40F6A220 		movw	r0, #2722
 2281 00d2 01AA     		add	r2, sp, #4
1018:Src/mpu6050_dmp.c ****         }
 2282              		.loc 1 1018 20 view .LVU731
 2283 00d4 8DF80730 		strb	r3, [sp, #7]
1020:Src/mpu6050_dmp.c ****     }
 2284              		.loc 1 1020 9 is_stmt 1 view .LVU732
 2285 00d8 FFF7FEFF 		bl	mpu_write_mem
 2286              	.LVL154:
 2287              	.L135:
1023:Src/mpu6050_dmp.c ****         /* Enable tap. */
 2288              		.loc 1 1023 5 view .LVU733
1023:Src/mpu6050_dmp.c ****         /* Enable tap. */
 2289              		.loc 1 1023 8 is_stmt 0 view .LVU734
 2290 00dc E307     		lsls	r3, r4, #31
 2291 00de 67D5     		bpl	.L138
1025:Src/mpu6050_dmp.c ****         mpu_write_mem(CFG_20, 1, tmp);
 2292              		.loc 1 1025 9 is_stmt 1 view .LVU735
1025:Src/mpu6050_dmp.c ****         mpu_write_mem(CFG_20, 1, tmp);
 2293              		.loc 1 1025 16 is_stmt 0 view .LVU736
 2294 00e0 F823     		movs	r3, #248
1026:Src/mpu6050_dmp.c ****         dmp_set_tap_thresh(DMP_TAP_AXES, DMP_TAP_THRESH);
 2295              		.loc 1 1026 9 view .LVU737
 2296 00e2 01AA     		add	r2, sp, #4
 2297 00e4 0121     		movs	r1, #1
 2298 00e6 4FF40B60 		mov	r0, #2224
1025:Src/mpu6050_dmp.c ****         mpu_write_mem(CFG_20, 1, tmp);
ARM GAS  /tmp/ccW0iIf7.s 			page 73


 2299              		.loc 1 1025 16 view .LVU738
 2300 00ea 8DF80430 		strb	r3, [sp, #4]
1026:Src/mpu6050_dmp.c ****         dmp_set_tap_thresh(DMP_TAP_AXES, DMP_TAP_THRESH);
 2301              		.loc 1 1026 9 is_stmt 1 view .LVU739
 2302 00ee FFF7FEFF 		bl	mpu_write_mem
 2303              	.LVL155:
1027:Src/mpu6050_dmp.c ****         dmp_set_tap_axes(DMP_TAP_AXES);
 2304              		.loc 1 1027 9 view .LVU740
 2305 00f2 FA21     		movs	r1, #250
 2306 00f4 0720     		movs	r0, #7
 2307 00f6 FFF7FEFF 		bl	dmp_set_tap_thresh
 2308              	.LVL156:
1028:Src/mpu6050_dmp.c ****         dmp_set_tap_count(DMP_TAP_COUNT);
 2309              		.loc 1 1028 9 view .LVU741
 2310 00fa 0720     		movs	r0, #7
 2311 00fc FFF7FEFF 		bl	dmp_set_tap_axes
 2312              	.LVL157:
1029:Src/mpu6050_dmp.c ****         dmp_set_tap_time(DMP_TAP_TIME);
 2313              		.loc 1 1029 9 view .LVU742
 2314 0100 0120     		movs	r0, #1
 2315 0102 FFF7FEFF 		bl	dmp_set_tap_count
 2316              	.LVL158:
1030:Src/mpu6050_dmp.c ****         dmp_set_tap_time_multi(DMP_TAP_TIME_MULTI);
 2317              		.loc 1 1030 9 view .LVU743
 2318 0106 6420     		movs	r0, #100
 2319 0108 FFF7FEFF 		bl	dmp_set_tap_time
 2320              	.LVL159:
1031:Src/mpu6050_dmp.c **** 
 2321              		.loc 1 1031 9 view .LVU744
 2322 010c 4FF4FA70 		mov	r0, #500
 2323 0110 FFF7FEFF 		bl	dmp_set_tap_time_multi
 2324              	.LVL160:
1033:Src/mpu6050_dmp.c ****         dmp_set_shake_reject_time(DMP_SHAKE_REJECT_TIME);
 2325              		.loc 1 1033 9 view .LVU745
 2326 0114 C821     		movs	r1, #200
 2327 0116 2D48     		ldr	r0, .L167
 2328 0118 FFF7FEFF 		bl	dmp_set_shake_reject_thresh
 2329              	.LVL161:
1034:Src/mpu6050_dmp.c ****         dmp_set_shake_reject_timeout(DMP_SHAKE_REJECT_TIMEOUT);
 2330              		.loc 1 1034 9 view .LVU746
 2331 011c 2820     		movs	r0, #40
 2332 011e FFF7FEFF 		bl	dmp_set_shake_reject_time
 2333              	.LVL162:
1035:Src/mpu6050_dmp.c ****     } else {
 2334              		.loc 1 1035 9 view .LVU747
 2335 0122 0A20     		movs	r0, #10
 2336 0124 FFF7FEFF 		bl	dmp_set_shake_reject_timeout
 2337              	.LVL163:
 2338              	.L139:
1041:Src/mpu6050_dmp.c ****         tmp[0] = 0xD9;
 2339              		.loc 1 1041 5 view .LVU748
1042:Src/mpu6050_dmp.c ****     } else
 2340              		.loc 1 1042 16 is_stmt 0 view .LVU749
 2341 0128 14F0020F 		tst	r4, #2
 2342 012c 0CBF     		ite	eq
 2343 012e D823     		moveq	r3, #216
 2344 0130 D923     		movne	r3, #217
ARM GAS  /tmp/ccW0iIf7.s 			page 74


1045:Src/mpu6050_dmp.c **** 
 2345              		.loc 1 1045 5 view .LVU750
 2346 0132 0121     		movs	r1, #1
 2347 0134 01AA     		add	r2, sp, #4
 2348 0136 40F23D70 		movw	r0, #1853
 2349 013a 8DF80430 		strb	r3, [sp, #4]
1045:Src/mpu6050_dmp.c **** 
 2350              		.loc 1 1045 5 is_stmt 1 view .LVU751
 2351 013e FFF7FEFF 		bl	mpu_write_mem
 2352              	.LVL164:
1047:Src/mpu6050_dmp.c ****         dmp_enable_lp_quat(1);
 2353              		.loc 1 1047 5 view .LVU752
1047:Src/mpu6050_dmp.c ****         dmp_enable_lp_quat(1);
 2354              		.loc 1 1047 8 is_stmt 0 view .LVU753
 2355 0142 14F00400 		ands	r0, r4, #4
1048:Src/mpu6050_dmp.c ****     else
 2356              		.loc 1 1048 9 is_stmt 1 view .LVU754
 2357 0146 18BF     		it	ne
 2358 0148 0120     		movne	r0, #1
1050:Src/mpu6050_dmp.c **** 
 2359              		.loc 1 1050 9 view .LVU755
 2360 014a FFF7FEFF 		bl	dmp_enable_lp_quat
 2361              	.LVL165:
1052:Src/mpu6050_dmp.c ****         dmp_enable_6x_lp_quat(1);
 2362              		.loc 1 1052 5 view .LVU756
1052:Src/mpu6050_dmp.c ****         dmp_enable_6x_lp_quat(1);
 2363              		.loc 1 1052 8 is_stmt 0 view .LVU757
 2364 014e 14F01000 		ands	r0, r4, #16
1053:Src/mpu6050_dmp.c ****     else
 2365              		.loc 1 1053 9 is_stmt 1 view .LVU758
 2366 0152 18BF     		it	ne
 2367 0154 0120     		movne	r0, #1
1055:Src/mpu6050_dmp.c **** 
 2368              		.loc 1 1055 9 view .LVU759
1058:Src/mpu6050_dmp.c ****     mpu_reset_fifo();
 2369              		.loc 1 1058 22 is_stmt 0 view .LVU760
 2370 0156 1E4D     		ldr	r5, .L167+4
1055:Src/mpu6050_dmp.c **** 
 2371              		.loc 1 1055 9 view .LVU761
 2372 0158 FFF7FEFF 		bl	dmp_enable_6x_lp_quat
 2373              	.LVL166:
1058:Src/mpu6050_dmp.c ****     mpu_reset_fifo();
 2374              		.loc 1 1058 5 is_stmt 1 view .LVU762
1058:Src/mpu6050_dmp.c ****     mpu_reset_fifo();
 2375              		.loc 1 1058 22 is_stmt 0 view .LVU763
 2376 015c 44F00803 		orr	r3, r4, #8
 2377 0160 6B81     		strh	r3, [r5, #10]	@ movhi
1059:Src/mpu6050_dmp.c **** 
 2378              		.loc 1 1059 5 is_stmt 1 view .LVU764
 2379 0162 FFF7FEFF 		bl	mpu_reset_fifo
 2380              	.LVL167:
1061:Src/mpu6050_dmp.c ****     if (mask & DMP_FEATURE_SEND_RAW_ACCEL)
 2381              		.loc 1 1061 5 view .LVU765
1062:Src/mpu6050_dmp.c ****         dmp.packet_length += 6;
 2382              		.loc 1 1062 5 view .LVU766
1062:Src/mpu6050_dmp.c ****         dmp.packet_length += 6;
 2383              		.loc 1 1062 8 is_stmt 0 view .LVU767
ARM GAS  /tmp/ccW0iIf7.s 			page 75


 2384 0166 B8F1000F 		cmp	r8, #0
 2385 016a 2BD1     		bne	.L145
1061:Src/mpu6050_dmp.c ****     if (mask & DMP_FEATURE_SEND_RAW_ACCEL)
 2386              		.loc 1 1061 23 view .LVU768
 2387 016c 85F80E80 		strb	r8, [r5, #14]
 2388              	.L146:
1064:Src/mpu6050_dmp.c ****         dmp.packet_length += 6;
 2389              		.loc 1 1064 5 is_stmt 1 view .LVU769
1064:Src/mpu6050_dmp.c ****         dmp.packet_length += 6;
 2390              		.loc 1 1064 8 is_stmt 0 view .LVU770
 2391 0170 16B1     		cbz	r6, .L147
1065:Src/mpu6050_dmp.c ****     if (mask & (DMP_FEATURE_LP_QUAT | DMP_FEATURE_6X_LP_QUAT))
 2392              		.loc 1 1065 9 is_stmt 1 view .LVU771
1065:Src/mpu6050_dmp.c ****     if (mask & (DMP_FEATURE_LP_QUAT | DMP_FEATURE_6X_LP_QUAT))
 2393              		.loc 1 1065 27 is_stmt 0 view .LVU772
 2394 0172 AB7B     		ldrb	r3, [r5, #14]	@ zero_extendqisi2
 2395 0174 0633     		adds	r3, r3, #6
 2396 0176 AB73     		strb	r3, [r5, #14]
 2397              	.L147:
1066:Src/mpu6050_dmp.c ****         dmp.packet_length += 16;
 2398              		.loc 1 1066 5 is_stmt 1 view .LVU773
1066:Src/mpu6050_dmp.c ****         dmp.packet_length += 16;
 2399              		.loc 1 1066 8 is_stmt 0 view .LVU774
 2400 0178 14F0140F 		tst	r4, #20
1067:Src/mpu6050_dmp.c ****     if (mask & (DMP_FEATURE_TAP | DMP_FEATURE_ANDROID_ORIENT))
 2401              		.loc 1 1067 9 is_stmt 1 view .LVU775
1067:Src/mpu6050_dmp.c ****     if (mask & (DMP_FEATURE_TAP | DMP_FEATURE_ANDROID_ORIENT))
 2402              		.loc 1 1067 27 is_stmt 0 view .LVU776
 2403 017c 1EBF     		ittt	ne
 2404 017e AB7B     		ldrbne	r3, [r5, #14]	@ zero_extendqisi2
 2405 0180 1033     		addne	r3, r3, #16
 2406 0182 AB73     		strbne	r3, [r5, #14]
1068:Src/mpu6050_dmp.c ****         dmp.packet_length += 4;
 2407              		.loc 1 1068 5 is_stmt 1 view .LVU777
1068:Src/mpu6050_dmp.c ****         dmp.packet_length += 4;
 2408              		.loc 1 1068 8 is_stmt 0 view .LVU778
 2409 0184 17B1     		cbz	r7, .L149
1069:Src/mpu6050_dmp.c **** 
 2410              		.loc 1 1069 9 is_stmt 1 view .LVU779
1069:Src/mpu6050_dmp.c **** 
 2411              		.loc 1 1069 27 is_stmt 0 view .LVU780
 2412 0186 AB7B     		ldrb	r3, [r5, #14]	@ zero_extendqisi2
 2413 0188 0433     		adds	r3, r3, #4
 2414 018a AB73     		strb	r3, [r5, #14]
 2415              	.L149:
1071:Src/mpu6050_dmp.c **** }
 2416              		.loc 1 1071 5 is_stmt 1 view .LVU781
1072:Src/mpu6050_dmp.c **** 
 2417              		.loc 1 1072 1 is_stmt 0 view .LVU782
 2418 018c 0020     		movs	r0, #0
 2419 018e 04B0     		add	sp, sp, #16
 2420              	.LCFI54:
 2421              		.cfi_remember_state
 2422              		.cfi_def_cfa_offset 24
 2423              		@ sp needed
 2424 0190 BDE8F081 		pop	{r4, r5, r6, r7, r8, pc}
 2425              	.L133:
ARM GAS  /tmp/ccW0iIf7.s 			page 76


 2426              	.LCFI55:
 2427              		.cfi_restore_state
1006:Src/mpu6050_dmp.c **** 
 2428              		.loc 1 1006 9 is_stmt 1 view .LVU783
 2429 0194 FFF7FEFF 		bl	dmp_enable_gyro_cal
 2430              	.LVL168:
 2431 0198 8BE7     		b	.L134
 2432              	.L136:
1015:Src/mpu6050_dmp.c ****             tmp[1] = DINA80;
 2433              		.loc 1 1015 13 view .LVU784
1015:Src/mpu6050_dmp.c ****             tmp[1] = DINA80;
 2434              		.loc 1 1015 20 is_stmt 0 view .LVU785
 2435 019a B023     		movs	r3, #176
 2436 019c 8DF80430 		strb	r3, [sp, #4]
1016:Src/mpu6050_dmp.c ****             tmp[2] = DINAC2;
 2437              		.loc 1 1016 13 is_stmt 1 view .LVU786
1016:Src/mpu6050_dmp.c ****             tmp[2] = DINAC2;
 2438              		.loc 1 1016 20 is_stmt 0 view .LVU787
 2439 01a0 8023     		movs	r3, #128
 2440 01a2 8DF80530 		strb	r3, [sp, #5]
1017:Src/mpu6050_dmp.c ****             tmp[3] = DINA90;
 2441              		.loc 1 1017 13 is_stmt 1 view .LVU788
1017:Src/mpu6050_dmp.c ****             tmp[3] = DINA90;
 2442              		.loc 1 1017 20 is_stmt 0 view .LVU789
 2443 01a6 B423     		movs	r3, #180
 2444 01a8 8DF80630 		strb	r3, [sp, #6]
1018:Src/mpu6050_dmp.c ****         }
 2445              		.loc 1 1018 13 is_stmt 1 view .LVU790
1018:Src/mpu6050_dmp.c ****         }
 2446              		.loc 1 1018 20 is_stmt 0 view .LVU791
 2447 01ac 9023     		movs	r3, #144
 2448 01ae 8DE7     		b	.L166
 2449              	.L138:
1037:Src/mpu6050_dmp.c ****         mpu_write_mem(CFG_20, 1, tmp);
 2450              		.loc 1 1037 9 is_stmt 1 view .LVU792
1037:Src/mpu6050_dmp.c ****         mpu_write_mem(CFG_20, 1, tmp);
 2451              		.loc 1 1037 16 is_stmt 0 view .LVU793
 2452 01b0 D823     		movs	r3, #216
1038:Src/mpu6050_dmp.c ****     }
 2453              		.loc 1 1038 9 view .LVU794
 2454 01b2 0121     		movs	r1, #1
 2455 01b4 01AA     		add	r2, sp, #4
 2456 01b6 4FF40B60 		mov	r0, #2224
1037:Src/mpu6050_dmp.c ****         mpu_write_mem(CFG_20, 1, tmp);
 2457              		.loc 1 1037 16 view .LVU795
 2458 01ba 8DF80430 		strb	r3, [sp, #4]
1038:Src/mpu6050_dmp.c ****     }
 2459              		.loc 1 1038 9 is_stmt 1 view .LVU796
 2460 01be FFF7FEFF 		bl	mpu_write_mem
 2461              	.LVL169:
 2462 01c2 B1E7     		b	.L139
 2463              	.L145:
1063:Src/mpu6050_dmp.c ****     if (mask & DMP_FEATURE_SEND_ANY_GYRO)
 2464              		.loc 1 1063 9 view .LVU797
1063:Src/mpu6050_dmp.c ****     if (mask & DMP_FEATURE_SEND_ANY_GYRO)
 2465              		.loc 1 1063 27 is_stmt 0 view .LVU798
 2466 01c4 0623     		movs	r3, #6
ARM GAS  /tmp/ccW0iIf7.s 			page 77


 2467 01c6 AB73     		strb	r3, [r5, #14]
 2468 01c8 D2E7     		b	.L146
 2469              	.L168:
 2470 01ca 00BF     		.align	2
 2471              	.L167:
 2472 01cc 09E3CA02 		.word	46850825
 2473 01d0 00000000 		.word	.LANCHOR1
 2474              		.cfi_endproc
 2475              	.LFE77:
 2477              		.section	.rodata.dmp_set_interrupt_mode.str1.1,"aMS",%progbits,1
 2478              	.LC7:
 2479 0000 D8B1B9F3 		.ascii	"\330\261\271\363\213\243\221\266\011\264\331\000"
 2479      8BA391B6 
 2479      09B4D900 
 2480              	.LC8:
 2481 000c DAB1B9F3 		.ascii	"\332\261\271\363\213\243\221\266\332\264\332\000"
 2481      8BA391B6 
 2481      DAB4DA00 
 2482              		.section	.text.dmp_set_interrupt_mode,"ax",%progbits
 2483              		.align	1
 2484              		.global	dmp_set_interrupt_mode
 2485              		.syntax unified
 2486              		.thumb
 2487              		.thumb_func
 2488              		.fpu softvfp
 2490              	dmp_set_interrupt_mode:
 2491              	.LVL170:
 2492              	.LFB83:
1151:Src/mpu6050_dmp.c **** 
1152:Src/mpu6050_dmp.c **** /**
1153:Src/mpu6050_dmp.c ****  *  @brief      Decode the four-byte gesture data and execute any callbacks.
1154:Src/mpu6050_dmp.c ****  *  @param[in]  gesture Gesture data from DMP packet.
1155:Src/mpu6050_dmp.c ****  *  @return     0 if successful.
1156:Src/mpu6050_dmp.c ****  */
1157:Src/mpu6050_dmp.c **** static int decode_gesture(unsigned char *gesture)
1158:Src/mpu6050_dmp.c **** {
1159:Src/mpu6050_dmp.c ****     unsigned char tap, android_orient;
1160:Src/mpu6050_dmp.c **** 
1161:Src/mpu6050_dmp.c ****     android_orient = gesture[3] & 0xC0;
1162:Src/mpu6050_dmp.c ****     tap = 0x3F & gesture[3];
1163:Src/mpu6050_dmp.c **** 
1164:Src/mpu6050_dmp.c ****     if (gesture[1] & INT_SRC_TAP) {
1165:Src/mpu6050_dmp.c ****         unsigned char direction, count;
1166:Src/mpu6050_dmp.c ****         direction = tap >> 3;
1167:Src/mpu6050_dmp.c ****         count = (tap % 8) + 1;
1168:Src/mpu6050_dmp.c ****         if (dmp.tap_cb)
1169:Src/mpu6050_dmp.c ****             dmp.tap_cb(direction, count);
1170:Src/mpu6050_dmp.c ****     }
1171:Src/mpu6050_dmp.c **** 
1172:Src/mpu6050_dmp.c ****     if (gesture[1] & INT_SRC_ANDROID_ORIENT) {
1173:Src/mpu6050_dmp.c ****         if (dmp.android_orient_cb)
1174:Src/mpu6050_dmp.c ****             dmp.android_orient_cb(android_orient >> 6);
1175:Src/mpu6050_dmp.c ****     }
1176:Src/mpu6050_dmp.c **** 
1177:Src/mpu6050_dmp.c ****     return 0;
1178:Src/mpu6050_dmp.c **** }
1179:Src/mpu6050_dmp.c **** 
ARM GAS  /tmp/ccW0iIf7.s 			page 78


1180:Src/mpu6050_dmp.c **** /**
1181:Src/mpu6050_dmp.c ****  *  @brief      Specify when a DMP interrupt should occur.
1182:Src/mpu6050_dmp.c ****  *  A DMP interrupt can be configured to trigger on either of the two
1183:Src/mpu6050_dmp.c ****  *  conditions below:
1184:Src/mpu6050_dmp.c ****  *  \n a. One FIFO period has elapsed (set by @e mpu_set_sample_rate).
1185:Src/mpu6050_dmp.c ****  *  \n b. A tap event has been detected.
1186:Src/mpu6050_dmp.c ****  *  @param[in]  mode    DMP_INT_GESTURE or DMP_INT_CONTINUOUS.
1187:Src/mpu6050_dmp.c ****  *  @return     0 if successful.
1188:Src/mpu6050_dmp.c ****  */
1189:Src/mpu6050_dmp.c **** int dmp_set_interrupt_mode(unsigned char mode)
1190:Src/mpu6050_dmp.c **** {
 2493              		.loc 1 1190 1 is_stmt 1 view -0
 2494              		.cfi_startproc
 2495              		@ args = 0, pretend = 0, frame = 24
 2496              		@ frame_needed = 0, uses_anonymous_args = 0
1191:Src/mpu6050_dmp.c ****     const unsigned char regs_continuous[11] =
 2497              		.loc 1 1191 5 view .LVU800
1190:Src/mpu6050_dmp.c ****     const unsigned char regs_continuous[11] =
 2498              		.loc 1 1190 1 is_stmt 0 view .LVU801
 2499 0000 10B5     		push	{r4, lr}
 2500              	.LCFI56:
 2501              		.cfi_def_cfa_offset 8
 2502              		.cfi_offset 4, -8
 2503              		.cfi_offset 14, -4
 2504 0002 86B0     		sub	sp, sp, #24
 2505              	.LCFI57:
 2506              		.cfi_def_cfa_offset 32
 2507              		.loc 1 1191 25 view .LVU802
 2508 0004 6B46     		mov	r3, sp
1190:Src/mpu6050_dmp.c ****     const unsigned char regs_continuous[11] =
 2509              		.loc 1 1190 1 view .LVU803
 2510 0006 0246     		mov	r2, r0
 2511              		.loc 1 1191 25 view .LVU804
 2512 0008 104C     		ldr	r4, .L174
1192:Src/mpu6050_dmp.c ****         {0xd8, 0xb1, 0xb9, 0xf3, 0x8b, 0xa3, 0x91, 0xb6, 0x09, 0xb4, 0xd9};
1193:Src/mpu6050_dmp.c ****     const unsigned char regs_gesture[11] =
1194:Src/mpu6050_dmp.c ****         {0xda, 0xb1, 0xb9, 0xf3, 0x8b, 0xa3, 0x91, 0xb6, 0xda, 0xb4, 0xda};
1195:Src/mpu6050_dmp.c **** 
1196:Src/mpu6050_dmp.c ****     switch (mode) {
 2513              		.loc 1 1196 5 view .LVU805
 2514 000a 012A     		cmp	r2, #1
1191:Src/mpu6050_dmp.c ****         {0xd8, 0xb1, 0xb9, 0xf3, 0x8b, 0xa3, 0x91, 0xb6, 0x09, 0xb4, 0xd9};
 2515              		.loc 1 1191 25 view .LVU806
 2516 000c 2068     		ldr	r0, [r4]	@ unaligned
 2517              	.LVL171:
1191:Src/mpu6050_dmp.c ****         {0xd8, 0xb1, 0xb9, 0xf3, 0x8b, 0xa3, 0x91, 0xb6, 0x09, 0xb4, 0xd9};
 2518              		.loc 1 1191 25 view .LVU807
 2519 000e 6168     		ldr	r1, [r4, #4]	@ unaligned
 2520 0010 03C3     		stmia	r3!, {r0, r1}
 2521 0012 2089     		ldrh	r0, [r4, #8]	@ unaligned
 2522 0014 A17A     		ldrb	r1, [r4, #10]	@ zero_extendqisi2
1193:Src/mpu6050_dmp.c ****         {0xda, 0xb1, 0xb9, 0xf3, 0x8b, 0xa3, 0x91, 0xb6, 0xda, 0xb4, 0xda};
 2523              		.loc 1 1193 25 view .LVU808
 2524 0016 0E4C     		ldr	r4, .L174+4
1191:Src/mpu6050_dmp.c ****         {0xd8, 0xb1, 0xb9, 0xf3, 0x8b, 0xa3, 0x91, 0xb6, 0x09, 0xb4, 0xd9};
 2525              		.loc 1 1191 25 view .LVU809
 2526 0018 1880     		strh	r0, [r3]	@ unaligned
ARM GAS  /tmp/ccW0iIf7.s 			page 79


 2527 001a 9970     		strb	r1, [r3, #2]
1193:Src/mpu6050_dmp.c ****         {0xda, 0xb1, 0xb9, 0xf3, 0x8b, 0xa3, 0x91, 0xb6, 0xda, 0xb4, 0xda};
 2528              		.loc 1 1193 5 is_stmt 1 view .LVU810
1193:Src/mpu6050_dmp.c ****         {0xda, 0xb1, 0xb9, 0xf3, 0x8b, 0xa3, 0x91, 0xb6, 0xda, 0xb4, 0xda};
 2529              		.loc 1 1193 25 is_stmt 0 view .LVU811
 2530 001c 2068     		ldr	r0, [r4]	@ unaligned
 2531 001e 6168     		ldr	r1, [r4, #4]	@ unaligned
 2532 0020 03AB     		add	r3, sp, #12
 2533 0022 03C3     		stmia	r3!, {r0, r1}
 2534 0024 2089     		ldrh	r0, [r4, #8]	@ unaligned
 2535 0026 A17A     		ldrb	r1, [r4, #10]	@ zero_extendqisi2
 2536 0028 1880     		strh	r0, [r3]	@ unaligned
 2537 002a 9970     		strb	r1, [r3, #2]
 2538              		.loc 1 1196 5 is_stmt 1 view .LVU812
 2539 002c 09D0     		beq	.L170
 2540 002e 022A     		cmp	r2, #2
 2541 0030 09D1     		bne	.L172
1197:Src/mpu6050_dmp.c ****     case DMP_INT_CONTINUOUS:
1198:Src/mpu6050_dmp.c ****         return mpu_write_mem(CFG_FIFO_ON_EVENT, 11,
 2542              		.loc 1 1198 9 view .LVU813
 2543              		.loc 1 1198 16 is_stmt 0 view .LVU814
 2544 0032 6A46     		mov	r2, sp
 2545              	.L173:
1199:Src/mpu6050_dmp.c ****             (unsigned char*)regs_continuous);
1200:Src/mpu6050_dmp.c ****     case DMP_INT_GESTURE:
1201:Src/mpu6050_dmp.c ****         return mpu_write_mem(CFG_FIFO_ON_EVENT, 11,
 2546              		.loc 1 1201 16 view .LVU815
 2547 0034 0B21     		movs	r1, #11
 2548 0036 40F68220 		movw	r0, #2690
 2549 003a FFF7FEFF 		bl	mpu_write_mem
 2550              	.LVL172:
 2551              	.L169:
1202:Src/mpu6050_dmp.c ****             (unsigned char*)regs_gesture);
1203:Src/mpu6050_dmp.c ****     default:
1204:Src/mpu6050_dmp.c ****         return -1;
1205:Src/mpu6050_dmp.c ****     }
1206:Src/mpu6050_dmp.c **** }
 2552              		.loc 1 1206 1 view .LVU816
 2553 003e 06B0     		add	sp, sp, #24
 2554              	.LCFI58:
 2555              		.cfi_remember_state
 2556              		.cfi_def_cfa_offset 8
 2557              		@ sp needed
 2558 0040 10BD     		pop	{r4, pc}
 2559              	.L170:
 2560              	.LCFI59:
 2561              		.cfi_restore_state
1201:Src/mpu6050_dmp.c ****             (unsigned char*)regs_gesture);
 2562              		.loc 1 1201 9 is_stmt 1 view .LVU817
1201:Src/mpu6050_dmp.c ****             (unsigned char*)regs_gesture);
 2563              		.loc 1 1201 16 is_stmt 0 view .LVU818
 2564 0042 03AA     		add	r2, sp, #12
 2565 0044 F6E7     		b	.L173
 2566              	.L172:
1196:Src/mpu6050_dmp.c ****     case DMP_INT_CONTINUOUS:
 2567              		.loc 1 1196 5 view .LVU819
 2568 0046 4FF0FF30 		mov	r0, #-1
ARM GAS  /tmp/ccW0iIf7.s 			page 80


 2569 004a F8E7     		b	.L169
 2570              	.L175:
 2571              		.align	2
 2572              	.L174:
 2573 004c 00000000 		.word	.LC7
 2574 0050 0C000000 		.word	.LC8
 2575              		.cfi_endproc
 2576              	.LFE83:
 2578              		.section	.text.dmp_read_fifo,"ax",%progbits
 2579              		.align	1
 2580              		.global	dmp_read_fifo
 2581              		.syntax unified
 2582              		.thumb
 2583              		.thumb_func
 2584              		.fpu softvfp
 2586              	dmp_read_fifo:
 2587              	.LVL173:
 2588              	.LFB84:
1207:Src/mpu6050_dmp.c **** 
1208:Src/mpu6050_dmp.c **** /**
1209:Src/mpu6050_dmp.c ****  *  @brief      Get one packet from the FIFO.
1210:Src/mpu6050_dmp.c ****  *  If @e sensors does not contain a particular sensor, disregard the data
1211:Src/mpu6050_dmp.c ****  *  returned to that pointer.
1212:Src/mpu6050_dmp.c ****  *  \n @e sensors can contain a combination of the following flags:
1213:Src/mpu6050_dmp.c ****  *  \n INV_X_GYRO, INV_Y_GYRO, INV_Z_GYRO
1214:Src/mpu6050_dmp.c ****  *  \n INV_XYZ_GYRO
1215:Src/mpu6050_dmp.c ****  *  \n INV_XYZ_ACCEL
1216:Src/mpu6050_dmp.c ****  *  \n INV_WXYZ_QUAT
1217:Src/mpu6050_dmp.c ****  *  \n If the FIFO has no new data, @e sensors will be zero.
1218:Src/mpu6050_dmp.c ****  *  \n If the FIFO is disabled, @e sensors will be zero and this function will
1219:Src/mpu6050_dmp.c ****  *  return a non-zero error code.
1220:Src/mpu6050_dmp.c ****  *  @param[out] gyro        Gyro data in hardware units.
1221:Src/mpu6050_dmp.c ****  *  @param[out] accel       Accel data in hardware units.
1222:Src/mpu6050_dmp.c ****  *  @param[out] quat        3-axis quaternion data in hardware units.
1223:Src/mpu6050_dmp.c ****  *  @param[out] timestamp   Timestamp in milliseconds.
1224:Src/mpu6050_dmp.c ****  *  @param[out] sensors     Mask of sensors read from FIFO.
1225:Src/mpu6050_dmp.c ****  *  @param[out] more        Number of remaining packets.
1226:Src/mpu6050_dmp.c ****  *  @return     0 if successful.
1227:Src/mpu6050_dmp.c ****  */
1228:Src/mpu6050_dmp.c **** int dmp_read_fifo(short *gyro, short *accel, long *quat,
1229:Src/mpu6050_dmp.c ****     unsigned long *timestamp, short *sensors, unsigned char *more)
1230:Src/mpu6050_dmp.c **** {
 2589              		.loc 1 1230 1 is_stmt 1 view -0
 2590              		.cfi_startproc
 2591              		@ args = 8, pretend = 0, frame = 32
 2592              		@ frame_needed = 0, uses_anonymous_args = 0
1231:Src/mpu6050_dmp.c ****     unsigned char fifo_data[MAX_PACKET_LENGTH];
 2593              		.loc 1 1231 5 view .LVU821
1232:Src/mpu6050_dmp.c ****     unsigned char ii = 0;
 2594              		.loc 1 1232 5 view .LVU822
1233:Src/mpu6050_dmp.c **** 
1234:Src/mpu6050_dmp.c ****     /* TODO: sensors[0] only changes when dmp_enable_feature is called. We can
1235:Src/mpu6050_dmp.c ****      * cache this value and save some cycles.
1236:Src/mpu6050_dmp.c ****      */
1237:Src/mpu6050_dmp.c ****     sensors[0] = 0;
 2595              		.loc 1 1237 5 view .LVU823
1230:Src/mpu6050_dmp.c ****     unsigned char fifo_data[MAX_PACKET_LENGTH];
ARM GAS  /tmp/ccW0iIf7.s 			page 81


 2596              		.loc 1 1230 1 is_stmt 0 view .LVU824
 2597 0000 2DE9F04F 		push	{r4, r5, r6, r7, r8, r9, r10, fp, lr}
 2598              	.LCFI60:
 2599              		.cfi_def_cfa_offset 36
 2600              		.cfi_offset 4, -36
 2601              		.cfi_offset 5, -32
 2602              		.cfi_offset 6, -28
 2603              		.cfi_offset 7, -24
 2604              		.cfi_offset 8, -20
 2605              		.cfi_offset 9, -16
 2606              		.cfi_offset 10, -12
 2607              		.cfi_offset 11, -8
 2608              		.cfi_offset 14, -4
 2609 0004 9946     		mov	r9, r3
 2610              		.loc 1 1237 16 view .LVU825
 2611 0006 0023     		movs	r3, #0
 2612              	.LVL174:
1230:Src/mpu6050_dmp.c ****     unsigned char fifo_data[MAX_PACKET_LENGTH];
 2613              		.loc 1 1230 1 view .LVU826
 2614 0008 89B0     		sub	sp, sp, #36
 2615              	.LCFI61:
 2616              		.cfi_def_cfa_offset 72
1230:Src/mpu6050_dmp.c ****     unsigned char fifo_data[MAX_PACKET_LENGTH];
 2617              		.loc 1 1230 1 view .LVU827
 2618 000a 129E     		ldr	r6, [sp, #72]
1238:Src/mpu6050_dmp.c **** 
1239:Src/mpu6050_dmp.c ****     /* Get a packet. */
1240:Src/mpu6050_dmp.c ****     if (mpu_read_fifo_stream(dmp.packet_length, fifo_data, more))
 2619              		.loc 1 1240 33 view .LVU828
 2620 000c DFF89CA1 		ldr	r10, .L206
1230:Src/mpu6050_dmp.c ****     unsigned char fifo_data[MAX_PACKET_LENGTH];
 2621              		.loc 1 1230 1 view .LVU829
 2622 0010 0746     		mov	r7, r0
 2623 0012 8846     		mov	r8, r1
 2624 0014 9346     		mov	fp, r2
 2625              		.loc 1 1240 9 view .LVU830
 2626 0016 6946     		mov	r1, sp
 2627              	.LVL175:
 2628              		.loc 1 1240 9 view .LVU831
 2629 0018 139A     		ldr	r2, [sp, #76]
 2630              	.LVL176:
 2631              		.loc 1 1240 9 view .LVU832
 2632 001a 9AF80E00 		ldrb	r0, [r10, #14]	@ zero_extendqisi2
 2633              	.LVL177:
1237:Src/mpu6050_dmp.c **** 
 2634              		.loc 1 1237 16 view .LVU833
 2635 001e 3380     		strh	r3, [r6]	@ movhi
 2636              		.loc 1 1240 5 is_stmt 1 view .LVU834
 2637              		.loc 1 1240 9 is_stmt 0 view .LVU835
 2638 0020 FFF7FEFF 		bl	mpu_read_fifo_stream
 2639              	.LVL178:
 2640              		.loc 1 1240 8 view .LVU836
 2641 0024 0546     		mov	r5, r0
 2642 0026 50BB     		cbnz	r0, .L186
1241:Src/mpu6050_dmp.c ****         return -1;
1242:Src/mpu6050_dmp.c **** 
1243:Src/mpu6050_dmp.c ****     /* Parse DMP packet. */
ARM GAS  /tmp/ccW0iIf7.s 			page 82


1244:Src/mpu6050_dmp.c ****     if (dmp.feature_mask & (DMP_FEATURE_LP_QUAT | DMP_FEATURE_6X_LP_QUAT)) {
 2643              		.loc 1 1244 5 is_stmt 1 view .LVU837
 2644              		.loc 1 1244 12 is_stmt 0 view .LVU838
 2645 0028 BAF80A30 		ldrh	r3, [r10, #10]
 2646              		.loc 1 1244 8 view .LVU839
 2647 002c 13F0140F 		tst	r3, #20
 2648 0030 00F0B980 		beq	.L187
 2649              	.LBB17:
1245:Src/mpu6050_dmp.c **** #ifdef FIFO_CORRUPTION_CHECK
1246:Src/mpu6050_dmp.c ****         long quat_q14[4], quat_mag_sq;
 2650              		.loc 1 1246 9 is_stmt 1 view .LVU840
1247:Src/mpu6050_dmp.c **** #endif
1248:Src/mpu6050_dmp.c ****         quat[0] = ((long)fifo_data[0]  << 24) | ((long)fifo_data[1]  << 16) | ((long)fifo_data[2]  
 2651              		.loc 1 1248 9 view .LVU841
 2652 0034 0199     		ldr	r1, [sp, #4]
 2653 0036 0098     		ldr	r0, [sp]
 2654 0038 0CBA     		rev	r4, r1
1249:Src/mpu6050_dmp.c ****         quat[1] = ((long)fifo_data[4]  << 24) | ((long)fifo_data[5]  << 16) | ((long)fifo_data[6]  
1250:Src/mpu6050_dmp.c ****         quat[2] = ((long)fifo_data[8]  << 24) | ((long)fifo_data[9]  << 16) | ((long)fifo_data[10] 
1251:Src/mpu6050_dmp.c ****         quat[3] = ((long)fifo_data[12] << 24) | ((long)fifo_data[13] << 16) | ((long)fifo_data[14] 
1252:Src/mpu6050_dmp.c ****         ii += 16;
1253:Src/mpu6050_dmp.c **** #ifdef FIFO_CORRUPTION_CHECK
1254:Src/mpu6050_dmp.c ****         /* We can detect a corrupted FIFO by monitoring the quaternion data and
1255:Src/mpu6050_dmp.c ****          * ensuring that the magnitude is always normalized to one. This
1256:Src/mpu6050_dmp.c ****          * shouldn't happen in normal operation, but if an I2C error occurs,
1257:Src/mpu6050_dmp.c ****          * the FIFO reads might become misaligned.
1258:Src/mpu6050_dmp.c ****          *
1259:Src/mpu6050_dmp.c ****          * Let's start by scaling down the quaternion data to avoid long long
1260:Src/mpu6050_dmp.c ****          * math.
1261:Src/mpu6050_dmp.c ****          */
1262:Src/mpu6050_dmp.c ****         quat_q14[0] = quat[0] >> 16;
1263:Src/mpu6050_dmp.c ****         quat_q14[1] = quat[1] >> 16;
 2655              		.loc 1 1263 31 is_stmt 0 view .LVU842
 2656 003a 4FEA244C 		asr	ip, r4, #16
1264:Src/mpu6050_dmp.c ****         quat_q14[2] = quat[2] >> 16;
1265:Src/mpu6050_dmp.c ****         quat_q14[3] = quat[3] >> 16;
1266:Src/mpu6050_dmp.c ****         quat_mag_sq = quat_q14[0] * quat_q14[0] + quat_q14[1] * quat_q14[1] +
 2657              		.loc 1 1266 63 view .LVU843
 2658 003e 0CFB0CFC 		mul	ip, ip, ip
 2659 0042 00BA     		rev	r0, r0
1248:Src/mpu6050_dmp.c ****         quat[1] = ((long)fifo_data[4]  << 24) | ((long)fifo_data[5]  << 16) | ((long)fifo_data[6]  
 2660              		.loc 1 1248 17 view .LVU844
 2661 0044 CBF80000 		str	r0, [fp]
1249:Src/mpu6050_dmp.c ****         quat[1] = ((long)fifo_data[4]  << 24) | ((long)fifo_data[5]  << 16) | ((long)fifo_data[6]  
 2662              		.loc 1 1249 9 is_stmt 1 view .LVU845
1262:Src/mpu6050_dmp.c ****         quat_q14[1] = quat[1] >> 16;
 2663              		.loc 1 1262 31 is_stmt 0 view .LVU846
 2664 0048 0014     		asrs	r0, r0, #16
 2665              		.loc 1 1266 49 view .LVU847
 2666 004a 00FB00CC 		mla	ip, r0, r0, ip
 2667 004e 0299     		ldr	r1, [sp, #8]
 2668 0050 039A     		ldr	r2, [sp, #12]
 2669 0052 09BA     		rev	r1, r1
1250:Src/mpu6050_dmp.c ****         quat[3] = ((long)fifo_data[12] << 24) | ((long)fifo_data[13] << 16) | ((long)fifo_data[14] 
 2670              		.loc 1 1250 17 view .LVU848
 2671 0054 CBF80810 		str	r1, [fp, #8]
1264:Src/mpu6050_dmp.c ****         quat_q14[3] = quat[3] >> 16;
ARM GAS  /tmp/ccW0iIf7.s 			page 83


 2672              		.loc 1 1264 31 view .LVU849
 2673 0058 0914     		asrs	r1, r1, #16
 2674              		.loc 1 1266 77 view .LVU850
 2675 005a 01FB01C1 		mla	r1, r1, r1, ip
 2676 005e 12BA     		rev	r2, r2
1251:Src/mpu6050_dmp.c ****         ii += 16;
